
Test_servo_v1.elf:     file format elf32-avr

Sections:
Idx Name          Size      VMA       LMA       File off  Algn
  0 .data         00000062  00800100  0000a5d0  0000a664  2**0
                  CONTENTS, ALLOC, LOAD, DATA
  1 .text         0000a5d0  00000000  00000000  00000094  2**1
                  CONTENTS, ALLOC, LOAD, READONLY, CODE
  2 .bss          000012fb  00800162  00800162  0000a6c6  2**0
                  ALLOC
  3 .comment      00000030  00000000  00000000  0000a6c6  2**0
                  CONTENTS, READONLY
  4 .debug_aranges 000003d0  00000000  00000000  0000a6f6  2**0
                  CONTENTS, READONLY, DEBUGGING
  5 .debug_info   0000562b  00000000  00000000  0000aac6  2**0
                  CONTENTS, READONLY, DEBUGGING
  6 .debug_abbrev 00000bd3  00000000  00000000  000100f1  2**0
                  CONTENTS, READONLY, DEBUGGING
  7 .debug_line   00002dce  00000000  00000000  00010cc4  2**0
                  CONTENTS, READONLY, DEBUGGING
  8 .debug_frame  000010a4  00000000  00000000  00013a94  2**2
                  CONTENTS, READONLY, DEBUGGING
  9 .debug_str    00001417  00000000  00000000  00014b38  2**0
                  CONTENTS, READONLY, DEBUGGING
 10 .debug_loc    00005084  00000000  00000000  00015f4f  2**0
                  CONTENTS, READONLY, DEBUGGING
 11 .debug_ranges 000003c8  00000000  00000000  0001afd3  2**0
                  CONTENTS, READONLY, DEBUGGING

Disassembly of section .text:

00000000 <__vectors>:
       0:	89 c0       	rjmp	.+274    	; 0x114 <__ctors_end>
       2:	00 00       	nop
       4:	0c 94 7b 1b 	jmp	0x36f6	; 0x36f6 <__vector_1>
       8:	0c 94 df 1b 	jmp	0x37be	; 0x37be <__vector_2>
       c:	a2 c0       	rjmp	.+324    	; 0x152 <__bad_interrupt>
       e:	00 00       	nop
      10:	a0 c0       	rjmp	.+320    	; 0x152 <__bad_interrupt>
      12:	00 00       	nop
      14:	9e c0       	rjmp	.+316    	; 0x152 <__bad_interrupt>
      16:	00 00       	nop
      18:	9c c0       	rjmp	.+312    	; 0x152 <__bad_interrupt>
      1a:	00 00       	nop
      1c:	9a c0       	rjmp	.+308    	; 0x152 <__bad_interrupt>
      1e:	00 00       	nop
      20:	98 c0       	rjmp	.+304    	; 0x152 <__bad_interrupt>
      22:	00 00       	nop
      24:	96 c0       	rjmp	.+300    	; 0x152 <__bad_interrupt>
      26:	00 00       	nop
      28:	94 c0       	rjmp	.+296    	; 0x152 <__bad_interrupt>
      2a:	00 00       	nop
      2c:	0c 94 19 08 	jmp	0x1032	; 0x1032 <__vector_11>
      30:	90 c0       	rjmp	.+288    	; 0x152 <__bad_interrupt>
      32:	00 00       	nop
      34:	8e c0       	rjmp	.+284    	; 0x152 <__bad_interrupt>
      36:	00 00       	nop
      38:	8c c0       	rjmp	.+280    	; 0x152 <__bad_interrupt>
      3a:	00 00       	nop
      3c:	8a c0       	rjmp	.+276    	; 0x152 <__bad_interrupt>
      3e:	00 00       	nop
      40:	88 c0       	rjmp	.+272    	; 0x152 <__bad_interrupt>
      42:	00 00       	nop
      44:	86 c0       	rjmp	.+268    	; 0x152 <__bad_interrupt>
      46:	00 00       	nop
      48:	e3 c7       	rjmp	.+4038   	; 0x1010 <__vector_18>
      4a:	00 00       	nop
      4c:	82 c0       	rjmp	.+260    	; 0x152 <__bad_interrupt>
      4e:	00 00       	nop
      50:	80 c0       	rjmp	.+256    	; 0x152 <__bad_interrupt>
      52:	00 00       	nop
      54:	7e c0       	rjmp	.+252    	; 0x152 <__bad_interrupt>
      56:	00 00       	nop
      58:	7c c0       	rjmp	.+248    	; 0x152 <__bad_interrupt>
      5a:	00 00       	nop
      5c:	7a c0       	rjmp	.+244    	; 0x152 <__bad_interrupt>
      5e:	00 00       	nop
      60:	78 c0       	rjmp	.+240    	; 0x152 <__bad_interrupt>
      62:	00 00       	nop
      64:	76 c0       	rjmp	.+236    	; 0x152 <__bad_interrupt>
      66:	00 00       	nop
      68:	74 c0       	rjmp	.+232    	; 0x152 <__bad_interrupt>
      6a:	00 00       	nop
      6c:	72 c0       	rjmp	.+228    	; 0x152 <__bad_interrupt>
      6e:	00 00       	nop
      70:	70 c0       	rjmp	.+224    	; 0x152 <__bad_interrupt>
      72:	00 00       	nop
      74:	6e c0       	rjmp	.+220    	; 0x152 <__bad_interrupt>
      76:	00 00       	nop
      78:	6c c0       	rjmp	.+216    	; 0x152 <__bad_interrupt>
      7a:	00 00       	nop
      7c:	6a c0       	rjmp	.+212    	; 0x152 <__bad_interrupt>
      7e:	00 00       	nop
      80:	68 c0       	rjmp	.+208    	; 0x152 <__bad_interrupt>
      82:	00 00       	nop
      84:	66 c0       	rjmp	.+204    	; 0x152 <__bad_interrupt>
      86:	00 00       	nop
      88:	64 c0       	rjmp	.+200    	; 0x152 <__bad_interrupt>
      8a:	00 00       	nop
      8c:	15 4d       	sbci	r17, 0xD5	; 213
      8e:	81 4c       	sbci	r24, 0xC1	; 193
      90:	c9 4c       	sbci	r28, 0xC9	; 201
      92:	80 4d       	sbci	r24, 0xD0	; 208
      94:	a5 4c       	sbci	r26, 0xC5	; 197
      96:	91 4c       	sbci	r25, 0xC1	; 193
      98:	b5 4c       	sbci	r27, 0xC5	; 197
      9a:	80 4d       	sbci	r24, 0xD0	; 208
      9c:	ef 4c       	sbci	r30, 0xCF	; 207
      9e:	00 4d       	sbci	r16, 0xD0	; 208
      a0:	da 4c       	sbci	r29, 0xCA	; 202
      a2:	a6 4d       	sbci	r26, 0xD6	; 214
      a4:	9e 4d       	sbci	r25, 0xDE	; 222
      a6:	b6 4d       	sbci	r27, 0xD6	; 214
      a8:	ae 4d       	sbci	r26, 0xDE	; 222
      aa:	c6 4d       	sbci	r28, 0xD6	; 214
      ac:	be 4d       	sbci	r27, 0xDE	; 222
      ae:	d6 4d       	sbci	r29, 0xD6	; 214
      b0:	ce 4d       	sbci	r28, 0xDE	; 222
      b2:	e6 4d       	sbci	r30, 0xD6	; 214
      b4:	de 4d       	sbci	r29, 0xDE	; 222
      b6:	f6 4d       	sbci	r31, 0xD6	; 214
      b8:	ee 4d       	sbci	r30, 0xDE	; 222
      ba:	06 4e       	sbci	r16, 0xE6	; 230
      bc:	fe 4d       	sbci	r31, 0xDE	; 222
      be:	08 4a       	sbci	r16, 0xA8	; 168
      c0:	d7 3b       	cpi	r29, 0xB7	; 183
      c2:	3b ce       	rjmp	.-906    	; 0xfffffd3a <__eeprom_end+0xff7efd3a>
      c4:	01 6e       	ori	r16, 0xE1	; 225
      c6:	84 bc       	out	0x24, r8	; 36
      c8:	bf fd       	.word	0xfdbf	; ????
      ca:	c1 2f       	mov	r28, r17
      cc:	3d 6c       	ori	r19, 0xCD	; 205
      ce:	74 31       	cpi	r23, 0x14	; 20
      d0:	9a bd       	out	0x2a, r25	; 42
      d2:	56 83       	std	Z+6, r21	; 0x06
      d4:	3d da       	rcall	.-2950   	; 0xfffff550 <__eeprom_end+0xff7ef550>
      d6:	3d 00       	.word	0x003d	; ????
      d8:	c7 7f       	andi	r28, 0xF7	; 247
      da:	11 be       	out	0x31, r1	; 49
      dc:	d9 e4       	ldi	r29, 0x49	; 73
      de:	bb 4c       	sbci	r27, 0xCB	; 203
      e0:	3e 91       	ld	r19, -X
      e2:	6b aa       	std	Y+51, r6	; 0x33
      e4:	aa be       	out	0x3a, r10	; 58
      e6:	00 00       	nop
      e8:	00 80       	ld	r0, Z
      ea:	3f 07       	cpc	r19, r31
      ec:	2c 7a       	andi	r18, 0xAC	; 172
      ee:	a5 ba       	out	0x15, r10	; 21
      f0:	6c c5       	rjmp	.+2776   	; 0xbca <nodesAndControl+0x4>
      f2:	90 da       	rcall	.-2784   	; 0xfffff614 <__eeprom_end+0xff7ef614>
      f4:	3b 93       	.word	0x933b	; ????
      f6:	65 fc       	sbrc	r6, 5
      f8:	8b bc       	out	0x2b, r8	; 43
      fa:	53 f8       	bld	r5, 3
      fc:	10 fd       	sbrc	r17, 0
      fe:	3c 56       	subi	r19, 0x6C	; 108
     100:	92 83       	std	Z+2, r25	; 0x02
     102:	4d bd       	out	0x2d, r20	; 45
     104:	87 9d       	mul	r24, r7
     106:	3a b6       	in	r3, 0x3a	; 58
     108:	3d cb       	rjmp	.-2438   	; 0xfffff784 <__eeprom_end+0xff7ef784>
     10a:	c9 bf       	out	0x39, r28	; 57
     10c:	5b be       	out	0x3b, r5	; 59
     10e:	73 da       	rcall	.-2842   	; 0xfffff5f6 <__eeprom_end+0xff7ef5f6>
     110:	0f c9       	rjmp	.-3554   	; 0xfffff330 <__eeprom_end+0xff7ef330>
     112:	3f 00       	.word	0x003f	; ????

00000114 <__ctors_end>:
     114:	11 24       	eor	r1, r1
     116:	1f be       	out	0x3f, r1	; 63
     118:	cf ef       	ldi	r28, 0xFF	; 255
     11a:	d0 e4       	ldi	r29, 0x40	; 64
     11c:	de bf       	out	0x3e, r29	; 62
     11e:	cd bf       	out	0x3d, r28	; 61

00000120 <__do_copy_data>:
     120:	11 e0       	ldi	r17, 0x01	; 1
     122:	a0 e0       	ldi	r26, 0x00	; 0
     124:	b1 e0       	ldi	r27, 0x01	; 1
     126:	e0 ed       	ldi	r30, 0xD0	; 208
     128:	f5 ea       	ldi	r31, 0xA5	; 165
     12a:	00 e0       	ldi	r16, 0x00	; 0
     12c:	0b bf       	out	0x3b, r16	; 59
     12e:	02 c0       	rjmp	.+4      	; 0x134 <__do_copy_data+0x14>
     130:	07 90       	elpm	r0, Z+
     132:	0d 92       	st	X+, r0
     134:	a2 36       	cpi	r26, 0x62	; 98
     136:	b1 07       	cpc	r27, r17
     138:	d9 f7       	brne	.-10     	; 0x130 <__do_copy_data+0x10>

0000013a <__do_clear_bss>:
     13a:	24 e1       	ldi	r18, 0x14	; 20
     13c:	a2 e6       	ldi	r26, 0x62	; 98
     13e:	b1 e0       	ldi	r27, 0x01	; 1
     140:	01 c0       	rjmp	.+2      	; 0x144 <.do_clear_bss_start>

00000142 <.do_clear_bss_loop>:
     142:	1d 92       	st	X+, r1

00000144 <.do_clear_bss_start>:
     144:	ad 35       	cpi	r26, 0x5D	; 93
     146:	b2 07       	cpc	r27, r18
     148:	e1 f7       	brne	.-8      	; 0x142 <.do_clear_bss_loop>
     14a:	0e 94 ad 4e 	call	0x9d5a	; 0x9d5a <main>
     14e:	0c 94 e6 52 	jmp	0xa5cc	; 0xa5cc <_exit>

00000152 <__bad_interrupt>:
     152:	56 cf       	rjmp	.-340    	; 0x0 <__vectors>

00000154 <makeNodeData>:

// Får finnas i bägge, behövs i MapMode
int whatWayIn()
{
    return currentDirection_g;
}
     154:	fc 01       	movw	r30, r24
     156:	22 85       	ldd	r18, Z+10	; 0x0a
     158:	33 85       	ldd	r19, Z+11	; 0x0b
     15a:	22 0f       	add	r18, r18
     15c:	33 1f       	adc	r19, r19
     15e:	22 0f       	add	r18, r18
     160:	33 1f       	adc	r19, r19
     162:	22 0f       	add	r18, r18
     164:	33 1f       	adc	r19, r19
     166:	84 85       	ldd	r24, Z+12	; 0x0c
     168:	95 85       	ldd	r25, Z+13	; 0x0d
     16a:	88 0f       	add	r24, r24
     16c:	99 1f       	adc	r25, r25
     16e:	88 0f       	add	r24, r24
     170:	99 1f       	adc	r25, r25
     172:	82 2b       	or	r24, r18
     174:	93 2b       	or	r25, r19
     176:	20 89       	ldd	r18, Z+16	; 0x10
     178:	31 89       	ldd	r19, Z+17	; 0x11
     17a:	82 2b       	or	r24, r18
     17c:	93 2b       	or	r25, r19
     17e:	26 85       	ldd	r18, Z+14	; 0x0e
     180:	37 85       	ldd	r19, Z+15	; 0x0f
     182:	22 0f       	add	r18, r18
     184:	33 1f       	adc	r19, r19
     186:	82 2b       	or	r24, r18
     188:	93 2b       	or	r25, r19
     18a:	20 85       	ldd	r18, Z+8	; 0x08
     18c:	31 85       	ldd	r19, Z+9	; 0x09
     18e:	a9 01       	movw	r20, r18
     190:	43 70       	andi	r20, 0x03	; 3
     192:	55 27       	eor	r21, r21
     194:	42 95       	swap	r20
     196:	52 95       	swap	r21
     198:	50 7f       	andi	r21, 0xF0	; 240
     19a:	54 27       	eor	r21, r20
     19c:	40 7f       	andi	r20, 0xF0	; 240
     19e:	54 27       	eor	r21, r20
     1a0:	84 2b       	or	r24, r20
     1a2:	95 2b       	or	r25, r21
     1a4:	24 70       	andi	r18, 0x04	; 4
     1a6:	33 27       	eor	r19, r19
     1a8:	32 2f       	mov	r19, r18
     1aa:	22 27       	eor	r18, r18
     1ac:	82 2b       	or	r24, r18
     1ae:	93 2b       	or	r25, r19
     1b0:	42 81       	ldd	r20, Z+2	; 0x02
     1b2:	53 81       	ldd	r21, Z+3	; 0x03
     1b4:	4f 71       	andi	r20, 0x1F	; 31
     1b6:	55 27       	eor	r21, r21
     1b8:	54 2f       	mov	r21, r20
     1ba:	44 27       	eor	r20, r20
     1bc:	55 0f       	add	r21, r21
     1be:	84 2b       	or	r24, r20
     1c0:	95 2b       	or	r25, r21
     1c2:	08 95       	ret

000001c4 <updateTempDirections>:
     1c4:	80 91 98 01 	lds	r24, 0x0198
     1c8:	81 11       	cpse	r24, r1
     1ca:	09 c0       	rjmp	.+18     	; 0x1de <updateTempDirections+0x1a>
     1cc:	80 91 23 0c 	lds	r24, 0x0C23
     1d0:	90 91 24 0c 	lds	r25, 0x0C24
     1d4:	90 93 69 01 	sts	0x0169, r25
     1d8:	80 93 68 01 	sts	0x0168, r24
     1dc:	1e c0       	rjmp	.+60     	; 0x21a <updateTempDirections+0x56>
     1de:	81 30       	cpi	r24, 0x01	; 1
     1e0:	49 f4       	brne	.+18     	; 0x1f4 <updateTempDirections+0x30>
     1e2:	80 91 25 0c 	lds	r24, 0x0C25
     1e6:	90 91 26 0c 	lds	r25, 0x0C26
     1ea:	90 93 69 01 	sts	0x0169, r25
     1ee:	80 93 68 01 	sts	0x0168, r24
     1f2:	13 c0       	rjmp	.+38     	; 0x21a <updateTempDirections+0x56>
     1f4:	82 30       	cpi	r24, 0x02	; 2
     1f6:	49 f4       	brne	.+18     	; 0x20a <updateTempDirections+0x46>
     1f8:	80 91 27 0c 	lds	r24, 0x0C27
     1fc:	90 91 28 0c 	lds	r25, 0x0C28
     200:	90 93 69 01 	sts	0x0169, r25
     204:	80 93 68 01 	sts	0x0168, r24
     208:	08 c0       	rjmp	.+16     	; 0x21a <updateTempDirections+0x56>
     20a:	80 91 29 0c 	lds	r24, 0x0C29
     20e:	90 91 2a 0c 	lds	r25, 0x0C2A
     212:	90 93 69 01 	sts	0x0169, r25
     216:	80 93 68 01 	sts	0x0168, r24
     21a:	80 91 23 0c 	lds	r24, 0x0C23
     21e:	90 91 24 0c 	lds	r25, 0x0C24
     222:	89 3b       	cpi	r24, 0xB9	; 185
     224:	91 40       	sbci	r25, 0x01	; 1
     226:	3c f0       	brlt	.+14     	; 0x236 <updateTempDirections+0x72>
     228:	81 e0       	ldi	r24, 0x01	; 1
     22a:	90 e0       	ldi	r25, 0x00	; 0
     22c:	90 93 01 01 	sts	0x0101, r25
     230:	80 93 00 01 	sts	0x0100, r24
     234:	04 c0       	rjmp	.+8      	; 0x23e <updateTempDirections+0x7a>
     236:	10 92 01 01 	sts	0x0101, r1
     23a:	10 92 00 01 	sts	0x0100, r1
     23e:	80 91 25 0c 	lds	r24, 0x0C25
     242:	90 91 26 0c 	lds	r25, 0x0C26
     246:	89 3b       	cpi	r24, 0xB9	; 185
     248:	91 40       	sbci	r25, 0x01	; 1
     24a:	3c f0       	brlt	.+14     	; 0x25a <updateTempDirections+0x96>
     24c:	81 e0       	ldi	r24, 0x01	; 1
     24e:	90 e0       	ldi	r25, 0x00	; 0
     250:	90 93 79 01 	sts	0x0179, r25
     254:	80 93 78 01 	sts	0x0178, r24
     258:	04 c0       	rjmp	.+8      	; 0x262 <updateTempDirections+0x9e>
     25a:	10 92 79 01 	sts	0x0179, r1
     25e:	10 92 78 01 	sts	0x0178, r1
     262:	80 91 27 0c 	lds	r24, 0x0C27
     266:	90 91 28 0c 	lds	r25, 0x0C28
     26a:	89 3b       	cpi	r24, 0xB9	; 185
     26c:	91 40       	sbci	r25, 0x01	; 1
     26e:	3c f0       	brlt	.+14     	; 0x27e <updateTempDirections+0xba>
     270:	81 e0       	ldi	r24, 0x01	; 1
     272:	90 e0       	ldi	r25, 0x00	; 0
     274:	90 93 77 01 	sts	0x0177, r25
     278:	80 93 76 01 	sts	0x0176, r24
     27c:	04 c0       	rjmp	.+8      	; 0x286 <updateTempDirections+0xc2>
     27e:	10 92 77 01 	sts	0x0177, r1
     282:	10 92 76 01 	sts	0x0176, r1
     286:	80 91 29 0c 	lds	r24, 0x0C29
     28a:	90 91 2a 0c 	lds	r25, 0x0C2A
     28e:	89 3b       	cpi	r24, 0xB9	; 185
     290:	91 40       	sbci	r25, 0x01	; 1
     292:	3c f0       	brlt	.+14     	; 0x2a2 <updateTempDirections+0xde>
     294:	81 e0       	ldi	r24, 0x01	; 1
     296:	90 e0       	ldi	r25, 0x00	; 0
     298:	90 93 75 01 	sts	0x0175, r25
     29c:	80 93 74 01 	sts	0x0174, r24
     2a0:	08 95       	ret
     2a2:	10 92 75 01 	sts	0x0175, r1
     2a6:	10 92 74 01 	sts	0x0174, r1
     2aa:	08 95       	ret

000002ac <validLeak>:
     2ac:	80 91 21 0c 	lds	r24, 0x0C21
     2b0:	90 91 22 0c 	lds	r25, 0x0C22
     2b4:	01 97       	sbiw	r24, 0x01	; 1
     2b6:	79 f4       	brne	.+30     	; 0x2d6 <validLeak+0x2a>
     2b8:	80 91 72 01 	lds	r24, 0x0172
     2bc:	90 91 73 01 	lds	r25, 0x0173
     2c0:	82 30       	cpi	r24, 0x02	; 2
     2c2:	91 05       	cpc	r25, r1
     2c4:	79 f0       	breq	.+30     	; 0x2e4 <validLeak+0x38>
     2c6:	01 96       	adiw	r24, 0x01	; 1
     2c8:	90 93 73 01 	sts	0x0173, r25
     2cc:	80 93 72 01 	sts	0x0172, r24
     2d0:	80 e0       	ldi	r24, 0x00	; 0
     2d2:	90 e0       	ldi	r25, 0x00	; 0
     2d4:	08 95       	ret
     2d6:	10 92 73 01 	sts	0x0173, r1
     2da:	10 92 72 01 	sts	0x0172, r1
     2de:	80 e0       	ldi	r24, 0x00	; 0
     2e0:	90 e0       	ldi	r25, 0x00	; 0
     2e2:	08 95       	ret
     2e4:	81 e0       	ldi	r24, 0x01	; 1
     2e6:	90 e0       	ldi	r25, 0x00	; 0
     2e8:	08 95       	ret

000002ea <updateLeakInfo>:
     2ea:	e0 df       	rcall	.-64     	; 0x2ac <validLeak>
     2ec:	01 97       	sbiw	r24, 0x01	; 1
     2ee:	b9 f5       	brne	.+110    	; 0x35e <updateLeakInfo+0x74>
     2f0:	80 91 7a 01 	lds	r24, 0x017A
     2f4:	90 91 7b 01 	lds	r25, 0x017B
     2f8:	26 e1       	ldi	r18, 0x16	; 22
     2fa:	28 9f       	mul	r18, r24
     2fc:	f0 01       	movw	r30, r0
     2fe:	29 9f       	mul	r18, r25
     300:	f0 0d       	add	r31, r0
     302:	11 24       	eor	r1, r1
     304:	ef 54       	subi	r30, 0x4F	; 79
     306:	fe 4f       	sbci	r31, 0xFE	; 254
     308:	22 89       	ldd	r18, Z+18	; 0x12
     30a:	33 89       	ldd	r19, Z+19	; 0x13
     30c:	23 2b       	or	r18, r19
     30e:	39 f5       	brne	.+78     	; 0x35e <updateLeakInfo+0x74>
     310:	26 e1       	ldi	r18, 0x16	; 22
     312:	28 9f       	mul	r18, r24
     314:	f0 01       	movw	r30, r0
     316:	29 9f       	mul	r18, r25
     318:	f0 0d       	add	r31, r0
     31a:	11 24       	eor	r1, r1
     31c:	ef 54       	subi	r30, 0x4F	; 79
     31e:	fe 4f       	sbci	r31, 0xFE	; 254
     320:	20 81       	ld	r18, Z
     322:	31 81       	ldd	r19, Z+1	; 0x01
     324:	22 50       	subi	r18, 0x02	; 2
     326:	31 09       	sbc	r19, r1
     328:	22 30       	cpi	r18, 0x02	; 2
     32a:	31 05       	cpc	r19, r1
     32c:	c0 f0       	brcs	.+48     	; 0x35e <updateLeakInfo+0x74>
     32e:	20 91 6e 01 	lds	r18, 0x016E
     332:	30 91 6f 01 	lds	r19, 0x016F
     336:	2f 5f       	subi	r18, 0xFF	; 255
     338:	3f 4f       	sbci	r19, 0xFF	; 255
     33a:	30 93 6f 01 	sts	0x016F, r19
     33e:	20 93 6e 01 	sts	0x016E, r18
     342:	46 e1       	ldi	r20, 0x16	; 22
     344:	48 9f       	mul	r20, r24
     346:	f0 01       	movw	r30, r0
     348:	49 9f       	mul	r20, r25
     34a:	f0 0d       	add	r31, r0
     34c:	11 24       	eor	r1, r1
     34e:	ef 54       	subi	r30, 0x4F	; 79
     350:	fe 4f       	sbci	r31, 0xFE	; 254
     352:	81 e0       	ldi	r24, 0x01	; 1
     354:	90 e0       	ldi	r25, 0x00	; 0
     356:	93 8b       	std	Z+19, r25	; 0x13
     358:	82 8b       	std	Z+18, r24	; 0x12
     35a:	35 8b       	std	Z+21, r19	; 0x15
     35c:	24 8b       	std	Z+20, r18	; 0x14
     35e:	08 95       	ret

00000360 <canMakeNew>:
     360:	80 91 6c 01 	lds	r24, 0x016C
     364:	90 91 6d 01 	lds	r25, 0x016D
     368:	89 2b       	or	r24, r25
     36a:	09 f4       	brne	.+2      	; 0x36e <canMakeNew+0xe>
     36c:	6c c0       	rjmp	.+216    	; 0x446 <canMakeNew+0xe6>
     36e:	20 91 7a 01 	lds	r18, 0x017A
     372:	30 91 7b 01 	lds	r19, 0x017B
     376:	86 e1       	ldi	r24, 0x16	; 22
     378:	82 9f       	mul	r24, r18
     37a:	f0 01       	movw	r30, r0
     37c:	83 9f       	mul	r24, r19
     37e:	f0 0d       	add	r31, r0
     380:	11 24       	eor	r1, r1
     382:	ef 54       	subi	r30, 0x4F	; 79
     384:	fe 4f       	sbci	r31, 0xFE	; 254
     386:	80 81       	ld	r24, Z
     388:	91 81       	ldd	r25, Z+1	; 0x01
     38a:	82 30       	cpi	r24, 0x02	; 2
     38c:	91 05       	cpc	r25, r1
     38e:	f1 f4       	brne	.+60     	; 0x3cc <canMakeNew+0x6c>
     390:	20 91 00 01 	lds	r18, 0x0100
     394:	30 91 01 01 	lds	r19, 0x0101
     398:	80 91 78 01 	lds	r24, 0x0178
     39c:	90 91 79 01 	lds	r25, 0x0179
     3a0:	28 0f       	add	r18, r24
     3a2:	39 1f       	adc	r19, r25
     3a4:	80 91 76 01 	lds	r24, 0x0176
     3a8:	90 91 77 01 	lds	r25, 0x0177
     3ac:	28 0f       	add	r18, r24
     3ae:	39 1f       	adc	r19, r25
     3b0:	80 91 74 01 	lds	r24, 0x0174
     3b4:	90 91 75 01 	lds	r25, 0x0175
     3b8:	28 0f       	add	r18, r24
     3ba:	39 1f       	adc	r19, r25
     3bc:	81 e0       	ldi	r24, 0x01	; 1
     3be:	90 e0       	ldi	r25, 0x00	; 0
     3c0:	23 30       	cpi	r18, 0x03	; 3
     3c2:	31 05       	cpc	r19, r1
     3c4:	09 f4       	brne	.+2      	; 0x3c8 <canMakeNew+0x68>
     3c6:	4d c0       	rjmp	.+154    	; 0x462 <canMakeNew+0x102>
     3c8:	80 e0       	ldi	r24, 0x00	; 0
     3ca:	08 95       	ret
     3cc:	03 97       	sbiw	r24, 0x03	; 3
     3ce:	f1 f5       	brne	.+124    	; 0x44c <canMakeNew+0xec>
     3d0:	86 e1       	ldi	r24, 0x16	; 22
     3d2:	82 9f       	mul	r24, r18
     3d4:	f0 01       	movw	r30, r0
     3d6:	83 9f       	mul	r24, r19
     3d8:	f0 0d       	add	r31, r0
     3da:	11 24       	eor	r1, r1
     3dc:	ef 54       	subi	r30, 0x4F	; 79
     3de:	fe 4f       	sbci	r31, 0xFE	; 254
     3e0:	84 81       	ldd	r24, Z+4	; 0x04
     3e2:	95 81       	ldd	r25, Z+5	; 0x05
     3e4:	02 97       	sbiw	r24, 0x02	; 2
     3e6:	a9 f5       	brne	.+106    	; 0x452 <canMakeNew+0xf2>
     3e8:	40 91 00 01 	lds	r20, 0x0100
     3ec:	50 91 01 01 	lds	r21, 0x0101
     3f0:	80 91 78 01 	lds	r24, 0x0178
     3f4:	90 91 79 01 	lds	r25, 0x0179
     3f8:	84 0f       	add	r24, r20
     3fa:	95 1f       	adc	r25, r21
     3fc:	40 91 76 01 	lds	r20, 0x0176
     400:	50 91 77 01 	lds	r21, 0x0177
     404:	84 0f       	add	r24, r20
     406:	95 1f       	adc	r25, r21
     408:	40 91 74 01 	lds	r20, 0x0174
     40c:	50 91 75 01 	lds	r21, 0x0175
     410:	84 0f       	add	r24, r20
     412:	95 1f       	adc	r25, r21
     414:	03 97       	sbiw	r24, 0x03	; 3
     416:	01 f1       	breq	.+64     	; 0x458 <canMakeNew+0xf8>
     418:	86 e1       	ldi	r24, 0x16	; 22
     41a:	82 9f       	mul	r24, r18
     41c:	f0 01       	movw	r30, r0
     41e:	83 9f       	mul	r24, r19
     420:	f0 0d       	add	r31, r0
     422:	11 24       	eor	r1, r1
     424:	ef 54       	subi	r30, 0x4F	; 79
     426:	fe 4f       	sbci	r31, 0xFE	; 254
     428:	82 81       	ldd	r24, Z+2	; 0x02
     42a:	93 81       	ldd	r25, Z+3	; 0x03
     42c:	01 97       	sbiw	r24, 0x01	; 1
     42e:	b9 f4       	brne	.+46     	; 0x45e <canMakeNew+0xfe>
     430:	81 e0       	ldi	r24, 0x01	; 1
     432:	90 e0       	ldi	r25, 0x00	; 0
     434:	20 91 99 01 	lds	r18, 0x0199
     438:	30 91 9a 01 	lds	r19, 0x019A
     43c:	25 30       	cpi	r18, 0x05	; 5
     43e:	31 05       	cpc	r19, r1
     440:	81 f0       	breq	.+32     	; 0x462 <canMakeNew+0x102>
     442:	80 e0       	ldi	r24, 0x00	; 0
     444:	08 95       	ret
     446:	81 e0       	ldi	r24, 0x01	; 1
     448:	90 e0       	ldi	r25, 0x00	; 0
     44a:	08 95       	ret
     44c:	81 e0       	ldi	r24, 0x01	; 1
     44e:	90 e0       	ldi	r25, 0x00	; 0
     450:	08 95       	ret
     452:	81 e0       	ldi	r24, 0x01	; 1
     454:	90 e0       	ldi	r25, 0x00	; 0
     456:	08 95       	ret
     458:	81 e0       	ldi	r24, 0x01	; 1
     45a:	90 e0       	ldi	r25, 0x00	; 0
     45c:	08 95       	ret
     45e:	80 e0       	ldi	r24, 0x00	; 0
     460:	90 e0       	ldi	r25, 0x00	; 0
     462:	08 95       	ret

00000464 <isChangeDetected>:
     464:	20 91 a3 01 	lds	r18, 0x01A3
     468:	30 91 a4 01 	lds	r19, 0x01A4
     46c:	80 91 00 01 	lds	r24, 0x0100
     470:	90 91 01 01 	lds	r25, 0x0101
     474:	28 17       	cp	r18, r24
     476:	39 07       	cpc	r19, r25
     478:	41 f5       	brne	.+80     	; 0x4ca <isChangeDetected+0x66>
     47a:	20 91 a5 01 	lds	r18, 0x01A5
     47e:	30 91 a6 01 	lds	r19, 0x01A6
     482:	80 91 78 01 	lds	r24, 0x0178
     486:	90 91 79 01 	lds	r25, 0x0179
     48a:	28 17       	cp	r18, r24
     48c:	39 07       	cpc	r19, r25
     48e:	e9 f4       	brne	.+58     	; 0x4ca <isChangeDetected+0x66>
     490:	20 91 a7 01 	lds	r18, 0x01A7
     494:	30 91 a8 01 	lds	r19, 0x01A8
     498:	80 91 76 01 	lds	r24, 0x0176
     49c:	90 91 77 01 	lds	r25, 0x0177
     4a0:	28 17       	cp	r18, r24
     4a2:	39 07       	cpc	r19, r25
     4a4:	91 f4       	brne	.+36     	; 0x4ca <isChangeDetected+0x66>
     4a6:	20 91 a9 01 	lds	r18, 0x01A9
     4aa:	30 91 aa 01 	lds	r19, 0x01AA
     4ae:	80 91 74 01 	lds	r24, 0x0174
     4b2:	90 91 75 01 	lds	r25, 0x0175
     4b6:	28 17       	cp	r18, r24
     4b8:	39 07       	cpc	r19, r25
     4ba:	39 f4       	brne	.+14     	; 0x4ca <isChangeDetected+0x66>
     4bc:	10 92 71 01 	sts	0x0171, r1
     4c0:	10 92 70 01 	sts	0x0170, r1
     4c4:	80 e0       	ldi	r24, 0x00	; 0
     4c6:	90 e0       	ldi	r25, 0x00	; 0
     4c8:	08 95       	ret
     4ca:	80 91 70 01 	lds	r24, 0x0170
     4ce:	90 91 71 01 	lds	r25, 0x0171
     4d2:	81 30       	cpi	r24, 0x01	; 1
     4d4:	91 05       	cpc	r25, r1
     4d6:	41 f0       	breq	.+16     	; 0x4e8 <isChangeDetected+0x84>
     4d8:	01 96       	adiw	r24, 0x01	; 1
     4da:	90 93 71 01 	sts	0x0171, r25
     4de:	80 93 70 01 	sts	0x0170, r24
     4e2:	80 e0       	ldi	r24, 0x00	; 0
     4e4:	90 e0       	ldi	r25, 0x00	; 0
     4e6:	08 95       	ret
     4e8:	81 e0       	ldi	r24, 0x01	; 1
     4ea:	90 e0       	ldi	r25, 0x00	; 0
     4ec:	08 95       	ret

000004ee <checkIfNewNode>:
     4ee:	80 91 7a 01 	lds	r24, 0x017A
     4f2:	90 91 7b 01 	lds	r25, 0x017B
     4f6:	26 e1       	ldi	r18, 0x16	; 22
     4f8:	28 9f       	mul	r18, r24
     4fa:	f0 01       	movw	r30, r0
     4fc:	29 9f       	mul	r18, r25
     4fe:	f0 0d       	add	r31, r0
     500:	11 24       	eor	r1, r1
     502:	ef 54       	subi	r30, 0x4F	; 79
     504:	fe 4f       	sbci	r31, 0xFE	; 254
     506:	80 81       	ld	r24, Z
     508:	91 81       	ldd	r25, Z+1	; 0x01
     50a:	8d 7f       	andi	r24, 0xFD	; 253
     50c:	01 97       	sbiw	r24, 0x01	; 1
     50e:	49 f5       	brne	.+82     	; 0x562 <checkIfNewNode+0x74>
     510:	20 91 98 01 	lds	r18, 0x0198
     514:	21 11       	cpse	r18, r1
     516:	08 c0       	rjmp	.+16     	; 0x528 <checkIfNewNode+0x3a>
     518:	80 91 27 0c 	lds	r24, 0x0C27
     51c:	90 91 28 0c 	lds	r25, 0x0C28
     520:	88 30       	cpi	r24, 0x08	; 8
     522:	92 40       	sbci	r25, 0x02	; 2
     524:	ac f4       	brge	.+42     	; 0x550 <checkIfNewNode+0x62>
     526:	38 c0       	rjmp	.+112    	; 0x598 <checkIfNewNode+0xaa>
     528:	21 30       	cpi	r18, 0x01	; 1
     52a:	41 f4       	brne	.+16     	; 0x53c <checkIfNewNode+0x4e>
     52c:	80 91 29 0c 	lds	r24, 0x0C29
     530:	90 91 2a 0c 	lds	r25, 0x0C2A
     534:	88 30       	cpi	r24, 0x08	; 8
     536:	92 40       	sbci	r25, 0x02	; 2
     538:	a4 f4       	brge	.+40     	; 0x562 <checkIfNewNode+0x74>
     53a:	31 c0       	rjmp	.+98     	; 0x59e <checkIfNewNode+0xb0>
     53c:	22 30       	cpi	r18, 0x02	; 2
     53e:	41 f4       	brne	.+16     	; 0x550 <checkIfNewNode+0x62>
     540:	80 91 23 0c 	lds	r24, 0x0C23
     544:	90 91 24 0c 	lds	r25, 0x0C24
     548:	88 30       	cpi	r24, 0x08	; 8
     54a:	92 40       	sbci	r25, 0x02	; 2
     54c:	54 f4       	brge	.+20     	; 0x562 <checkIfNewNode+0x74>
     54e:	2a c0       	rjmp	.+84     	; 0x5a4 <checkIfNewNode+0xb6>
     550:	23 30       	cpi	r18, 0x03	; 3
     552:	39 f4       	brne	.+14     	; 0x562 <checkIfNewNode+0x74>
     554:	80 91 25 0c 	lds	r24, 0x0C25
     558:	90 91 26 0c 	lds	r25, 0x0C26
     55c:	88 30       	cpi	r24, 0x08	; 8
     55e:	92 40       	sbci	r25, 0x02	; 2
     560:	24 f1       	brlt	.+72     	; 0x5aa <checkIfNewNode+0xbc>
     562:	80 df       	rcall	.-256    	; 0x464 <isChangeDetected>
     564:	81 30       	cpi	r24, 0x01	; 1
     566:	91 05       	cpc	r25, r1
     568:	39 f4       	brne	.+14     	; 0x578 <checkIfNewNode+0x8a>
     56a:	20 91 68 01 	lds	r18, 0x0168
     56e:	30 91 69 01 	lds	r19, 0x0169
     572:	29 3b       	cpi	r18, 0xB9	; 185
     574:	31 40       	sbci	r19, 0x01	; 1
     576:	f4 f4       	brge	.+60     	; 0x5b4 <checkIfNewNode+0xc6>
     578:	75 df       	rcall	.-278    	; 0x464 <isChangeDetected>
     57a:	01 97       	sbiw	r24, 0x01	; 1
     57c:	c9 f4       	brne	.+50     	; 0x5b0 <checkIfNewNode+0xc2>
     57e:	31 e0       	ldi	r19, 0x01	; 1
     580:	20 e0       	ldi	r18, 0x00	; 0
     582:	80 91 68 01 	lds	r24, 0x0168
     586:	90 91 69 01 	lds	r25, 0x0169
     58a:	8c 32       	cpi	r24, 0x2C	; 44
     58c:	91 40       	sbci	r25, 0x01	; 1
     58e:	0c f0       	brlt	.+2      	; 0x592 <checkIfNewNode+0xa4>
     590:	30 e0       	ldi	r19, 0x00	; 0
     592:	83 2f       	mov	r24, r19
     594:	92 2f       	mov	r25, r18
     596:	08 95       	ret
     598:	80 e0       	ldi	r24, 0x00	; 0
     59a:	90 e0       	ldi	r25, 0x00	; 0
     59c:	08 95       	ret
     59e:	80 e0       	ldi	r24, 0x00	; 0
     5a0:	90 e0       	ldi	r25, 0x00	; 0
     5a2:	08 95       	ret
     5a4:	80 e0       	ldi	r24, 0x00	; 0
     5a6:	90 e0       	ldi	r25, 0x00	; 0
     5a8:	08 95       	ret
     5aa:	80 e0       	ldi	r24, 0x00	; 0
     5ac:	90 e0       	ldi	r25, 0x00	; 0
     5ae:	08 95       	ret
     5b0:	80 e0       	ldi	r24, 0x00	; 0
     5b2:	90 e0       	ldi	r25, 0x00	; 0
     5b4:	08 95       	ret

000005b6 <whatNodeType>:
     5b6:	40 91 00 01 	lds	r20, 0x0100
     5ba:	50 91 01 01 	lds	r21, 0x0101
     5be:	20 91 76 01 	lds	r18, 0x0176
     5c2:	30 91 77 01 	lds	r19, 0x0177
     5c6:	80 91 78 01 	lds	r24, 0x0178
     5ca:	90 91 79 01 	lds	r25, 0x0179
     5ce:	84 0f       	add	r24, r20
     5d0:	95 1f       	adc	r25, r21
     5d2:	82 0f       	add	r24, r18
     5d4:	93 1f       	adc	r25, r19
     5d6:	60 91 74 01 	lds	r22, 0x0174
     5da:	70 91 75 01 	lds	r23, 0x0175
     5de:	86 0f       	add	r24, r22
     5e0:	97 1f       	adc	r25, r23
     5e2:	83 30       	cpi	r24, 0x03	; 3
     5e4:	91 05       	cpc	r25, r1
     5e6:	09 f4       	brne	.+2      	; 0x5ea <whatNodeType+0x34>
     5e8:	43 c0       	rjmp	.+134    	; 0x670 <whatNodeType+0xba>
     5ea:	82 30       	cpi	r24, 0x02	; 2
     5ec:	91 05       	cpc	r25, r1
     5ee:	49 f4       	brne	.+18     	; 0x602 <whatNodeType+0x4c>
     5f0:	71 e0       	ldi	r23, 0x01	; 1
     5f2:	60 e0       	ldi	r22, 0x00	; 0
     5f4:	42 17       	cp	r20, r18
     5f6:	53 07       	cpc	r21, r19
     5f8:	09 f4       	brne	.+2      	; 0x5fc <whatNodeType+0x46>
     5fa:	70 e0       	ldi	r23, 0x00	; 0
     5fc:	87 2f       	mov	r24, r23
     5fe:	96 2f       	mov	r25, r22
     600:	08 95       	ret
     602:	01 97       	sbiw	r24, 0x01	; 1
     604:	69 f5       	brne	.+90     	; 0x660 <whatNodeType+0xaa>
     606:	40 91 7a 01 	lds	r20, 0x017A
     60a:	50 91 7b 01 	lds	r21, 0x017B
     60e:	14 16       	cp	r1, r20
     610:	15 06       	cpc	r1, r21
     612:	bc f4       	brge	.+46     	; 0x642 <whatNodeType+0x8c>
     614:	86 e1       	ldi	r24, 0x16	; 22
     616:	84 9f       	mul	r24, r20
     618:	f0 01       	movw	r30, r0
     61a:	85 9f       	mul	r24, r21
     61c:	f0 0d       	add	r31, r0
     61e:	11 24       	eor	r1, r1
     620:	ed 54       	subi	r30, 0x4D	; 77
     622:	fe 4f       	sbci	r31, 0xFE	; 254
     624:	ca 01       	movw	r24, r20
     626:	20 81       	ld	r18, Z
     628:	31 81       	ldd	r19, Z+1	; 0x01
     62a:	21 30       	cpi	r18, 0x01	; 1
     62c:	31 05       	cpc	r19, r1
     62e:	29 f4       	brne	.+10     	; 0x63a <whatNodeType+0x84>
     630:	22 81       	ldd	r18, Z+2	; 0x02
     632:	33 81       	ldd	r19, Z+3	; 0x03
     634:	22 30       	cpi	r18, 0x02	; 2
     636:	31 05       	cpc	r19, r1
     638:	b1 f0       	breq	.+44     	; 0x666 <whatNodeType+0xb0>
     63a:	01 97       	sbiw	r24, 0x01	; 1
     63c:	76 97       	sbiw	r30, 0x16	; 22
     63e:	00 97       	sbiw	r24, 0x00	; 0
     640:	91 f7       	brne	.-28     	; 0x626 <whatNodeType+0x70>
     642:	86 e1       	ldi	r24, 0x16	; 22
     644:	84 9f       	mul	r24, r20
     646:	f0 01       	movw	r30, r0
     648:	85 9f       	mul	r24, r21
     64a:	f0 0d       	add	r31, r0
     64c:	11 24       	eor	r1, r1
     64e:	ef 54       	subi	r30, 0x4F	; 79
     650:	fe 4f       	sbci	r31, 0xFE	; 254
     652:	80 81       	ld	r24, Z
     654:	91 81       	ldd	r25, Z+1	; 0x01
     656:	02 97       	sbiw	r24, 0x02	; 2
     658:	49 f4       	brne	.+18     	; 0x66c <whatNodeType+0xb6>
     65a:	85 e0       	ldi	r24, 0x05	; 5
     65c:	90 e0       	ldi	r25, 0x00	; 0
     65e:	08 95       	ret
     660:	84 e0       	ldi	r24, 0x04	; 4
     662:	90 e0       	ldi	r25, 0x00	; 0
     664:	08 95       	ret
     666:	85 e0       	ldi	r24, 0x05	; 5
     668:	90 e0       	ldi	r25, 0x00	; 0
     66a:	08 95       	ret
     66c:	82 e0       	ldi	r24, 0x02	; 2
     66e:	90 e0       	ldi	r25, 0x00	; 0
     670:	08 95       	ret

00000672 <TcrossingID>:
     672:	bf 92       	push	r11
     674:	cf 92       	push	r12
     676:	df 92       	push	r13
     678:	ef 92       	push	r14
     67a:	ff 92       	push	r15
     67c:	0f 93       	push	r16
     67e:	1f 93       	push	r17
     680:	cf 93       	push	r28
     682:	df 93       	push	r29
     684:	03 97       	sbiw	r24, 0x03	; 3
     686:	09 f0       	breq	.+2      	; 0x68a <TcrossingID+0x18>
     688:	87 c0       	rjmp	.+270    	; 0x798 <TcrossingID+0x126>
     68a:	a0 91 6c 01 	lds	r26, 0x016C
     68e:	b0 91 6d 01 	lds	r27, 0x016D
     692:	10 97       	sbiw	r26, 0x00	; 0
     694:	61 f4       	brne	.+24     	; 0x6ae <TcrossingID+0x3c>
     696:	81 e0       	ldi	r24, 0x01	; 1
     698:	90 e0       	ldi	r25, 0x00	; 0
     69a:	90 93 6d 01 	sts	0x016D, r25
     69e:	80 93 6c 01 	sts	0x016C, r24
     6a2:	90 93 6b 01 	sts	0x016B, r25
     6a6:	80 93 6a 01 	sts	0x016A, r24
     6aa:	90 e0       	ldi	r25, 0x00	; 0
     6ac:	7a c0       	rjmp	.+244    	; 0x7a2 <TcrossingID+0x130>
     6ae:	80 91 7a 01 	lds	r24, 0x017A
     6b2:	90 91 7b 01 	lds	r25, 0x017B
     6b6:	26 e1       	ldi	r18, 0x16	; 22
     6b8:	28 9f       	mul	r18, r24
     6ba:	f0 01       	movw	r30, r0
     6bc:	29 9f       	mul	r18, r25
     6be:	f0 0d       	add	r31, r0
     6c0:	11 24       	eor	r1, r1
     6c2:	ef 54       	subi	r30, 0x4F	; 79
     6c4:	fe 4f       	sbci	r31, 0xFE	; 254
     6c6:	80 81       	ld	r24, Z
     6c8:	91 81       	ldd	r25, Z+1	; 0x01
     6ca:	82 30       	cpi	r24, 0x02	; 2
     6cc:	91 05       	cpc	r25, r1
     6ce:	09 f4       	brne	.+2      	; 0x6d2 <TcrossingID+0x60>
     6d0:	66 c0       	rjmp	.+204    	; 0x79e <TcrossingID+0x12c>
     6d2:	03 97       	sbiw	r24, 0x03	; 3
     6d4:	09 f0       	breq	.+2      	; 0x6d8 <TcrossingID+0x66>
     6d6:	4e c0       	rjmp	.+156    	; 0x774 <TcrossingID+0x102>
     6d8:	1a 16       	cp	r1, r26
     6da:	1b 06       	cpc	r1, r27
     6dc:	0c f0       	brlt	.+2      	; 0x6e0 <TcrossingID+0x6e>
     6de:	5b c0       	rjmp	.+182    	; 0x796 <TcrossingID+0x124>
     6e0:	c0 91 03 0c 	lds	r28, 0x0C03
     6e4:	d0 91 04 0c 	lds	r29, 0x0C04
     6e8:	bd 01       	movw	r22, r26
     6ea:	61 50       	subi	r22, 0x01	; 1
     6ec:	71 09       	sbc	r23, r1
     6ee:	0d ee       	ldi	r16, 0xED	; 237
     6f0:	1b e0       	ldi	r17, 0x0B	; 11
     6f2:	0f 2e       	mov	r0, r31
     6f4:	f7 e7       	ldi	r31, 0x77	; 119
     6f6:	ef 2e       	mov	r14, r31
     6f8:	f0 2d       	mov	r31, r0
     6fa:	f1 2c       	mov	r15, r1
     6fc:	0f 2e       	mov	r0, r31
     6fe:	f6 e1       	ldi	r31, 0x16	; 22
     700:	df 2e       	mov	r13, r31
     702:	f0 2d       	mov	r31, r0
     704:	0f 2e       	mov	r0, r31
     706:	f8 e7       	ldi	r31, 0x78	; 120
     708:	bf 2e       	mov	r11, r31
     70a:	f0 2d       	mov	r31, r0
     70c:	c1 2c       	mov	r12, r1
     70e:	2a c0       	rjmp	.+84     	; 0x764 <TcrossingID+0xf2>
     710:	20 81       	ld	r18, Z
     712:	31 81       	ldd	r19, Z+1	; 0x01
     714:	24 17       	cp	r18, r20
     716:	35 07       	cpc	r19, r21
     718:	c1 f4       	brne	.+48     	; 0x74a <TcrossingID+0xd8>
     71a:	02 c0       	rjmp	.+4      	; 0x720 <TcrossingID+0xae>
     71c:	8b 2d       	mov	r24, r11
     71e:	9c 2d       	mov	r25, r12
     720:	d8 9e       	mul	r13, r24
     722:	f0 01       	movw	r30, r0
     724:	d9 9e       	mul	r13, r25
     726:	f0 0d       	add	r31, r0
     728:	11 24       	eor	r1, r1
     72a:	ef 54       	subi	r30, 0x4F	; 79
     72c:	fe 4f       	sbci	r31, 0xFE	; 254
     72e:	84 81       	ldd	r24, Z+4	; 0x04
     730:	95 81       	ldd	r25, Z+5	; 0x05
     732:	02 97       	sbiw	r24, 0x02	; 2
     734:	11 f4       	brne	.+4      	; 0x73a <TcrossingID+0xc8>
     736:	11 97       	sbiw	r26, 0x01	; 1
     738:	0d c0       	rjmp	.+26     	; 0x754 <TcrossingID+0xe2>
     73a:	11 97       	sbiw	r26, 0x01	; 1
     73c:	b0 93 6d 01 	sts	0x016D, r27
     740:	a0 93 6c 01 	sts	0x016C, r26
     744:	8a 2f       	mov	r24, r26
     746:	9b 2f       	mov	r25, r27
     748:	2c c0       	rjmp	.+88     	; 0x7a2 <TcrossingID+0x130>
     74a:	01 97       	sbiw	r24, 0x01	; 1
     74c:	76 97       	sbiw	r30, 0x16	; 22
     74e:	81 30       	cpi	r24, 0x01	; 1
     750:	91 05       	cpc	r25, r1
     752:	f1 f6       	brne	.-68     	; 0x710 <TcrossingID+0x9e>
     754:	61 50       	subi	r22, 0x01	; 1
     756:	71 09       	sbc	r23, r1
     758:	28 f4       	brcc	.+10     	; 0x764 <TcrossingID+0xf2>
     75a:	b0 93 6d 01 	sts	0x016D, r27
     75e:	a0 93 6c 01 	sts	0x016C, r26
     762:	19 c0       	rjmp	.+50     	; 0x796 <TcrossingID+0x124>
     764:	ab 01       	movw	r20, r22
     766:	c6 17       	cp	r28, r22
     768:	d7 07       	cpc	r29, r23
     76a:	c1 f2       	breq	.-80     	; 0x71c <TcrossingID+0xaa>
     76c:	f8 01       	movw	r30, r16
     76e:	8e 2d       	mov	r24, r14
     770:	9f 2d       	mov	r25, r15
     772:	ce cf       	rjmp	.-100    	; 0x710 <TcrossingID+0x9e>
     774:	20 91 6a 01 	lds	r18, 0x016A
     778:	30 91 6b 01 	lds	r19, 0x016B
     77c:	2f 5f       	subi	r18, 0xFF	; 255
     77e:	3f 4f       	sbci	r19, 0xFF	; 255
     780:	30 93 6b 01 	sts	0x016B, r19
     784:	20 93 6a 01 	sts	0x016A, r18
     788:	30 93 6d 01 	sts	0x016D, r19
     78c:	20 93 6c 01 	sts	0x016C, r18
     790:	82 2f       	mov	r24, r18
     792:	93 2f       	mov	r25, r19
     794:	06 c0       	rjmp	.+12     	; 0x7a2 <TcrossingID+0x130>
     796:	05 c0       	rjmp	.+10     	; 0x7a2 <TcrossingID+0x130>
     798:	80 e0       	ldi	r24, 0x00	; 0
     79a:	90 e0       	ldi	r25, 0x00	; 0
     79c:	02 c0       	rjmp	.+4      	; 0x7a2 <TcrossingID+0x130>
     79e:	8a 2f       	mov	r24, r26
     7a0:	9b 2f       	mov	r25, r27
     7a2:	df 91       	pop	r29
     7a4:	cf 91       	pop	r28
     7a6:	1f 91       	pop	r17
     7a8:	0f 91       	pop	r16
     7aa:	ff 90       	pop	r15
     7ac:	ef 90       	pop	r14
     7ae:	df 90       	pop	r13
     7b0:	cf 90       	pop	r12
     7b2:	bf 90       	pop	r11
     7b4:	08 95       	ret

000007b6 <calcPathsExplored>:
     7b6:	03 97       	sbiw	r24, 0x03	; 3
     7b8:	f1 f4       	brne	.+60     	; 0x7f6 <calcPathsExplored+0x40>
     7ba:	80 91 7a 01 	lds	r24, 0x017A
     7be:	90 91 7b 01 	lds	r25, 0x017B
     7c2:	18 16       	cp	r1, r24
     7c4:	19 06       	cpc	r1, r25
     7c6:	d4 f4       	brge	.+52     	; 0x7fc <calcPathsExplored+0x46>
     7c8:	e3 eb       	ldi	r30, 0xB3	; 179
     7ca:	f1 e0       	ldi	r31, 0x01	; 1
     7cc:	26 e1       	ldi	r18, 0x16	; 22
     7ce:	28 9f       	mul	r18, r24
     7d0:	a0 01       	movw	r20, r0
     7d2:	29 9f       	mul	r18, r25
     7d4:	50 0d       	add	r21, r0
     7d6:	11 24       	eor	r1, r1
     7d8:	4d 54       	subi	r20, 0x4D	; 77
     7da:	5e 4f       	sbci	r21, 0xFE	; 254
     7dc:	80 e0       	ldi	r24, 0x00	; 0
     7de:	90 e0       	ldi	r25, 0x00	; 0
     7e0:	20 81       	ld	r18, Z
     7e2:	31 81       	ldd	r19, Z+1	; 0x01
     7e4:	62 17       	cp	r22, r18
     7e6:	73 07       	cpc	r23, r19
     7e8:	09 f4       	brne	.+2      	; 0x7ec <calcPathsExplored+0x36>
     7ea:	01 96       	adiw	r24, 0x01	; 1
     7ec:	76 96       	adiw	r30, 0x16	; 22
     7ee:	e4 17       	cp	r30, r20
     7f0:	f5 07       	cpc	r31, r21
     7f2:	b1 f7       	brne	.-20     	; 0x7e0 <calcPathsExplored+0x2a>
     7f4:	08 95       	ret
     7f6:	80 e0       	ldi	r24, 0x00	; 0
     7f8:	90 e0       	ldi	r25, 0x00	; 0
     7fa:	08 95       	ret
     7fc:	80 e0       	ldi	r24, 0x00	; 0
     7fe:	90 e0       	ldi	r25, 0x00	; 0
     800:	08 95       	ret

00000802 <updateCurrentNode>:

// MapMode
void updateCurrentNode()          // Uppdaterar tempnoden, eg. skapar en ny nod
{
     802:	cf 93       	push	r28
     804:	df 93       	push	r29
    currentNode_g.whatNode = whatNodeType();
     806:	d7 de       	rcall	.-594    	; 0x5b6 <whatNodeType>
     808:	c9 e9       	ldi	r28, 0x99	; 153
     80a:	d1 e0       	ldi	r29, 0x01	; 1
     80c:	99 83       	std	Y+1, r25	; 0x01
     80e:	88 83       	st	Y, r24
    currentNode_g.nodeID = TcrossingID(currentNode_g.whatNode);                                     // Är alltid 0 om det inte är en T_CROSSING
     810:	30 df       	rcall	.-416    	; 0x672 <TcrossingID>
     812:	90 93 9c 01 	sts	0x019C, r25
     816:	80 93 9b 01 	sts	0x019B, r24
    currentNode_g.pathsExplored = calcPathsExplored(currentNode_g.whatNode, currentNode_g.nodeID);     // Är alltid 0 om det inte är en T_CROSSING
     81a:	bc 01       	movw	r22, r24
     81c:	88 81       	ld	r24, Y
     81e:	99 81       	ldd	r25, Y+1	; 0x01
     820:	ca df       	rcall	.-108    	; 0x7b6 <calcPathsExplored>
     822:	90 93 9e 01 	sts	0x019E, r25
     826:	80 93 9d 01 	sts	0x019D, r24
}

// Får finnas i bägge, behövs i MapMode
int whatWayIn()
{
    return currentDirection_g;
     82a:	80 91 98 01 	lds	r24, 0x0198
     82e:	90 e0       	ldi	r25, 0x00	; 0
     830:	90 93 a0 01 	sts	0x01A0, r25
     834:	80 93 9f 01 	sts	0x019F, r24
{
    currentNode_g.whatNode = whatNodeType();
    currentNode_g.nodeID = TcrossingID(currentNode_g.whatNode);                                     // Är alltid 0 om det inte är en T_CROSSING
    currentNode_g.pathsExplored = calcPathsExplored(currentNode_g.whatNode, currentNode_g.nodeID);     // Är alltid 0 om det inte är en T_CROSSING
    currentNode_g.wayIn = whatWayIn();
    currentNode_g.nextDirection =  noDirection;            // Sätts till noDirection och ändras i styrbeslut
     838:	84 e0       	ldi	r24, 0x04	; 4
     83a:	90 e0       	ldi	r25, 0x00	; 0
     83c:	90 93 a2 01 	sts	0x01A2, r25
     840:	80 93 a1 01 	sts	0x01A1, r24
    currentNode_g.northAvailible = tempNorthAvailible_g;
     844:	80 91 00 01 	lds	r24, 0x0100
     848:	90 91 01 01 	lds	r25, 0x0101
     84c:	90 93 a4 01 	sts	0x01A4, r25
     850:	80 93 a3 01 	sts	0x01A3, r24
    currentNode_g.eastAvailible = tempEastAvailible_g;
     854:	80 91 78 01 	lds	r24, 0x0178
     858:	90 91 79 01 	lds	r25, 0x0179
     85c:	90 93 a6 01 	sts	0x01A6, r25
     860:	80 93 a5 01 	sts	0x01A5, r24
    currentNode_g.southAvailible = tempSouthAvailible_g;
     864:	80 91 76 01 	lds	r24, 0x0176
     868:	90 91 77 01 	lds	r25, 0x0177
     86c:	90 93 a8 01 	sts	0x01A8, r25
     870:	80 93 a7 01 	sts	0x01A7, r24
    currentNode_g.westAvailible = tempWestAvailible_g;
     874:	80 91 74 01 	lds	r24, 0x0174
     878:	90 91 75 01 	lds	r25, 0x0175
     87c:	90 93 aa 01 	sts	0x01AA, r25
     880:	80 93 a9 01 	sts	0x01A9, r24
    currentNode_g.containsLeak = FALSE;                    // En ny nod kan inte initieras med en läcka
     884:	10 92 ac 01 	sts	0x01AC, r1
     888:	10 92 ab 01 	sts	0x01AB, r1
    currentNode_g.leakID = 0;
     88c:	10 92 ae 01 	sts	0x01AE, r1
     890:	10 92 ad 01 	sts	0x01AD, r1
}
     894:	df 91       	pop	r29
     896:	cf 91       	pop	r28
     898:	08 95       	ret

0000089a <placeNodeInArray>:

void placeNodeInArray()
{
    nodeArray[lastAddedNodeIndex_g].whatNode        = currentNode_g.whatNode;
     89a:	80 91 7a 01 	lds	r24, 0x017A
     89e:	90 91 7b 01 	lds	r25, 0x017B
     8a2:	26 e1       	ldi	r18, 0x16	; 22
     8a4:	28 9f       	mul	r18, r24
     8a6:	f0 01       	movw	r30, r0
     8a8:	29 9f       	mul	r18, r25
     8aa:	f0 0d       	add	r31, r0
     8ac:	11 24       	eor	r1, r1
     8ae:	ef 54       	subi	r30, 0x4F	; 79
     8b0:	fe 4f       	sbci	r31, 0xFE	; 254
     8b2:	80 91 99 01 	lds	r24, 0x0199
     8b6:	90 91 9a 01 	lds	r25, 0x019A
     8ba:	91 83       	std	Z+1, r25	; 0x01
     8bc:	80 83       	st	Z, r24
    nodeArray[lastAddedNodeIndex_g].nodeID          = currentNode_g.nodeID;
     8be:	80 91 9b 01 	lds	r24, 0x019B
     8c2:	90 91 9c 01 	lds	r25, 0x019C
     8c6:	93 83       	std	Z+3, r25	; 0x03
     8c8:	82 83       	std	Z+2, r24	; 0x02
    nodeArray[lastAddedNodeIndex_g].pathsExplored   = currentNode_g.pathsExplored;
     8ca:	80 91 9d 01 	lds	r24, 0x019D
     8ce:	90 91 9e 01 	lds	r25, 0x019E
     8d2:	95 83       	std	Z+5, r25	; 0x05
     8d4:	84 83       	std	Z+4, r24	; 0x04
    nodeArray[lastAddedNodeIndex_g].wayIn           = currentNode_g.wayIn;
     8d6:	80 91 9f 01 	lds	r24, 0x019F
     8da:	90 91 a0 01 	lds	r25, 0x01A0
     8de:	97 83       	std	Z+7, r25	; 0x07
     8e0:	86 83       	std	Z+6, r24	; 0x06
    nodeArray[lastAddedNodeIndex_g].nextDirection   = currentNode_g.nextDirection;
     8e2:	80 91 a1 01 	lds	r24, 0x01A1
     8e6:	90 91 a2 01 	lds	r25, 0x01A2
     8ea:	91 87       	std	Z+9, r25	; 0x09
     8ec:	80 87       	std	Z+8, r24	; 0x08
    nodeArray[lastAddedNodeIndex_g].northAvailible  = currentNode_g.northAvailible;
     8ee:	80 91 a3 01 	lds	r24, 0x01A3
     8f2:	90 91 a4 01 	lds	r25, 0x01A4
     8f6:	93 87       	std	Z+11, r25	; 0x0b
     8f8:	82 87       	std	Z+10, r24	; 0x0a
    nodeArray[lastAddedNodeIndex_g].eastAvailible   = currentNode_g.eastAvailible;
     8fa:	80 91 a5 01 	lds	r24, 0x01A5
     8fe:	90 91 a6 01 	lds	r25, 0x01A6
     902:	95 87       	std	Z+13, r25	; 0x0d
     904:	84 87       	std	Z+12, r24	; 0x0c
    nodeArray[lastAddedNodeIndex_g].southAvailible  = currentNode_g.southAvailible;
     906:	80 91 a7 01 	lds	r24, 0x01A7
     90a:	90 91 a8 01 	lds	r25, 0x01A8
     90e:	97 87       	std	Z+15, r25	; 0x0f
     910:	86 87       	std	Z+14, r24	; 0x0e
    nodeArray[lastAddedNodeIndex_g].westAvailible   = currentNode_g.westAvailible;
     912:	80 91 a9 01 	lds	r24, 0x01A9
     916:	90 91 aa 01 	lds	r25, 0x01AA
     91a:	91 8b       	std	Z+17, r25	; 0x11
     91c:	80 8b       	std	Z+16, r24	; 0x10
    nodeArray[lastAddedNodeIndex_g].containsLeak    = currentNode_g.containsLeak;
     91e:	80 91 ab 01 	lds	r24, 0x01AB
     922:	90 91 ac 01 	lds	r25, 0x01AC
     926:	93 8b       	std	Z+19, r25	; 0x13
     928:	82 8b       	std	Z+18, r24	; 0x12
    nodeArray[lastAddedNodeIndex_g].leakID          = currentNode_g.leakID;
     92a:	80 91 ad 01 	lds	r24, 0x01AD
     92e:	90 91 ae 01 	lds	r25, 0x01AE
     932:	95 8b       	std	Z+21, r25	; 0x15
     934:	84 8b       	std	Z+20, r24	; 0x14
     936:	08 95       	ret

00000938 <makeLeakPath>:
}

void makeLeakPath(char wantedLeak_g)
{
     938:	cf 92       	push	r12
     93a:	df 92       	push	r13
     93c:	ef 92       	push	r14
     93e:	ff 92       	push	r15
     940:	0f 93       	push	r16
     942:	1f 93       	push	r17
     944:	cf 93       	push	r28
     946:	df 93       	push	r29
     948:	40 91 66 01 	lds	r20, 0x0166
     94c:	50 91 67 01 	lds	r21, 0x0167
     950:	e1 eb       	ldi	r30, 0xB1	; 177
     952:	f1 e0       	ldi	r31, 0x01	; 1
     954:	67 e1       	ldi	r22, 0x17	; 23
     956:	7c e0       	ldi	r23, 0x0C	; 12
    int index = 0;
     958:	c0 e0       	ldi	r28, 0x00	; 0
     95a:	d0 e0       	ldi	r29, 0x00	; 0

            leaksToPass_g = 0;
        }
        else if (nodeArray[i].containsLeak == TRUE)
        {
            if (nodeArray[i].leakID == wantedLeak_g)
     95c:	90 e0       	ldi	r25, 0x00	; 0
                    pathToLeak[index] = noDirection;
                    index --;
                }
            }

            leaksToPass_g = 0;
     95e:	c1 2c       	mov	r12, r1
     960:	d1 2c       	mov	r13, r1
            {
                if (nodeArray[i].nodeID == 1)
                    pathToLeak[0] = noDirection;
                else
                {
                    pathToLeak[index] = noDirection;
     962:	04 e0       	ldi	r16, 0x04	; 4
     964:	10 e0       	ldi	r17, 0x00	; 0
                pathToLeak[index - 1] = nodeArray[i].nextDirection;
            }
            else if (nodeArray[i].pathsExplored == 2)
            {
                if (nodeArray[i].nodeID == 1)
                    pathToLeak[0] = noDirection;
     966:	0f 2e       	mov	r0, r31
     968:	f2 e0       	ldi	r31, 0x02	; 2
     96a:	ef 2e       	mov	r14, r31
     96c:	f1 e0       	ldi	r31, 0x01	; 1
     96e:	ff 2e       	mov	r15, r31
     970:	f0 2d       	mov	r31, r0
{
    int index = 0;
    int i = 0;
    for (i; i < 121; i++)
    {
        if (nodeArray[i].whatNode == T_CROSSING)
     972:	20 81       	ld	r18, Z
     974:	31 81       	ldd	r19, Z+1	; 0x01
     976:	23 30       	cpi	r18, 0x03	; 3
     978:	31 05       	cpc	r19, r1
     97a:	b1 f5       	brne	.+108    	; 0x9e8 <makeLeakPath+0xb0>
        {
            if (nodeArray[i].pathsExplored == 0)
     97c:	24 81       	ldd	r18, Z+4	; 0x04
     97e:	35 81       	ldd	r19, Z+5	; 0x05
     980:	21 15       	cp	r18, r1
     982:	31 05       	cpc	r19, r1
     984:	61 f4       	brne	.+24     	; 0x99e <makeLeakPath+0x66>
            {
                pathToLeak[index] = nodeArray[i].nextDirection;
     986:	9e 01       	movw	r18, r28
     988:	22 0f       	add	r18, r18
     98a:	33 1f       	adc	r19, r19
     98c:	2e 5f       	subi	r18, 0xFE	; 254
     98e:	3e 4f       	sbci	r19, 0xFE	; 254
     990:	40 85       	ldd	r20, Z+8	; 0x08
     992:	51 85       	ldd	r21, Z+9	; 0x09
     994:	d9 01       	movw	r26, r18
     996:	4d 93       	st	X+, r20
     998:	5c 93       	st	X, r21
                index ++;
     99a:	21 96       	adiw	r28, 0x01	; 1
     99c:	22 c0       	rjmp	.+68     	; 0x9e2 <makeLeakPath+0xaa>
            }
            else if (nodeArray[i].pathsExplored == 1)
     99e:	21 30       	cpi	r18, 0x01	; 1
     9a0:	31 05       	cpc	r19, r1
     9a2:	59 f4       	brne	.+22     	; 0x9ba <makeLeakPath+0x82>
            {
                pathToLeak[index - 1] = nodeArray[i].nextDirection;
     9a4:	9e 01       	movw	r18, r28
     9a6:	22 0f       	add	r18, r18
     9a8:	33 1f       	adc	r19, r19
     9aa:	20 50       	subi	r18, 0x00	; 0
     9ac:	3f 4f       	sbci	r19, 0xFF	; 255
     9ae:	40 85       	ldd	r20, Z+8	; 0x08
     9b0:	51 85       	ldd	r21, Z+9	; 0x09
     9b2:	d9 01       	movw	r26, r18
     9b4:	4d 93       	st	X+, r20
     9b6:	5c 93       	st	X, r21
     9b8:	14 c0       	rjmp	.+40     	; 0x9e2 <makeLeakPath+0xaa>
            }
            else if (nodeArray[i].pathsExplored == 2)
     9ba:	22 30       	cpi	r18, 0x02	; 2
     9bc:	31 05       	cpc	r19, r1
     9be:	89 f4       	brne	.+34     	; 0x9e2 <makeLeakPath+0xaa>
            {
                if (nodeArray[i].nodeID == 1)
     9c0:	22 81       	ldd	r18, Z+2	; 0x02
     9c2:	33 81       	ldd	r19, Z+3	; 0x03
     9c4:	21 30       	cpi	r18, 0x01	; 1
     9c6:	31 05       	cpc	r19, r1
     9c8:	21 f4       	brne	.+8      	; 0x9d2 <makeLeakPath+0x9a>
                    pathToLeak[0] = noDirection;
     9ca:	d7 01       	movw	r26, r14
     9cc:	0d 93       	st	X+, r16
     9ce:	1c 93       	st	X, r17
     9d0:	08 c0       	rjmp	.+16     	; 0x9e2 <makeLeakPath+0xaa>
                else
                {
                    pathToLeak[index] = noDirection;
     9d2:	de 01       	movw	r26, r28
     9d4:	aa 0f       	add	r26, r26
     9d6:	bb 1f       	adc	r27, r27
     9d8:	ae 5f       	subi	r26, 0xFE	; 254
     9da:	be 4f       	sbci	r27, 0xFE	; 254
     9dc:	0d 93       	st	X+, r16
     9de:	1c 93       	st	X, r17
                    index --;
     9e0:	21 97       	sbiw	r28, 0x01	; 1
                }
            }

            leaksToPass_g = 0;
     9e2:	4c 2d       	mov	r20, r12
     9e4:	5d 2d       	mov	r21, r13
     9e6:	11 c0       	rjmp	.+34     	; 0xa0a <makeLeakPath+0xd2>
        }
        else if (nodeArray[i].containsLeak == TRUE)
     9e8:	22 89       	ldd	r18, Z+18	; 0x12
     9ea:	33 89       	ldd	r19, Z+19	; 0x13
     9ec:	21 30       	cpi	r18, 0x01	; 1
     9ee:	31 05       	cpc	r19, r1
     9f0:	61 f4       	brne	.+24     	; 0xa0a <makeLeakPath+0xd2>
        {
            if (nodeArray[i].leakID == wantedLeak_g)
     9f2:	24 89       	ldd	r18, Z+20	; 0x14
     9f4:	35 89       	ldd	r19, Z+21	; 0x15
     9f6:	28 17       	cp	r18, r24
     9f8:	39 07       	cpc	r19, r25
     9fa:	29 f4       	brne	.+10     	; 0xa06 <makeLeakPath+0xce>
     9fc:	50 93 67 01 	sts	0x0167, r21
     a00:	40 93 66 01 	sts	0x0166, r20
     a04:	0b c0       	rjmp	.+22     	; 0xa1c <makeLeakPath+0xe4>
                break;
            else
                leaksToPass_g ++;
     a06:	4f 5f       	subi	r20, 0xFF	; 255
     a08:	5f 4f       	sbci	r21, 0xFF	; 255
     a0a:	76 96       	adiw	r30, 0x16	; 22

void makeLeakPath(char wantedLeak_g)
{
    int index = 0;
    int i = 0;
    for (i; i < 121; i++)
     a0c:	e6 17       	cp	r30, r22
     a0e:	f7 07       	cpc	r31, r23
     a10:	09 f0       	breq	.+2      	; 0xa14 <makeLeakPath+0xdc>
     a12:	af cf       	rjmp	.-162    	; 0x972 <makeLeakPath+0x3a>
     a14:	50 93 67 01 	sts	0x0167, r21
     a18:	40 93 66 01 	sts	0x0166, r20
                break;
            else
                leaksToPass_g ++;
        }
    }
}
     a1c:	df 91       	pop	r29
     a1e:	cf 91       	pop	r28
     a20:	1f 91       	pop	r17
     a22:	0f 91       	pop	r16
     a24:	ff 90       	pop	r15
     a26:	ef 90       	pop	r14
     a28:	df 90       	pop	r13
     a2a:	cf 90       	pop	r12
     a2c:	08 95       	ret

00000a2e <northToNext>:

int northToNext()
{
    if (currentNode_g.eastAvailible == TRUE)
     a2e:	80 91 a5 01 	lds	r24, 0x01A5
     a32:	90 91 a6 01 	lds	r25, 0x01A6
     a36:	81 30       	cpi	r24, 0x01	; 1
     a38:	91 05       	cpc	r25, r1
     a3a:	a1 f0       	breq	.+40     	; 0xa64 <northToNext+0x36>
    {
        return east;
    }
    else if (currentNode_g.northAvailible == TRUE)
     a3c:	80 91 a3 01 	lds	r24, 0x01A3
     a40:	90 91 a4 01 	lds	r25, 0x01A4
     a44:	01 97       	sbiw	r24, 0x01	; 1
     a46:	49 f0       	breq	.+18     	; 0xa5a <northToNext+0x2c>
    {
        return north;
    }
    else if (currentNode_g.westAvailible == TRUE)
     a48:	80 91 a9 01 	lds	r24, 0x01A9
     a4c:	90 91 aa 01 	lds	r25, 0x01AA
     a50:	01 97       	sbiw	r24, 0x01	; 1
     a52:	31 f4       	brne	.+12     	; 0xa60 <northToNext+0x32>
    {
        return west;
     a54:	83 e0       	ldi	r24, 0x03	; 3
     a56:	90 e0       	ldi	r25, 0x00	; 0
     a58:	08 95       	ret
    {
        return east;
    }
    else if (currentNode_g.northAvailible == TRUE)
    {
        return north;
     a5a:	80 e0       	ldi	r24, 0x00	; 0
     a5c:	90 e0       	ldi	r25, 0x00	; 0
     a5e:	08 95       	ret
    {
        return west;
    }
    else
    {
        return south;       // I detta fall är det en DEAD_END
     a60:	82 e0       	ldi	r24, 0x02	; 2
     a62:	90 e0       	ldi	r25, 0x00	; 0
    }
}
     a64:	08 95       	ret

00000a66 <eastToNext>:


int eastToNext()
{
    if (currentNode_g.southAvailible == TRUE)
     a66:	80 91 a7 01 	lds	r24, 0x01A7
     a6a:	90 91 a8 01 	lds	r25, 0x01A8
     a6e:	01 97       	sbiw	r24, 0x01	; 1
     a70:	81 f0       	breq	.+32     	; 0xa92 <eastToNext+0x2c>
    {
        return south;
    }
    else if (currentNode_g.eastAvailible == TRUE)
     a72:	80 91 a5 01 	lds	r24, 0x01A5
     a76:	90 91 a6 01 	lds	r25, 0x01A6
     a7a:	81 30       	cpi	r24, 0x01	; 1
     a7c:	91 05       	cpc	r25, r1
     a7e:	71 f0       	breq	.+28     	; 0xa9c <eastToNext+0x36>
    {
        return east;
    }
    else if (currentNode_g.northAvailible == TRUE)
     a80:	80 91 a3 01 	lds	r24, 0x01A3
     a84:	90 91 a4 01 	lds	r25, 0x01A4
     a88:	01 97       	sbiw	r24, 0x01	; 1
     a8a:	31 f4       	brne	.+12     	; 0xa98 <eastToNext+0x32>
    {
        return north;
     a8c:	80 e0       	ldi	r24, 0x00	; 0
     a8e:	90 e0       	ldi	r25, 0x00	; 0
     a90:	08 95       	ret

int eastToNext()
{
    if (currentNode_g.southAvailible == TRUE)
    {
        return south;
     a92:	82 e0       	ldi	r24, 0x02	; 2
     a94:	90 e0       	ldi	r25, 0x00	; 0
     a96:	08 95       	ret
    {
        return north;
    }
    else
    {
        return west;
     a98:	83 e0       	ldi	r24, 0x03	; 3
     a9a:	90 e0       	ldi	r25, 0x00	; 0
    }
}
     a9c:	08 95       	ret

00000a9e <southToNext>:

int southToNext()
{
    if (currentNode_g.westAvailible == TRUE)
     a9e:	80 91 a9 01 	lds	r24, 0x01A9
     aa2:	90 91 aa 01 	lds	r25, 0x01AA
     aa6:	01 97       	sbiw	r24, 0x01	; 1
     aa8:	89 f0       	breq	.+34     	; 0xacc <southToNext+0x2e>
    {
        return west;
    }
    else if (currentNode_g.southAvailible == TRUE)
     aaa:	80 91 a7 01 	lds	r24, 0x01A7
     aae:	90 91 a8 01 	lds	r25, 0x01A8
     ab2:	01 97       	sbiw	r24, 0x01	; 1
     ab4:	71 f0       	breq	.+28     	; 0xad2 <southToNext+0x34>
    {
        return south;
    }
    else if (currentNode_g.eastAvailible == TRUE)
     ab6:	81 e0       	ldi	r24, 0x01	; 1
     ab8:	90 e0       	ldi	r25, 0x00	; 0
     aba:	20 91 a5 01 	lds	r18, 0x01A5
     abe:	30 91 a6 01 	lds	r19, 0x01A6
     ac2:	21 30       	cpi	r18, 0x01	; 1
     ac4:	31 05       	cpc	r19, r1
     ac6:	39 f0       	breq	.+14     	; 0xad6 <southToNext+0x38>
     ac8:	80 e0       	ldi	r24, 0x00	; 0
     aca:	08 95       	ret

int southToNext()
{
    if (currentNode_g.westAvailible == TRUE)
    {
        return west;
     acc:	83 e0       	ldi	r24, 0x03	; 3
     ace:	90 e0       	ldi	r25, 0x00	; 0
     ad0:	08 95       	ret
    }
    else if (currentNode_g.southAvailible == TRUE)
    {
        return south;
     ad2:	82 e0       	ldi	r24, 0x02	; 2
     ad4:	90 e0       	ldi	r25, 0x00	; 0
    }
    else
    {
        return north;
    }
}
     ad6:	08 95       	ret

00000ad8 <westToNext>:

int westToNext()
{
    if (currentNode_g.northAvailible == TRUE)
     ad8:	80 91 a3 01 	lds	r24, 0x01A3
     adc:	90 91 a4 01 	lds	r25, 0x01A4
     ae0:	01 97       	sbiw	r24, 0x01	; 1
     ae2:	79 f0       	breq	.+30     	; 0xb02 <westToNext+0x2a>
    {
        return north;
    }
    else if (currentNode_g.westAvailible == TRUE)
     ae4:	80 91 a9 01 	lds	r24, 0x01A9
     ae8:	90 91 aa 01 	lds	r25, 0x01AA
     aec:	01 97       	sbiw	r24, 0x01	; 1
     aee:	61 f0       	breq	.+24     	; 0xb08 <westToNext+0x30>
    {
        return west;
    }
    else if (currentNode_g.southAvailible == TRUE)
     af0:	80 91 a7 01 	lds	r24, 0x01A7
     af4:	90 91 a8 01 	lds	r25, 0x01A8
     af8:	01 97       	sbiw	r24, 0x01	; 1
     afa:	49 f4       	brne	.+18     	; 0xb0e <westToNext+0x36>
    {
        return south;
     afc:	82 e0       	ldi	r24, 0x02	; 2
     afe:	90 e0       	ldi	r25, 0x00	; 0
     b00:	08 95       	ret

int westToNext()
{
    if (currentNode_g.northAvailible == TRUE)
    {
        return north;
     b02:	80 e0       	ldi	r24, 0x00	; 0
     b04:	90 e0       	ldi	r25, 0x00	; 0
     b06:	08 95       	ret
    }
    else if (currentNode_g.westAvailible == TRUE)
    {
        return west;
     b08:	83 e0       	ldi	r24, 0x03	; 3
     b0a:	90 e0       	ldi	r25, 0x00	; 0
     b0c:	08 95       	ret
    {
        return south;
    }
    else
    {
        return east;
     b0e:	81 e0       	ldi	r24, 0x01	; 1
     b10:	90 e0       	ldi	r25, 0x00	; 0
    }
}
     b12:	08 95       	ret

00000b14 <decideDirection>:

int decideDirection()      // Autonoma läget
{
    enum direction tempDirection = currentDirection_g;
    if (currentNode_g.whatNode == CORRIDOR)
     b14:	80 91 99 01 	lds	r24, 0x0199
     b18:	90 91 9a 01 	lds	r25, 0x019A
     b1c:	89 2b       	or	r24, r25
     b1e:	21 f4       	brne	.+8      	; 0xb28 <decideDirection+0x14>
    {
        return currentDirection_g;
     b20:	20 91 98 01 	lds	r18, 0x0198
     b24:	30 e0       	ldi	r19, 0x00	; 0
     b26:	1b c0       	rjmp	.+54     	; 0xb5e <decideDirection+0x4a>
    }
    else
    {
        if (currentDirection_g == north)
     b28:	80 91 98 01 	lds	r24, 0x0198
     b2c:	81 11       	cpse	r24, r1
     b2e:	04 c0       	rjmp	.+8      	; 0xb38 <decideDirection+0x24>
        {
            tempDirection = northToNext();
     b30:	7e df       	rcall	.-260    	; 0xa2e <northToNext>
            return tempDirection;
     b32:	9c 01       	movw	r18, r24
     b34:	33 27       	eor	r19, r19
     b36:	13 c0       	rjmp	.+38     	; 0xb5e <decideDirection+0x4a>
        }
        else if (currentDirection_g == east)
     b38:	81 30       	cpi	r24, 0x01	; 1
     b3a:	21 f4       	brne	.+8      	; 0xb44 <decideDirection+0x30>
        {
            tempDirection = eastToNext();
     b3c:	94 df       	rcall	.-216    	; 0xa66 <eastToNext>
            return tempDirection;
     b3e:	9c 01       	movw	r18, r24
     b40:	33 27       	eor	r19, r19
     b42:	0d c0       	rjmp	.+26     	; 0xb5e <decideDirection+0x4a>
        }
        else if (currentDirection_g == south)
     b44:	82 30       	cpi	r24, 0x02	; 2
     b46:	21 f4       	brne	.+8      	; 0xb50 <decideDirection+0x3c>
        {
            tempDirection = southToNext();
     b48:	aa df       	rcall	.-172    	; 0xa9e <southToNext>
            return tempDirection;
     b4a:	9c 01       	movw	r18, r24
     b4c:	33 27       	eor	r19, r19
     b4e:	07 c0       	rjmp	.+14     	; 0xb5e <decideDirection+0x4a>
        }
        else if (currentDirection_g == west)
     b50:	83 30       	cpi	r24, 0x03	; 3
     b52:	21 f4       	brne	.+8      	; 0xb5c <decideDirection+0x48>
        {
            tempDirection = westToNext();
     b54:	c1 df       	rcall	.-126    	; 0xad8 <westToNext>
            return tempDirection;
     b56:	9c 01       	movw	r18, r24
     b58:	33 27       	eor	r19, r19
     b5a:	01 c0       	rjmp	.+2      	; 0xb5e <decideDirection+0x4a>
     b5c:	08 95       	ret
     b5e:	82 2f       	mov	r24, r18
     b60:	93 2f       	mov	r25, r19
        }
    }
}
     b62:	08 95       	ret

00000b64 <initNodeAndSteering>:

void initNodeAndSteering()
{
    // Börjar i en återvändsgränd med norr som frammåt
    nodeArray[0].whatNode = MAZE_START;
     b64:	86 e0       	ldi	r24, 0x06	; 6
     b66:	90 e0       	ldi	r25, 0x00	; 0
     b68:	90 93 b2 01 	sts	0x01B2, r25
     b6c:	80 93 b1 01 	sts	0x01B1, r24
    nodeArray[0].nodeID = 0;                // Nodens ID initieras som 0, ändras om det är en T_CROSSING
     b70:	10 92 b4 01 	sts	0x01B4, r1
     b74:	10 92 b3 01 	sts	0x01B3, r1
    nodeArray[0].pathsExplored = 0;
     b78:	10 92 b6 01 	sts	0x01B6, r1
     b7c:	10 92 b5 01 	sts	0x01B5, r1
    nodeArray[0].wayIn = north;
     b80:	10 92 b8 01 	sts	0x01B8, r1
     b84:	10 92 b7 01 	sts	0x01B7, r1
    nodeArray[0].nextDirection = north;
     b88:	10 92 ba 01 	sts	0x01BA, r1
     b8c:	10 92 b9 01 	sts	0x01B9, r1
    nodeArray[0].northAvailible = TRUE;     // Börjar i återvändsgränd med tillgänglig rikt. norr
     b90:	81 e0       	ldi	r24, 0x01	; 1
     b92:	90 e0       	ldi	r25, 0x00	; 0
     b94:	90 93 bc 01 	sts	0x01BC, r25
     b98:	80 93 bb 01 	sts	0x01BB, r24
    nodeArray[0].eastAvailible = FALSE;
     b9c:	10 92 be 01 	sts	0x01BE, r1
     ba0:	10 92 bd 01 	sts	0x01BD, r1
    nodeArray[0].southAvailible = FALSE;
     ba4:	10 92 c0 01 	sts	0x01C0, r1
     ba8:	10 92 bf 01 	sts	0x01BF, r1
    nodeArray[0].westAvailible = FALSE;
     bac:	10 92 c2 01 	sts	0x01C2, r1
     bb0:	10 92 c1 01 	sts	0x01C1, r1
    nodeArray[0].containsLeak = FALSE;
     bb4:	10 92 c4 01 	sts	0x01C4, r1
     bb8:	10 92 c3 01 	sts	0x01C3, r1
    nodeArray[0].leakID = 0;
     bbc:	10 92 c6 01 	sts	0x01C6, r1
     bc0:	10 92 c5 01 	sts	0x01C5, r1
     bc4:	08 95       	ret

00000bc6 <nodesAndControl>:
}

int nodesAndControl()
{
	int newNodeAdded = FALSE;
    switch(currentControlMode_g)
     bc6:	80 91 97 01 	lds	r24, 0x0197
     bca:	82 30       	cpi	r24, 0x02	; 2
     bcc:	09 f4       	brne	.+2      	; 0xbd0 <nodesAndControl+0xa>
     bce:	ae c0       	rjmp	.+348    	; 0xd2c <nodesAndControl+0x166>
     bd0:	83 30       	cpi	r24, 0x03	; 3
     bd2:	09 f4       	brne	.+2      	; 0xbd6 <nodesAndControl+0x10>
     bd4:	4e c0       	rjmp	.+156    	; 0xc72 <nodesAndControl+0xac>
     bd6:	81 30       	cpi	r24, 0x01	; 1
     bd8:	09 f0       	breq	.+2      	; 0xbdc <nodesAndControl+0x16>
     bda:	0d c1       	rjmp	.+538    	; 0xdf6 <nodesAndControl+0x230>
    {
        case exploration  :

            updateTempDirections();
     bdc:	f3 da       	rcall	.-2586   	; 0x1c4 <updateTempDirections>
            updateLeakInfo();           // Kollar ifall läcka finns, och lägger till i noden om det fanns
     bde:	85 db       	rcall	.-2294   	; 0x2ea <updateLeakInfo>

            if (checkIfNewNode() == TRUE)
     be0:	86 dc       	rcall	.-1780   	; 0x4ee <checkIfNewNode>
     be2:	01 97       	sbiw	r24, 0x01	; 1
     be4:	59 f5       	brne	.+86     	; 0xc3c <nodesAndControl+0x76>
            {
                updateCurrentNode();
     be6:	0d de       	rcall	.-998    	; 0x802 <updateCurrentNode>
                directionHasChanged = TRUE;
     be8:	81 e0       	ldi	r24, 0x01	; 1
     bea:	90 e0       	ldi	r25, 0x00	; 0
     bec:	90 93 2c 0c 	sts	0x0C2C, r25
     bf0:	80 93 2b 0c 	sts	0x0C2B, r24
                nextDirection_g = decideDirection();
     bf4:	8f df       	rcall	.-226    	; 0xb14 <decideDirection>
     bf6:	80 93 2d 0c 	sts	0x0C2D, r24
                
                if (canMakeNew() == TRUE)
     bfa:	b2 db       	rcall	.-2204   	; 0x360 <canMakeNew>
     bfc:	01 97       	sbiw	r24, 0x01	; 1
     bfe:	09 f5       	brne	.+66     	; 0xc42 <nodesAndControl+0x7c>
                {
                    lastAddedNodeIndex_g ++;
     c00:	80 91 7a 01 	lds	r24, 0x017A
     c04:	90 91 7b 01 	lds	r25, 0x017B
     c08:	01 96       	adiw	r24, 0x01	; 1
     c0a:	90 93 7b 01 	sts	0x017B, r25
     c0e:	80 93 7a 01 	sts	0x017A, r24
                    placeNodeInArray();
     c12:	43 de       	rcall	.-890    	; 0x89a <placeNodeInArray>
                    nodeArray[lastAddedNodeIndex_g].nextDirection = nextDirection_g;     // lägger in styrbeslut i arrayen
     c14:	80 91 7a 01 	lds	r24, 0x017A
     c18:	90 91 7b 01 	lds	r25, 0x017B
     c1c:	26 e1       	ldi	r18, 0x16	; 22
     c1e:	28 9f       	mul	r18, r24
     c20:	f0 01       	movw	r30, r0
     c22:	29 9f       	mul	r18, r25
     c24:	f0 0d       	add	r31, r0
     c26:	11 24       	eor	r1, r1
     c28:	ef 54       	subi	r30, 0x4F	; 79
     c2a:	fe 4f       	sbci	r31, 0xFE	; 254
     c2c:	80 91 2d 0c 	lds	r24, 0x0C2D
     c30:	90 e0       	ldi	r25, 0x00	; 0
     c32:	91 87       	std	Z+9, r25	; 0x09
     c34:	80 87       	std	Z+8, r24	; 0x08
					newNodeAdded = TRUE;
     c36:	81 e0       	ldi	r24, 0x01	; 1
     c38:	90 e0       	ldi	r25, 0x00	; 0
     c3a:	05 c0       	rjmp	.+10     	; 0xc46 <nodesAndControl+0x80>
    nodeArray[0].leakID = 0;
}

int nodesAndControl()
{
	int newNodeAdded = FALSE;
     c3c:	80 e0       	ldi	r24, 0x00	; 0
     c3e:	90 e0       	ldi	r25, 0x00	; 0
     c40:	02 c0       	rjmp	.+4      	; 0xc46 <nodesAndControl+0x80>
     c42:	80 e0       	ldi	r24, 0x00	; 0
     c44:	90 e0       	ldi	r25, 0x00	; 0
                    nodeArray[lastAddedNodeIndex_g].nextDirection = nextDirection_g;     // lägger in styrbeslut i arrayen
					newNodeAdded = TRUE;
                }
            }

            if (nodeArray[lastAddedNodeIndex_g].whatNode == END_OF_MAZE)
     c46:	20 91 7a 01 	lds	r18, 0x017A
     c4a:	30 91 7b 01 	lds	r19, 0x017B
     c4e:	46 e1       	ldi	r20, 0x16	; 22
     c50:	42 9f       	mul	r20, r18
     c52:	f0 01       	movw	r30, r0
     c54:	43 9f       	mul	r20, r19
     c56:	f0 0d       	add	r31, r0
     c58:	11 24       	eor	r1, r1
     c5a:	ef 54       	subi	r30, 0x4F	; 79
     c5c:	fe 4f       	sbci	r31, 0xFE	; 254
     c5e:	20 81       	ld	r18, Z
     c60:	31 81       	ldd	r19, Z+1	; 0x01
     c62:	25 30       	cpi	r18, 0x05	; 5
     c64:	31 05       	cpc	r19, r1
     c66:	09 f0       	breq	.+2      	; 0xc6a <nodesAndControl+0xa4>
     c68:	d7 c0       	rjmp	.+430    	; 0xe18 <nodesAndControl+0x252>
            {
                currentControlMode_g = waitForInput;
     c6a:	23 e0       	ldi	r18, 0x03	; 3
     c6c:	20 93 97 01 	sts	0x0197, r18
     c70:	08 95       	ret
            }
            break;

        case waitForInput  :

            switch(currentOptionInstruction_g)
     c72:	80 91 af 01 	lds	r24, 0x01AF
     c76:	90 91 b0 01 	lds	r25, 0x01B0
     c7a:	82 3e       	cpi	r24, 0xE2	; 226
     c7c:	91 05       	cpc	r25, r1
     c7e:	29 f1       	breq	.+74     	; 0xcca <nodesAndControl+0x104>
     c80:	3c f4       	brge	.+14     	; 0xc90 <nodesAndControl+0xca>
     c82:	80 3e       	cpi	r24, 0xE0	; 224
     c84:	91 05       	cpc	r25, r1
     c86:	59 f0       	breq	.+22     	; 0xc9e <nodesAndControl+0xd8>
     c88:	81 3e       	cpi	r24, 0xE1	; 225
     c8a:	91 05       	cpc	r25, r1
     c8c:	99 f0       	breq	.+38     	; 0xcb4 <nodesAndControl+0xee>
     c8e:	3d c0       	rjmp	.+122    	; 0xd0a <nodesAndControl+0x144>
     c90:	83 3e       	cpi	r24, 0xE3	; 227
     c92:	91 05       	cpc	r25, r1
     c94:	29 f1       	breq	.+74     	; 0xce0 <nodesAndControl+0x11a>
     c96:	84 3e       	cpi	r24, 0xE4	; 228
     c98:	91 05       	cpc	r25, r1
     c9a:	69 f1       	breq	.+90     	; 0xcf6 <nodesAndControl+0x130>
     c9c:	36 c0       	rjmp	.+108    	; 0xd0a <nodesAndControl+0x144>
            {
                case 0b11100000  :
                    wantedLeak = 1;
     c9e:	81 e0       	ldi	r24, 0x01	; 1
     ca0:	90 e0       	ldi	r25, 0x00	; 0
     ca2:	90 93 63 01 	sts	0x0163, r25
     ca6:	80 93 62 01 	sts	0x0162, r24
                    makeLeakPath(wantedLeak);
     caa:	46 de       	rcall	.-884    	; 0x938 <makeLeakPath>
                    currentControlMode_g = returnToLeak;
     cac:	82 e0       	ldi	r24, 0x02	; 2
     cae:	80 93 97 01 	sts	0x0197, r24
                    break;
     cb2:	2b c0       	rjmp	.+86     	; 0xd0a <nodesAndControl+0x144>
                case 0b11100001  :
                    wantedLeak = 2;
     cb4:	82 e0       	ldi	r24, 0x02	; 2
     cb6:	90 e0       	ldi	r25, 0x00	; 0
     cb8:	90 93 63 01 	sts	0x0163, r25
     cbc:	80 93 62 01 	sts	0x0162, r24
                    makeLeakPath(wantedLeak);
     cc0:	3b de       	rcall	.-906    	; 0x938 <makeLeakPath>
                    currentControlMode_g = returnToLeak;
     cc2:	82 e0       	ldi	r24, 0x02	; 2
     cc4:	80 93 97 01 	sts	0x0197, r24
                    break;
     cc8:	20 c0       	rjmp	.+64     	; 0xd0a <nodesAndControl+0x144>
                case 0b11100010  :
                    wantedLeak = 3;
     cca:	83 e0       	ldi	r24, 0x03	; 3
     ccc:	90 e0       	ldi	r25, 0x00	; 0
     cce:	90 93 63 01 	sts	0x0163, r25
     cd2:	80 93 62 01 	sts	0x0162, r24
                    makeLeakPath(wantedLeak);
     cd6:	30 de       	rcall	.-928    	; 0x938 <makeLeakPath>
                    currentControlMode_g = returnToLeak;
     cd8:	82 e0       	ldi	r24, 0x02	; 2
     cda:	80 93 97 01 	sts	0x0197, r24
                    break;
     cde:	15 c0       	rjmp	.+42     	; 0xd0a <nodesAndControl+0x144>
                case 0b11100011  :
                    wantedLeak = 4;
     ce0:	84 e0       	ldi	r24, 0x04	; 4
     ce2:	90 e0       	ldi	r25, 0x00	; 0
     ce4:	90 93 63 01 	sts	0x0163, r25
     ce8:	80 93 62 01 	sts	0x0162, r24
                    makeLeakPath(wantedLeak);
     cec:	25 de       	rcall	.-950    	; 0x938 <makeLeakPath>
                    currentControlMode_g = returnToLeak;
     cee:	82 e0       	ldi	r24, 0x02	; 2
     cf0:	80 93 97 01 	sts	0x0197, r24
                    break;
     cf4:	0a c0       	rjmp	.+20     	; 0xd0a <nodesAndControl+0x144>
                case 0b11100100  :
                    wantedLeak = 5;
     cf6:	85 e0       	ldi	r24, 0x05	; 5
     cf8:	90 e0       	ldi	r25, 0x00	; 0
     cfa:	90 93 63 01 	sts	0x0163, r25
     cfe:	80 93 62 01 	sts	0x0162, r24
                    makeLeakPath(wantedLeak);
     d02:	1a de       	rcall	.-972    	; 0x938 <makeLeakPath>
                    currentControlMode_g = returnToLeak;
     d04:	82 e0       	ldi	r24, 0x02	; 2
     d06:	80 93 97 01 	sts	0x0197, r24
                    break;
                default  :
                    break;
            }
            
            if (currentDirection_g != noDirection)
     d0a:	80 91 98 01 	lds	r24, 0x0198
     d0e:	84 30       	cpi	r24, 0x04	; 4
     d10:	09 f4       	brne	.+2      	; 0xd14 <nodesAndControl+0x14e>
     d12:	74 c0       	rjmp	.+232    	; 0xdfc <nodesAndControl+0x236>
            {
                directionHasChanged = TRUE;
     d14:	81 e0       	ldi	r24, 0x01	; 1
     d16:	90 e0       	ldi	r25, 0x00	; 0
     d18:	90 93 2c 0c 	sts	0x0C2C, r25
     d1c:	80 93 2b 0c 	sts	0x0C2B, r24
                nextDirection_g = noDirection;
     d20:	84 e0       	ldi	r24, 0x04	; 4
     d22:	80 93 2d 0c 	sts	0x0C2D, r24
    nodeArray[0].leakID = 0;
}

int nodesAndControl()
{
	int newNodeAdded = FALSE;
     d26:	80 e0       	ldi	r24, 0x00	; 0
     d28:	90 e0       	ldi	r25, 0x00	; 0
     d2a:	08 95       	ret
            }
            break;

        case returnToLeak  :
			{
			updateTempDirections();
     d2c:	4b da       	rcall	.-2922   	; 0x1c4 <updateTempDirections>

			if (checkIfNewNode() == TRUE)
     d2e:	df db       	rcall	.-2114   	; 0x4ee <checkIfNewNode>
     d30:	01 97       	sbiw	r24, 0x01	; 1
     d32:	41 f5       	brne	.+80     	; 0xd84 <nodesAndControl+0x1be>
			{
				updateCurrentNode();
     d34:	66 dd       	rcall	.-1332   	; 0x802 <updateCurrentNode>

				if (currentNode_g.whatNode == T_CROSSING)
     d36:	80 91 99 01 	lds	r24, 0x0199
     d3a:	90 91 9a 01 	lds	r25, 0x019A
     d3e:	03 97       	sbiw	r24, 0x03	; 3
     d40:	c1 f4       	brne	.+48     	; 0xd72 <nodesAndControl+0x1ac>
				{
					directionHasChanged = TRUE;
     d42:	81 e0       	ldi	r24, 0x01	; 1
     d44:	90 e0       	ldi	r25, 0x00	; 0
     d46:	90 93 2c 0c 	sts	0x0C2C, r25
     d4a:	80 93 2b 0c 	sts	0x0C2B, r24
					nextDirection_g = pathToLeak[currentPath];
     d4e:	80 91 64 01 	lds	r24, 0x0164
     d52:	90 91 65 01 	lds	r25, 0x0165
     d56:	fc 01       	movw	r30, r24
     d58:	ee 0f       	add	r30, r30
     d5a:	ff 1f       	adc	r31, r31
     d5c:	ee 5f       	subi	r30, 0xFE	; 254
     d5e:	fe 4f       	sbci	r31, 0xFE	; 254
     d60:	20 81       	ld	r18, Z
     d62:	20 93 2d 0c 	sts	0x0C2D, r18
					currentPath ++;
     d66:	01 96       	adiw	r24, 0x01	; 1
     d68:	90 93 65 01 	sts	0x0165, r25
     d6c:	80 93 64 01 	sts	0x0164, r24
     d70:	09 c0       	rjmp	.+18     	; 0xd84 <nodesAndControl+0x1be>
					// skicka info om detta till datorn
				}
				else
				{
					nextDirection_g = decideDirection();
     d72:	d0 de       	rcall	.-608    	; 0xb14 <decideDirection>
     d74:	80 93 2d 0c 	sts	0x0C2D, r24
					directionHasChanged = TRUE;
     d78:	81 e0       	ldi	r24, 0x01	; 1
     d7a:	90 e0       	ldi	r25, 0x00	; 0
     d7c:	90 93 2c 0c 	sts	0x0C2C, r25
     d80:	80 93 2b 0c 	sts	0x0C2B, r24
					// Skicka info om detta till datorn
				}
			}

			if (pathToLeak[currentPath] == noDirection)     // Roboten har nu passerat det sista vägvalet
     d84:	e0 91 64 01 	lds	r30, 0x0164
     d88:	f0 91 65 01 	lds	r31, 0x0165
     d8c:	ee 0f       	add	r30, r30
     d8e:	ff 1f       	adc	r31, r31
     d90:	ee 5f       	subi	r30, 0xFE	; 254
     d92:	fe 4f       	sbci	r31, 0xFE	; 254
     d94:	80 81       	ld	r24, Z
     d96:	91 81       	ldd	r25, Z+1	; 0x01
     d98:	04 97       	sbiw	r24, 0x04	; 4
     d9a:	99 f5       	brne	.+102    	; 0xe02 <nodesAndControl+0x23c>
			{
				if (validLeak() == TRUE)
     d9c:	87 da       	rcall	.-2802   	; 0x2ac <validLeak>
     d9e:	01 97       	sbiw	r24, 0x01	; 1
     da0:	99 f5       	brne	.+102    	; 0xe08 <nodesAndControl+0x242>
				{
					if (currentNode_g.containsLeak == FALSE)   // Denna koll gör att samma läcka inte hanteras igen som en ny
     da2:	80 91 ab 01 	lds	r24, 0x01AB
     da6:	90 91 ac 01 	lds	r25, 0x01AC
     daa:	89 2b       	or	r24, r25
     dac:	81 f5       	brne	.+96     	; 0xe0e <nodesAndControl+0x248>
					{
						currentNode_g.containsLeak = TRUE;
     dae:	81 e0       	ldi	r24, 0x01	; 1
     db0:	90 e0       	ldi	r25, 0x00	; 0
     db2:	90 93 ac 01 	sts	0x01AC, r25
     db6:	80 93 ab 01 	sts	0x01AB, r24

						if (leaksToPass_g == 0)
     dba:	80 91 66 01 	lds	r24, 0x0166
     dbe:	90 91 67 01 	lds	r25, 0x0167
     dc2:	00 97       	sbiw	r24, 0x00	; 0
     dc4:	81 f4       	brne	.+32     	; 0xde6 <nodesAndControl+0x220>
						{
							if (currentDirection_g != noDirection)
     dc6:	80 91 98 01 	lds	r24, 0x0198
     dca:	84 30       	cpi	r24, 0x04	; 4
     dcc:	19 f1       	breq	.+70     	; 0xe14 <nodesAndControl+0x24e>
							{
								directionHasChanged = TRUE;     // Läckan är nu hittad
     dce:	81 e0       	ldi	r24, 0x01	; 1
     dd0:	90 e0       	ldi	r25, 0x00	; 0
     dd2:	90 93 2c 0c 	sts	0x0C2C, r25
     dd6:	80 93 2b 0c 	sts	0x0C2B, r24
								nextDirection_g = noDirection;
     dda:	84 e0       	ldi	r24, 0x04	; 4
     ddc:	80 93 2d 0c 	sts	0x0C2D, r24
    nodeArray[0].leakID = 0;
}

int nodesAndControl()
{
	int newNodeAdded = FALSE;
     de0:	80 e0       	ldi	r24, 0x00	; 0
     de2:	90 e0       	ldi	r25, 0x00	; 0
     de4:	08 95       	ret
								directionHasChanged = TRUE;     // Läckan är nu hittad
								nextDirection_g = noDirection;
							}
						}
						else
						leaksToPass_g --;
     de6:	01 97       	sbiw	r24, 0x01	; 1
     de8:	90 93 67 01 	sts	0x0167, r25
     dec:	80 93 66 01 	sts	0x0166, r24
    nodeArray[0].leakID = 0;
}

int nodesAndControl()
{
	int newNodeAdded = FALSE;
     df0:	80 e0       	ldi	r24, 0x00	; 0
     df2:	90 e0       	ldi	r25, 0x00	; 0
     df4:	08 95       	ret
     df6:	80 e0       	ldi	r24, 0x00	; 0
     df8:	90 e0       	ldi	r25, 0x00	; 0
     dfa:	08 95       	ret
     dfc:	80 e0       	ldi	r24, 0x00	; 0
     dfe:	90 e0       	ldi	r25, 0x00	; 0
     e00:	08 95       	ret
     e02:	80 e0       	ldi	r24, 0x00	; 0
     e04:	90 e0       	ldi	r25, 0x00	; 0
     e06:	08 95       	ret
     e08:	80 e0       	ldi	r24, 0x00	; 0
     e0a:	90 e0       	ldi	r25, 0x00	; 0
     e0c:	08 95       	ret
     e0e:	80 e0       	ldi	r24, 0x00	; 0
     e10:	90 e0       	ldi	r25, 0x00	; 0
     e12:	08 95       	ret
     e14:	80 e0       	ldi	r24, 0x00	; 0
     e16:	90 e0       	ldi	r25, 0x00	; 0
			}
        default:
			break;
    }
	return newNodeAdded;
}
     e18:	08 95       	ret

00000e1a <timer0Init>:

// klockfrekvensen är 16MHz.
void timer0Init()
{
    // prescaler 256
    TCCR0B |= (1 << CS02);
     e1a:	85 b5       	in	r24, 0x25	; 37
     e1c:	84 60       	ori	r24, 0x04	; 4
     e1e:	85 bd       	out	0x25, r24	; 37
    
    // initiera counter
    TCNT0 = 0;
     e20:	16 bc       	out	0x26, r1	; 38
    
    // tillåt timer0 overflow interrupt
    
    TIMSK0 |= (1 << TOIE0);
     e22:	ee e6       	ldi	r30, 0x6E	; 110
     e24:	f0 e0       	ldi	r31, 0x00	; 0
     e26:	80 81       	ld	r24, Z
     e28:	81 60       	ori	r24, 0x01	; 1
     e2a:	80 83       	st	Z, r24
    
    
    timer0TotOverflow_g = 0;
     e2c:	10 92 31 0c 	sts	0x0C31, r1
     e30:	08 95       	ret

00000e32 <timer2Init>:
}

void timer2Init()
{
    // prescaler 256, denna timer har dock större upplösning här, därav andra värden
    TCCR2B |= (1 << CS22) | (1 << CS21);
     e32:	e1 eb       	ldi	r30, 0xB1	; 177
     e34:	f0 e0       	ldi	r31, 0x00	; 0
     e36:	80 81       	ld	r24, Z
     e38:	86 60       	ori	r24, 0x06	; 6
     e3a:	80 83       	st	Z, r24
    
    // initiera counter
    TCNT2 = 0;
     e3c:	10 92 b2 00 	sts	0x00B2, r1
    
    // tillåt timer2 overflow interrupt
    
    TIMSK2 |= (1 << TOIE2);
     e40:	e0 e7       	ldi	r30, 0x70	; 112
     e42:	f0 e0       	ldi	r31, 0x00	; 0
     e44:	80 81       	ld	r24, Z
     e46:	81 60       	ori	r24, 0x01	; 1
     e48:	80 83       	st	Z, r24
    
    timer2TotOverflow_g = 0;
     e4a:	10 92 30 0c 	sts	0x0C30, r1
     e4e:	08 95       	ret

00000e50 <setTimerPeriod>:
void setTimerPeriod(int timer, int newPeriod)
{
    
    int newTimerRemainingTicks = 100;   // default för säkerhets skull
    int newTimerOverflowMax = 50;       // 
    switch(newPeriod)
     e50:	66 34       	cpi	r22, 0x46	; 70
     e52:	71 05       	cpc	r23, r1
     e54:	09 f4       	brne	.+2      	; 0xe58 <setTimerPeriod+0x8>
     e56:	53 c0       	rjmp	.+166    	; 0xefe <setTimerPeriod+0xae>
     e58:	b4 f4       	brge	.+44     	; 0xe86 <setTimerPeriod+0x36>
     e5a:	6e 31       	cpi	r22, 0x1E	; 30
     e5c:	71 05       	cpc	r23, r1
     e5e:	d9 f1       	breq	.+118    	; 0xed6 <setTimerPeriod+0x86>
     e60:	44 f4       	brge	.+16     	; 0xe72 <setTimerPeriod+0x22>
     e62:	6a 30       	cpi	r22, 0x0A	; 10
     e64:	71 05       	cpc	r23, r1
     e66:	09 f4       	brne	.+2      	; 0xe6a <setTimerPeriod+0x1a>
     e68:	72 c0       	rjmp	.+228    	; 0xf4e <setTimerPeriod+0xfe>
     e6a:	64 31       	cpi	r22, 0x14	; 20
     e6c:	71 05       	cpc	r23, r1
     e6e:	71 f1       	breq	.+92     	; 0xecc <setTimerPeriod+0x7c>
     e70:	28 c0       	rjmp	.+80     	; 0xec2 <setTimerPeriod+0x72>
     e72:	62 33       	cpi	r22, 0x32	; 50
     e74:	71 05       	cpc	r23, r1
     e76:	c9 f1       	breq	.+114    	; 0xeea <setTimerPeriod+0x9a>
     e78:	6c 33       	cpi	r22, 0x3C	; 60
     e7a:	71 05       	cpc	r23, r1
     e7c:	d9 f1       	breq	.+118    	; 0xef4 <setTimerPeriod+0xa4>
     e7e:	68 32       	cpi	r22, 0x28	; 40
     e80:	71 05       	cpc	r23, r1
     e82:	f9 f4       	brne	.+62     	; 0xec2 <setTimerPeriod+0x72>
     e84:	2d c0       	rjmp	.+90     	; 0xee0 <setTimerPeriod+0x90>
     e86:	68 3c       	cpi	r22, 0xC8	; 200
     e88:	71 05       	cpc	r23, r1
     e8a:	09 f4       	brne	.+2      	; 0xe8e <setTimerPeriod+0x3e>
     e8c:	4c c0       	rjmp	.+152    	; 0xf26 <setTimerPeriod+0xd6>
     e8e:	5c f4       	brge	.+22     	; 0xea6 <setTimerPeriod+0x56>
     e90:	6a 35       	cpi	r22, 0x5A	; 90
     e92:	71 05       	cpc	r23, r1
     e94:	f1 f1       	breq	.+124    	; 0xf12 <setTimerPeriod+0xc2>
     e96:	64 36       	cpi	r22, 0x64	; 100
     e98:	71 05       	cpc	r23, r1
     e9a:	09 f4       	brne	.+2      	; 0xe9e <setTimerPeriod+0x4e>
     e9c:	3f c0       	rjmp	.+126    	; 0xf1c <setTimerPeriod+0xcc>
     e9e:	60 35       	cpi	r22, 0x50	; 80
     ea0:	71 05       	cpc	r23, r1
     ea2:	79 f4       	brne	.+30     	; 0xec2 <setTimerPeriod+0x72>
     ea4:	31 c0       	rjmp	.+98     	; 0xf08 <setTimerPeriod+0xb8>
     ea6:	60 39       	cpi	r22, 0x90	; 144
     ea8:	21 e0       	ldi	r18, 0x01	; 1
     eaa:	72 07       	cpc	r23, r18
     eac:	09 f4       	brne	.+2      	; 0xeb0 <setTimerPeriod+0x60>
     eae:	45 c0       	rjmp	.+138    	; 0xf3a <setTimerPeriod+0xea>
     eb0:	64 3f       	cpi	r22, 0xF4	; 244
     eb2:	21 e0       	ldi	r18, 0x01	; 1
     eb4:	72 07       	cpc	r23, r18
     eb6:	09 f4       	brne	.+2      	; 0xeba <setTimerPeriod+0x6a>
     eb8:	45 c0       	rjmp	.+138    	; 0xf44 <setTimerPeriod+0xf4>
     eba:	6c 32       	cpi	r22, 0x2C	; 44
     ebc:	21 e0       	ldi	r18, 0x01	; 1
     ebe:	72 07       	cpc	r23, r18
     ec0:	b9 f1       	breq	.+110    	; 0xf30 <setTimerPeriod+0xe0>
// timerPeriod ska väljas från fördefinierade tider
void setTimerPeriod(int timer, int newPeriod)
{
    
    int newTimerRemainingTicks = 100;   // default för säkerhets skull
    int newTimerOverflowMax = 50;       // 
     ec2:	42 e3       	ldi	r20, 0x32	; 50
     ec4:	50 e0       	ldi	r21, 0x00	; 0

// timerPeriod ska väljas från fördefinierade tider
void setTimerPeriod(int timer, int newPeriod)
{
    
    int newTimerRemainingTicks = 100;   // default för säkerhets skull
     ec6:	24 e6       	ldi	r18, 0x64	; 100
     ec8:	30 e0       	ldi	r19, 0x00	; 0
     eca:	45 c0       	rjmp	.+138    	; 0xf56 <setTimerPeriod+0x106>
            break;
        }
        case INCREMENT_PERIOD_20:
        {
            
            newTimerOverflowMax = 4;
     ecc:	44 e0       	ldi	r20, 0x04	; 4
     ece:	50 e0       	ldi	r21, 0x00	; 0
            newTimerRemainingTicks = 226;
     ed0:	22 ee       	ldi	r18, 0xE2	; 226
     ed2:	30 e0       	ldi	r19, 0x00	; 0
            break;
     ed4:	40 c0       	rjmp	.+128    	; 0xf56 <setTimerPeriod+0x106>
        }
        case INCREMENT_PERIOD_30:
        {
            
            newTimerOverflowMax = 7;
     ed6:	47 e0       	ldi	r20, 0x07	; 7
     ed8:	50 e0       	ldi	r21, 0x00	; 0
            newTimerRemainingTicks = 83;
     eda:	23 e5       	ldi	r18, 0x53	; 83
     edc:	30 e0       	ldi	r19, 0x00	; 0
            break;
     ede:	3b c0       	rjmp	.+118    	; 0xf56 <setTimerPeriod+0x106>
        }
        case INCREMENT_PERIOD_40:
        {
            
            newTimerOverflowMax = 9;
     ee0:	49 e0       	ldi	r20, 0x09	; 9
     ee2:	50 e0       	ldi	r21, 0x00	; 0
            newTimerRemainingTicks = 196;
     ee4:	24 ec       	ldi	r18, 0xC4	; 196
     ee6:	30 e0       	ldi	r19, 0x00	; 0
            break;
     ee8:	36 c0       	rjmp	.+108    	; 0xf56 <setTimerPeriod+0x106>
        }
        case INCREMENT_PERIOD_50:
        {
            
            newTimerOverflowMax = 12;
     eea:	4c e0       	ldi	r20, 0x0C	; 12
     eec:	50 e0       	ldi	r21, 0x00	; 0
            newTimerRemainingTicks = 53;
     eee:	25 e3       	ldi	r18, 0x35	; 53
     ef0:	30 e0       	ldi	r19, 0x00	; 0
            break;
     ef2:	31 c0       	rjmp	.+98     	; 0xf56 <setTimerPeriod+0x106>
        }
        case INCREMENT_PERIOD_60:
        {
            
            newTimerOverflowMax = 14;
     ef4:	4e e0       	ldi	r20, 0x0E	; 14
     ef6:	50 e0       	ldi	r21, 0x00	; 0
            newTimerRemainingTicks = 166;
     ef8:	26 ea       	ldi	r18, 0xA6	; 166
     efa:	30 e0       	ldi	r19, 0x00	; 0
            break;
     efc:	2c c0       	rjmp	.+88     	; 0xf56 <setTimerPeriod+0x106>
        }
        case INCREMENT_PERIOD_70:
        {
            
            newTimerOverflowMax = 17;
     efe:	41 e1       	ldi	r20, 0x11	; 17
     f00:	50 e0       	ldi	r21, 0x00	; 0
            newTimerRemainingTicks = 23;
     f02:	27 e1       	ldi	r18, 0x17	; 23
     f04:	30 e0       	ldi	r19, 0x00	; 0
            break;
     f06:	27 c0       	rjmp	.+78     	; 0xf56 <setTimerPeriod+0x106>
        }
        case INCREMENT_PERIOD_80:
        {
            
            newTimerOverflowMax = 19;
     f08:	43 e1       	ldi	r20, 0x13	; 19
     f0a:	50 e0       	ldi	r21, 0x00	; 0
            newTimerRemainingTicks = 136;
     f0c:	28 e8       	ldi	r18, 0x88	; 136
     f0e:	30 e0       	ldi	r19, 0x00	; 0
            break;
     f10:	22 c0       	rjmp	.+68     	; 0xf56 <setTimerPeriod+0x106>
        }
        case INCREMENT_PERIOD_90:
        {
            
            newTimerOverflowMax = 21;
     f12:	45 e1       	ldi	r20, 0x15	; 21
     f14:	50 e0       	ldi	r21, 0x00	; 0
            newTimerRemainingTicks = 249;
     f16:	29 ef       	ldi	r18, 0xF9	; 249
     f18:	30 e0       	ldi	r19, 0x00	; 0
            break;
     f1a:	1d c0       	rjmp	.+58     	; 0xf56 <setTimerPeriod+0x106>
        }
        case INCREMENT_PERIOD_100:
        {
            
            newTimerOverflowMax = 24;
     f1c:	48 e1       	ldi	r20, 0x18	; 24
     f1e:	50 e0       	ldi	r21, 0x00	; 0
            newTimerRemainingTicks = 106;
     f20:	2a e6       	ldi	r18, 0x6A	; 106
     f22:	30 e0       	ldi	r19, 0x00	; 0
            break;
     f24:	18 c0       	rjmp	.+48     	; 0xf56 <setTimerPeriod+0x106>
        }
        case INCREMENT_PERIOD_200:
        {

            newTimerOverflowMax = 48;
     f26:	40 e3       	ldi	r20, 0x30	; 48
     f28:	50 e0       	ldi	r21, 0x00	; 0
            newTimerRemainingTicks = 212;
     f2a:	24 ed       	ldi	r18, 0xD4	; 212
     f2c:	30 e0       	ldi	r19, 0x00	; 0
            break;
     f2e:	13 c0       	rjmp	.+38     	; 0xf56 <setTimerPeriod+0x106>
        }
        case INCREMENT_PERIOD_300:
        {

            newTimerOverflowMax = 73;
     f30:	49 e4       	ldi	r20, 0x49	; 73
     f32:	50 e0       	ldi	r21, 0x00	; 0
            newTimerRemainingTicks = 62;
     f34:	2e e3       	ldi	r18, 0x3E	; 62
     f36:	30 e0       	ldi	r19, 0x00	; 0
            break;
     f38:	0e c0       	rjmp	.+28     	; 0xf56 <setTimerPeriod+0x106>
        }
        case INCREMENT_PERIOD_400:
        {

            newTimerOverflowMax = 97;
     f3a:	41 e6       	ldi	r20, 0x61	; 97
     f3c:	50 e0       	ldi	r21, 0x00	; 0
            newTimerRemainingTicks = 168;
     f3e:	28 ea       	ldi	r18, 0xA8	; 168
     f40:	30 e0       	ldi	r19, 0x00	; 0
            break;
     f42:	09 c0       	rjmp	.+18     	; 0xf56 <setTimerPeriod+0x106>
        }
        case INCREMENT_PERIOD_500:
        {

            newTimerOverflowMax = 122;
     f44:	4a e7       	ldi	r20, 0x7A	; 122
     f46:	50 e0       	ldi	r21, 0x00	; 0
            newTimerRemainingTicks = 18;
     f48:	22 e1       	ldi	r18, 0x12	; 18
     f4a:	30 e0       	ldi	r19, 0x00	; 0
            break;
     f4c:	04 c0       	rjmp	.+8      	; 0xf56 <setTimerPeriod+0x106>
    int newTimerOverflowMax = 50;       // 
    switch(newPeriod)
    {
        case INCREMENT_PERIOD_10:
        {
            newTimerOverflowMax = 2;
     f4e:	42 e0       	ldi	r20, 0x02	; 2
     f50:	50 e0       	ldi	r21, 0x00	; 0
            newTimerRemainingTicks = 113;
     f52:	21 e7       	ldi	r18, 0x71	; 113
     f54:	30 e0       	ldi	r19, 0x00	; 0
        }
        // default:
        // Här kan man ha någon typ av felhantering om man vill

    }
    switch(timer)
     f56:	00 97       	sbiw	r24, 0x00	; 0
     f58:	19 f0       	breq	.+6      	; 0xf60 <setTimerPeriod+0x110>
     f5a:	02 97       	sbiw	r24, 0x02	; 2
     f5c:	71 f0       	breq	.+28     	; 0xf7a <setTimerPeriod+0x12a>
     f5e:	08 95       	ret
    {
        case TIMER_0:
        {
            gaitResolutionTime_g = newPeriod;
     f60:	70 93 33 0c 	sts	0x0C33, r23
     f64:	60 93 32 0c 	sts	0x0C32, r22
            timer0OverflowMax_g = newTimerOverflowMax;
     f68:	50 93 1d 01 	sts	0x011D, r21
     f6c:	40 93 1c 01 	sts	0x011C, r20
            timer0RemainingTicks_g = newTimerRemainingTicks;
     f70:	30 93 1b 01 	sts	0x011B, r19
     f74:	20 93 1a 01 	sts	0x011A, r18
            break;
     f78:	08 95       	ret
        }
        case TIMER_2:
        {
            commUnitUpdatePeriod_g = newPeriod;
     f7a:	70 93 2f 0c 	sts	0x0C2F, r23
     f7e:	60 93 2e 0c 	sts	0x0C2E, r22
            timer2OverflowMax_g = newTimerOverflowMax;
     f82:	50 93 19 01 	sts	0x0119, r21
     f86:	40 93 18 01 	sts	0x0118, r20
            timer2RemainingTicks_g = newTimerRemainingTicks;
     f8a:	30 93 17 01 	sts	0x0117, r19
     f8e:	20 93 16 01 	sts	0x0116, r18
     f92:	08 95       	ret

00000f94 <legTimerPeriodEnd>:
    return;
}

int legTimerPeriodEnd()
{
    if (timer0TotOverflow_g >= timer0OverflowMax_g)
     f94:	20 91 31 0c 	lds	r18, 0x0C31
     f98:	30 e0       	ldi	r19, 0x00	; 0
     f9a:	80 91 1c 01 	lds	r24, 0x011C
     f9e:	90 91 1d 01 	lds	r25, 0x011D
     fa2:	28 17       	cp	r18, r24
     fa4:	39 07       	cpc	r19, r25
     fa6:	6c f0       	brlt	.+26     	; 0xfc2 <legTimerPeriodEnd+0x2e>
    {
        if (TCNT0 >= timer0RemainingTicks_g)
     fa8:	46 b5       	in	r20, 0x26	; 38
     faa:	50 e0       	ldi	r21, 0x00	; 0
     fac:	81 e0       	ldi	r24, 0x01	; 1
     fae:	90 e0       	ldi	r25, 0x00	; 0
     fb0:	20 91 1a 01 	lds	r18, 0x011A
     fb4:	30 91 1b 01 	lds	r19, 0x011B
     fb8:	42 17       	cp	r20, r18
     fba:	53 07       	cpc	r21, r19
     fbc:	24 f4       	brge	.+8      	; 0xfc6 <legTimerPeriodEnd+0x32>
     fbe:	80 e0       	ldi	r24, 0x00	; 0
     fc0:	08 95       	ret
        {
            return TRUE;
        }
    }
    return FALSE;
     fc2:	80 e0       	ldi	r24, 0x00	; 0
     fc4:	90 e0       	ldi	r25, 0x00	; 0
}
     fc6:	08 95       	ret

00000fc8 <commTimerPeriodEnd>:

int commTimerPeriodEnd()
{
    if (timer2TotOverflow_g >= timer2OverflowMax_g)
     fc8:	20 91 30 0c 	lds	r18, 0x0C30
     fcc:	30 e0       	ldi	r19, 0x00	; 0
     fce:	80 91 18 01 	lds	r24, 0x0118
     fd2:	90 91 19 01 	lds	r25, 0x0119
     fd6:	28 17       	cp	r18, r24
     fd8:	39 07       	cpc	r19, r25
     fda:	74 f0       	brlt	.+28     	; 0xff8 <commTimerPeriodEnd+0x30>
    {
        if (TCNT2 >= timer2RemainingTicks_g)
     fdc:	40 91 b2 00 	lds	r20, 0x00B2
     fe0:	50 e0       	ldi	r21, 0x00	; 0
     fe2:	81 e0       	ldi	r24, 0x01	; 1
     fe4:	90 e0       	ldi	r25, 0x00	; 0
     fe6:	20 91 16 01 	lds	r18, 0x0116
     fea:	30 91 17 01 	lds	r19, 0x0117
     fee:	42 17       	cp	r20, r18
     ff0:	53 07       	cpc	r21, r19
     ff2:	24 f4       	brge	.+8      	; 0xffc <commTimerPeriodEnd+0x34>
     ff4:	80 e0       	ldi	r24, 0x00	; 0
     ff6:	08 95       	ret
        {
            return TRUE;
        }
    }
    return FALSE;
     ff8:	80 e0       	ldi	r24, 0x00	; 0
     ffa:	90 e0       	ldi	r25, 0x00	; 0
}
     ffc:	08 95       	ret

00000ffe <resetLegTimer>:

void resetLegTimer()
{
    TCNT0 = 0;
     ffe:	16 bc       	out	0x26, r1	; 38
    timer0TotOverflow_g = 0;
    1000:	10 92 31 0c 	sts	0x0C31, r1
    1004:	08 95       	ret

00001006 <resetCommTimer>:
}

void resetCommTimer()
{
    TCNT2 = 0;
    1006:	10 92 b2 00 	sts	0x00B2, r1
    timer2TotOverflow_g = 0;
    100a:	10 92 30 0c 	sts	0x0C30, r1
    100e:	08 95       	ret

00001010 <__vector_18>:
}

ISR(TIMER0_OVF_vect)
{
    1010:	1f 92       	push	r1
    1012:	0f 92       	push	r0
    1014:	0f b6       	in	r0, 0x3f	; 63
    1016:	0f 92       	push	r0
    1018:	11 24       	eor	r1, r1
    101a:	8f 93       	push	r24
    // räkna antalet avbrott från timer0  som skett
    timer0TotOverflow_g++;
    101c:	80 91 31 0c 	lds	r24, 0x0C31
    1020:	8f 5f       	subi	r24, 0xFF	; 255
    1022:	80 93 31 0c 	sts	0x0C31, r24
}
    1026:	8f 91       	pop	r24
    1028:	0f 90       	pop	r0
    102a:	0f be       	out	0x3f, r0	; 63
    102c:	0f 90       	pop	r0
    102e:	1f 90       	pop	r1
    1030:	18 95       	reti

00001032 <__vector_11>:

ISR(TIMER2_OVF_vect)
{
    1032:	1f 92       	push	r1
    1034:	0f 92       	push	r0
    1036:	0f b6       	in	r0, 0x3f	; 63
    1038:	0f 92       	push	r0
    103a:	11 24       	eor	r1, r1
    103c:	8f 93       	push	r24
    // antalet avbrott från timer2
    timer2TotOverflow_g++;
    103e:	80 91 30 0c 	lds	r24, 0x0C30
    1042:	8f 5f       	subi	r24, 0xFF	; 255
    1044:	80 93 30 0c 	sts	0x0C30, r24
}
    1048:	8f 91       	pop	r24
    104a:	0f 90       	pop	r0
    104c:	0f be       	out	0x3f, r0	; 63
    104e:	0f 90       	pop	r0
    1050:	1f 90       	pop	r1
    1052:	18 95       	reti

00001054 <spiMasterInit>:
    spiTransmitToSensorUnit(highDataByte);
    _delay_us(5);
    spiTransmitToSensorUnit(lowDataByte);
    _delay_us(5);
    
}
    1054:	86 e0       	ldi	r24, 0x06	; 6
    1056:	81 b9       	out	0x01, r24	; 1
    1058:	84 e0       	ldi	r24, 0x04	; 4
    105a:	82 b9       	out	0x02, r24	; 2
    105c:	80 ea       	ldi	r24, 0xA0	; 160
    105e:	84 b9       	out	0x04, r24	; 4
    1060:	81 e5       	ldi	r24, 0x51	; 81
    1062:	8c bd       	out	0x2c, r24	; 44
    1064:	08 95       	ret

00001066 <spiTransmitToSensorUnit>:
    1066:	f8 94       	cli
    1068:	94 e0       	ldi	r25, 0x04	; 4
    106a:	92 b9       	out	0x02, r25	; 2
    106c:	8e bd       	out	0x2e, r24	; 46
    106e:	0d b4       	in	r0, 0x2d	; 45
    1070:	07 fe       	sbrs	r0, 7
    1072:	fd cf       	rjmp	.-6      	; 0x106e <spiTransmitToSensorUnit+0x8>
    1074:	8e b5       	in	r24, 0x2e	; 46
    1076:	80 93 34 0c 	sts	0x0C34, r24
    107a:	86 e0       	ldi	r24, 0x06	; 6
    107c:	82 b9       	out	0x02, r24	; 2
    107e:	78 94       	sei
    1080:	08 95       	ret

00001082 <spiTransmitToCommUnit>:
    1082:	f8 94       	cli
    1084:	92 e0       	ldi	r25, 0x02	; 2
    1086:	92 b9       	out	0x02, r25	; 2
    1088:	8e bd       	out	0x2e, r24	; 46
    108a:	0d b4       	in	r0, 0x2d	; 45
    108c:	07 fe       	sbrs	r0, 7
    108e:	fd cf       	rjmp	.-6      	; 0x108a <spiTransmitToCommUnit+0x8>
    1090:	8e b5       	in	r24, 0x2e	; 46
    1092:	80 93 34 0c 	sts	0x0C34, r24
    1096:	86 e0       	ldi	r24, 0x06	; 6
    1098:	82 b9       	out	0x02, r24	; 2
    109a:	78 94       	sei
    109c:	08 95       	ret

0000109e <transmitDataToCommUnit>:
    109e:	cf 93       	push	r28
    10a0:	df 93       	push	r29
    10a2:	c6 2f       	mov	r28, r22
    10a4:	d7 2f       	mov	r29, r23
    10a6:	ed df       	rcall	.-38     	; 0x1082 <spiTransmitToCommUnit>
    10a8:	8a e1       	ldi	r24, 0x1A	; 26
    10aa:	8a 95       	dec	r24
    10ac:	f1 f7       	brne	.-4      	; 0x10aa <transmitDataToCommUnit+0xc>
    10ae:	00 c0       	rjmp	.+0      	; 0x10b0 <transmitDataToCommUnit+0x12>
    10b0:	8d 2f       	mov	r24, r29
    10b2:	e7 df       	rcall	.-50     	; 0x1082 <spiTransmitToCommUnit>
    10b4:	8a e1       	ldi	r24, 0x1A	; 26
    10b6:	8a 95       	dec	r24
    10b8:	f1 f7       	brne	.-4      	; 0x10b6 <transmitDataToCommUnit+0x18>
    10ba:	00 c0       	rjmp	.+0      	; 0x10bc <transmitDataToCommUnit+0x1e>
    10bc:	8c 2f       	mov	r24, r28
    10be:	e1 df       	rcall	.-62     	; 0x1082 <spiTransmitToCommUnit>
    10c0:	8a e1       	ldi	r24, 0x1A	; 26
    10c2:	8a 95       	dec	r24
    10c4:	f1 f7       	brne	.-4      	; 0x10c2 <transmitDataToCommUnit+0x24>
    10c6:	00 c0       	rjmp	.+0      	; 0x10c8 <transmitDataToCommUnit+0x2a>
    10c8:	df 91       	pop	r29
    10ca:	cf 91       	pop	r28
    10cc:	08 95       	ret

000010ce <fetchDataFromSensorUnit>:


// Ger tillbaka värde motsvarande den headern som skickades.
int fetchDataFromSensorUnit(int header_)
{
    10ce:	cf 93       	push	r28
    uint8_t lowDataByte;
    uint8_t highDataByte;
    spiTransmitToSensorUnit(header_);
    10d0:	ca df       	rcall	.-108    	; 0x1066 <spiTransmitToSensorUnit>
	#else
		//round up by default
		__ticks_dc = (uint32_t)(ceil(fabs(__tmp)));
	#endif

	__builtin_avr_delay_cycles(__ticks_dc);
    10d2:	8a e1       	ldi	r24, 0x1A	; 26
    10d4:	8a 95       	dec	r24
    10d6:	f1 f7       	brne	.-4      	; 0x10d4 <fetchDataFromSensorUnit+0x6>
    10d8:	00 c0       	rjmp	.+0      	; 0x10da <fetchDataFromSensorUnit+0xc>
    _delay_us(5);
    spiTransmitToSensorUnit(TRASH);
    10da:	88 eb       	ldi	r24, 0xB8	; 184
    10dc:	c4 df       	rcall	.-120    	; 0x1066 <spiTransmitToSensorUnit>
    highDataByte = inbuffer;
    10de:	c0 91 34 0c 	lds	r28, 0x0C34
    10e2:	8a e1       	ldi	r24, 0x1A	; 26
    10e4:	8a 95       	dec	r24
    10e6:	f1 f7       	brne	.-4      	; 0x10e4 <fetchDataFromSensorUnit+0x16>
    10e8:	00 c0       	rjmp	.+0      	; 0x10ea <fetchDataFromSensorUnit+0x1c>
    _delay_us(5);
    spiTransmitToSensorUnit(TRASH);
    10ea:	88 eb       	ldi	r24, 0xB8	; 184
    10ec:	bc df       	rcall	.-136    	; 0x1066 <spiTransmitToSensorUnit>
    lowDataByte = inbuffer;
    return lowDataByte + (highDataByte << 8);
    10ee:	20 91 34 0c 	lds	r18, 0x0C34
    10f2:	8c 2f       	mov	r24, r28
    10f4:	90 e0       	ldi	r25, 0x00	; 0
    10f6:	98 2f       	mov	r25, r24
    10f8:	88 27       	eor	r24, r24
    10fa:	82 0f       	add	r24, r18
    10fc:	91 1d       	adc	r25, r1
    10fe:	cf 91       	pop	r28
    1100:	08 95       	ret

00001102 <initUSART>:
    1102:	80 e1       	ldi	r24, 0x10	; 16
    1104:	8a b9       	out	0x0a, r24	; 10
    1106:	1b b8       	out	0x0b, r1	; 11
    1108:	10 92 c5 00 	sts	0x00C5, r1
    110c:	10 92 c4 00 	sts	0x00C4, r1
    1110:	88 e1       	ldi	r24, 0x18	; 24
    1112:	80 93 c1 00 	sts	0x00C1, r24
    1116:	86 e0       	ldi	r24, 0x06	; 6
    1118:	80 93 c2 00 	sts	0x00C2, r24
    111c:	08 95       	ret

0000111e <USARTWriteChar>:
    111e:	e0 ec       	ldi	r30, 0xC0	; 192
    1120:	f0 e0       	ldi	r31, 0x00	; 0
    1122:	90 81       	ld	r25, Z
    1124:	95 ff       	sbrs	r25, 5
    1126:	fd cf       	rjmp	.-6      	; 0x1122 <USARTWriteChar+0x4>
    1128:	80 93 c6 00 	sts	0x00C6, r24
    112c:	08 95       	ret

0000112e <USARTSendInstruction5>:
    112e:	cf 92       	push	r12
    1130:	ef 92       	push	r14
    1132:	ff 92       	push	r15
    1134:	0f 93       	push	r16
    1136:	1f 93       	push	r17
    1138:	cf 93       	push	r28
    113a:	df 93       	push	r29
    113c:	c8 2f       	mov	r28, r24
    113e:	d6 2f       	mov	r29, r22
    1140:	14 2f       	mov	r17, r20
    1142:	f2 2e       	mov	r15, r18
    1144:	80 e1       	ldi	r24, 0x10	; 16
    1146:	8b b9       	out	0x0b, r24	; 11
    1148:	e0 ec       	ldi	r30, 0xC0	; 192
    114a:	f0 e0       	ldi	r31, 0x00	; 0
    114c:	80 81       	ld	r24, Z
    114e:	80 83       	st	Z, r24
    1150:	8f ef       	ldi	r24, 0xFF	; 255
    1152:	e5 df       	rcall	.-54     	; 0x111e <USARTWriteChar>
    1154:	8f ef       	ldi	r24, 0xFF	; 255
    1156:	e3 df       	rcall	.-58     	; 0x111e <USARTWriteChar>
    1158:	8c 2f       	mov	r24, r28
    115a:	e1 df       	rcall	.-62     	; 0x111e <USARTWriteChar>
    115c:	87 e0       	ldi	r24, 0x07	; 7
    115e:	df df       	rcall	.-66     	; 0x111e <USARTWriteChar>
    1160:	8d 2f       	mov	r24, r29
    1162:	dd df       	rcall	.-70     	; 0x111e <USARTWriteChar>
    1164:	81 2f       	mov	r24, r17
    1166:	db df       	rcall	.-74     	; 0x111e <USARTWriteChar>
    1168:	8f 2d       	mov	r24, r15
    116a:	d9 df       	rcall	.-78     	; 0x111e <USARTWriteChar>
    116c:	80 2f       	mov	r24, r16
    116e:	d7 df       	rcall	.-82     	; 0x111e <USARTWriteChar>
    1170:	8e 2d       	mov	r24, r14
    1172:	d5 df       	rcall	.-86     	; 0x111e <USARTWriteChar>
    1174:	8c 2d       	mov	r24, r12
    1176:	d3 df       	rcall	.-90     	; 0x111e <USARTWriteChar>
    1178:	f8 94       	cli
    117a:	87 e0       	ldi	r24, 0x07	; 7
    117c:	8c 0d       	add	r24, r12
    117e:	e8 0e       	add	r14, r24
    1180:	0e 0d       	add	r16, r14
    1182:	f0 0e       	add	r15, r16
    1184:	1f 0d       	add	r17, r15
    1186:	d1 0f       	add	r29, r17
    1188:	8d 2f       	mov	r24, r29
    118a:	8c 0f       	add	r24, r28
    118c:	80 95       	com	r24
    118e:	c7 df       	rcall	.-114    	; 0x111e <USARTWriteChar>
    1190:	e0 ec       	ldi	r30, 0xC0	; 192
    1192:	f0 e0       	ldi	r31, 0x00	; 0
    1194:	80 81       	ld	r24, Z
    1196:	86 ff       	sbrs	r24, 6
    1198:	fd cf       	rjmp	.-6      	; 0x1194 <USARTSendInstruction5+0x66>
    119a:	1b b8       	out	0x0b, r1	; 11
    119c:	78 94       	sei
    119e:	df 91       	pop	r29
    11a0:	cf 91       	pop	r28
    11a2:	1f 91       	pop	r17
    11a4:	0f 91       	pop	r16
    11a6:	ff 90       	pop	r15
    11a8:	ef 90       	pop	r14
    11aa:	cf 90       	pop	r12
    11ac:	08 95       	ret

000011ae <sendAllRobotParameters>:
            break;
        }
        case trotGait:
        {
            transitionStartToTrot();
            currentGait = trotGait;
    11ae:	60 91 32 0c 	lds	r22, 0x0C32
    11b2:	70 91 33 0c 	lds	r23, 0x0C33
    11b6:	80 e8       	ldi	r24, 0x80	; 128
    11b8:	90 e0       	ldi	r25, 0x00	; 0
    11ba:	71 df       	rcall	.-286    	; 0x109e <transmitDataToCommUnit>
    11bc:	60 91 60 01 	lds	r22, 0x0160
    11c0:	70 91 61 01 	lds	r23, 0x0161
    11c4:	80 e5       	ldi	r24, 0x50	; 80
    11c6:	90 e0       	ldi	r25, 0x00	; 0
    11c8:	6a df       	rcall	.-300    	; 0x109e <transmitDataToCommUnit>
    11ca:	60 91 58 01 	lds	r22, 0x0158
    11ce:	70 91 59 01 	lds	r23, 0x0159
    11d2:	88 e4       	ldi	r24, 0x48	; 72
    11d4:	90 e0       	ldi	r25, 0x00	; 0
    11d6:	63 df       	rcall	.-314    	; 0x109e <transmitDataToCommUnit>
    11d8:	60 91 5e 01 	lds	r22, 0x015E
    11dc:	70 91 5f 01 	lds	r23, 0x015F
    11e0:	80 e4       	ldi	r24, 0x40	; 64
    11e2:	90 e0       	ldi	r25, 0x00	; 0
    11e4:	5c df       	rcall	.-328    	; 0x109e <transmitDataToCommUnit>
    11e6:	60 91 5a 01 	lds	r22, 0x015A
    11ea:	70 91 5b 01 	lds	r23, 0x015B
    11ee:	71 95       	neg	r23
    11f0:	61 95       	neg	r22
    11f2:	71 09       	sbc	r23, r1
    11f4:	88 e3       	ldi	r24, 0x38	; 56
    11f6:	90 e0       	ldi	r25, 0x00	; 0
    11f8:	52 df       	rcall	.-348    	; 0x109e <transmitDataToCommUnit>
    11fa:	20 e0       	ldi	r18, 0x00	; 0
    11fc:	30 e0       	ldi	r19, 0x00	; 0
    11fe:	48 ec       	ldi	r20, 0xC8	; 200
    1200:	52 e4       	ldi	r21, 0x42	; 66
    1202:	60 91 46 01 	lds	r22, 0x0146
    1206:	70 91 47 01 	lds	r23, 0x0147
    120a:	80 91 48 01 	lds	r24, 0x0148
    120e:	90 91 49 01 	lds	r25, 0x0149
    1212:	0e 94 a5 51 	call	0xa34a	; 0xa34a <__mulsf3>
    1216:	0e 94 77 50 	call	0xa0ee	; 0xa0ee <__fixsfsi>
    121a:	80 e3       	ldi	r24, 0x30	; 48
    121c:	90 e0       	ldi	r25, 0x00	; 0
    121e:	3f df       	rcall	.-386    	; 0x109e <transmitDataToCommUnit>
    1220:	20 e0       	ldi	r18, 0x00	; 0
    1222:	30 e0       	ldi	r19, 0x00	; 0
    1224:	48 ec       	ldi	r20, 0xC8	; 200
    1226:	52 e4       	ldi	r21, 0x42	; 66
    1228:	60 91 4a 01 	lds	r22, 0x014A
    122c:	70 91 4b 01 	lds	r23, 0x014B
    1230:	80 91 4c 01 	lds	r24, 0x014C
    1234:	90 91 4d 01 	lds	r25, 0x014D
    1238:	0e 94 a5 51 	call	0xa34a	; 0xa34a <__mulsf3>
    123c:	0e 94 77 50 	call	0xa0ee	; 0xa0ee <__fixsfsi>
    1240:	88 e2       	ldi	r24, 0x28	; 40
    1242:	90 e0       	ldi	r25, 0x00	; 0
    1244:	2c cf       	rjmp	.-424    	; 0x109e <transmitDataToCommUnit>
    1246:	08 95       	ret

00001248 <calcDynamixelSpeed>:
    1248:	9b 01       	movw	r18, r22
    124a:	ac 01       	movw	r20, r24
    124c:	a8 ee       	ldi	r26, 0xE8	; 232
    124e:	b3 e0       	ldi	r27, 0x03	; 3
    1250:	0e 94 97 52 	call	0xa52e	; 0xa52e <__muluhisi3>
    1254:	20 91 32 0c 	lds	r18, 0x0C32
    1258:	30 91 33 0c 	lds	r19, 0x0C33
    125c:	a9 01       	movw	r20, r18
    125e:	44 0f       	add	r20, r20
    1260:	55 1f       	adc	r21, r21
    1262:	24 0f       	add	r18, r20
    1264:	35 1f       	adc	r19, r21
    1266:	22 0f       	add	r18, r18
    1268:	33 1f       	adc	r19, r19
    126a:	44 27       	eor	r20, r20
    126c:	37 fd       	sbrc	r19, 7
    126e:	40 95       	com	r20
    1270:	54 2f       	mov	r21, r20
    1272:	0e 94 75 52 	call	0xa4ea	; 0xa4ea <__divmodsi4>
    1276:	22 30       	cpi	r18, 0x02	; 2
    1278:	31 05       	cpc	r19, r1
    127a:	41 05       	cpc	r20, r1
    127c:	51 05       	cpc	r21, r1
    127e:	2c f4       	brge	.+10     	; 0x128a <calcDynamixelSpeed+0x42>
    1280:	62 e0       	ldi	r22, 0x02	; 2
    1282:	70 e0       	ldi	r23, 0x00	; 0
    1284:	80 e0       	ldi	r24, 0x00	; 0
    1286:	90 e0       	ldi	r25, 0x00	; 0
    1288:	08 95       	ret
    128a:	62 2f       	mov	r22, r18
    128c:	73 2f       	mov	r23, r19
    128e:	84 2f       	mov	r24, r20
    1290:	95 2f       	mov	r25, r21
    1292:	08 95       	ret

00001294 <MoveDynamixel>:
    1294:	4f 92       	push	r4
    1296:	5f 92       	push	r5
    1298:	6f 92       	push	r6
    129a:	7f 92       	push	r7
    129c:	8f 92       	push	r8
    129e:	9f 92       	push	r9
    12a0:	af 92       	push	r10
    12a2:	bf 92       	push	r11
    12a4:	cf 92       	push	r12
    12a6:	df 92       	push	r13
    12a8:	ef 92       	push	r14
    12aa:	ff 92       	push	r15
    12ac:	0f 93       	push	r16
    12ae:	1f 93       	push	r17
    12b0:	cf 93       	push	r28
    12b2:	df 93       	push	r29
    12b4:	ec 01       	movw	r28, r24
    12b6:	68 01       	movw	r12, r16
    12b8:	79 01       	movw	r14, r18
    12ba:	4d 32       	cpi	r20, 0x2D	; 45
    12bc:	81 e0       	ldi	r24, 0x01	; 1
    12be:	58 07       	cpc	r21, r24
    12c0:	61 05       	cpc	r22, r1
    12c2:	71 05       	cpc	r23, r1
    12c4:	e0 f5       	brcc	.+120    	; 0x133e <MoveDynamixel+0xaa>
    12c6:	af ef       	ldi	r26, 0xFF	; 255
    12c8:	b3 e0       	ldi	r27, 0x03	; 3
    12ca:	9a 01       	movw	r18, r20
    12cc:	ab 01       	movw	r20, r22
    12ce:	0e 94 97 52 	call	0xa52e	; 0xa52e <__muluhisi3>
    12d2:	2c e2       	ldi	r18, 0x2C	; 44
    12d4:	31 e0       	ldi	r19, 0x01	; 1
    12d6:	40 e0       	ldi	r20, 0x00	; 0
    12d8:	50 e0       	ldi	r21, 0x00	; 0
    12da:	0e 94 75 52 	call	0xa4ea	; 0xa4ea <__divmodsi4>
    12de:	49 01       	movw	r8, r18
    12e0:	5a 01       	movw	r10, r20
    12e2:	99 24       	eor	r9, r9
    12e4:	aa 24       	eor	r10, r10
    12e6:	bb 24       	eor	r11, r11
    12e8:	43 2e       	mov	r4, r19
    12ea:	51 2c       	mov	r5, r1
    12ec:	82 e7       	ldi	r24, 0x72	; 114
    12ee:	c8 16       	cp	r12, r24
    12f0:	d1 04       	cpc	r13, r1
    12f2:	e1 04       	cpc	r14, r1
    12f4:	f1 04       	cpc	r15, r1
    12f6:	a4 f4       	brge	.+40     	; 0x1320 <MoveDynamixel+0x8c>
    12f8:	af ef       	ldi	r26, 0xFF	; 255
    12fa:	b3 e0       	ldi	r27, 0x03	; 3
    12fc:	a7 01       	movw	r20, r14
    12fe:	96 01       	movw	r18, r12
    1300:	0e 94 97 52 	call	0xa52e	; 0xa52e <__muluhisi3>
    1304:	22 e7       	ldi	r18, 0x72	; 114
    1306:	30 e0       	ldi	r19, 0x00	; 0
    1308:	40 e0       	ldi	r20, 0x00	; 0
    130a:	50 e0       	ldi	r21, 0x00	; 0
    130c:	0e 94 75 52 	call	0xa4ea	; 0xa4ea <__divmodsi4>
    1310:	79 01       	movw	r14, r18
    1312:	8a 01       	movw	r16, r20
    1314:	ff 24       	eor	r15, r15
    1316:	00 27       	eor	r16, r16
    1318:	11 27       	eor	r17, r17
    131a:	43 2f       	mov	r20, r19
    131c:	50 e0       	ldi	r21, 0x00	; 0
    131e:	06 c0       	rjmp	.+12     	; 0x132c <MoveDynamixel+0x98>
    1320:	40 e0       	ldi	r20, 0x00	; 0
    1322:	50 e0       	ldi	r21, 0x00	; 0
    1324:	ba 01       	movw	r22, r20
    1326:	e1 2c       	mov	r14, r1
    1328:	f1 2c       	mov	r15, r1
    132a:	87 01       	movw	r16, r14
    132c:	6a 01       	movw	r12, r20
    132e:	82 01       	movw	r16, r4
    1330:	94 01       	movw	r18, r8
    1332:	4e e1       	ldi	r20, 0x1E	; 30
    1334:	50 e0       	ldi	r21, 0x00	; 0
    1336:	63 e0       	ldi	r22, 0x03	; 3
    1338:	70 e0       	ldi	r23, 0x00	; 0
    133a:	ce 01       	movw	r24, r28
    133c:	f8 de       	rcall	.-528    	; 0x112e <USARTSendInstruction5>
    133e:	df 91       	pop	r29
    1340:	cf 91       	pop	r28
    1342:	1f 91       	pop	r17
    1344:	0f 91       	pop	r16
    1346:	ff 90       	pop	r15
    1348:	ef 90       	pop	r14
    134a:	df 90       	pop	r13
    134c:	cf 90       	pop	r12
    134e:	bf 90       	pop	r11
    1350:	af 90       	pop	r10
    1352:	9f 90       	pop	r9
    1354:	8f 90       	pop	r8
    1356:	7f 90       	pop	r7
    1358:	6f 90       	pop	r6
    135a:	5f 90       	pop	r5
    135c:	4f 90       	pop	r4
    135e:	08 95       	ret

00001360 <MoveFrontLeftLeg>:
    1360:	4f 92       	push	r4
    1362:	5f 92       	push	r5
    1364:	6f 92       	push	r6
    1366:	7f 92       	push	r7
    1368:	8f 92       	push	r8
    136a:	9f 92       	push	r9
    136c:	af 92       	push	r10
    136e:	bf 92       	push	r11
    1370:	cf 92       	push	r12
    1372:	df 92       	push	r13
    1374:	ef 92       	push	r14
    1376:	ff 92       	push	r15
    1378:	0f 93       	push	r16
    137a:	1f 93       	push	r17
    137c:	cf 93       	push	r28
    137e:	df 93       	push	r29
    1380:	cd b7       	in	r28, 0x3d	; 61
    1382:	de b7       	in	r29, 0x3e	; 62
    1384:	60 97       	sbiw	r28, 0x10	; 16
    1386:	0f b6       	in	r0, 0x3f	; 63
    1388:	f8 94       	cli
    138a:	de bf       	out	0x3e, r29	; 62
    138c:	0f be       	out	0x3f, r0	; 63
    138e:	cd bf       	out	0x3d, r28	; 61
    1390:	2b 01       	movw	r4, r22
    1392:	3c 01       	movw	r6, r24
    1394:	49 01       	movw	r8, r18
    1396:	5a 01       	movw	r10, r20
    1398:	e9 82       	std	Y+1, r14	; 0x01
    139a:	fa 82       	std	Y+2, r15	; 0x02
    139c:	0b 83       	std	Y+3, r16	; 0x03
    139e:	1c 83       	std	Y+4, r17	; 0x04
    13a0:	86 01       	movw	r16, r12
    13a2:	90 58       	subi	r25, 0x80	; 128
    13a4:	0e 94 b8 4f 	call	0x9f70	; 0x9f70 <atan2>
    13a8:	6d 87       	std	Y+13, r22	; 0x0d
    13aa:	7e 87       	std	Y+14, r23	; 0x0e
    13ac:	8f 87       	std	Y+15, r24	; 0x0f
    13ae:	98 8b       	std	Y+16, r25	; 0x10
    13b0:	29 81       	ldd	r18, Y+1	; 0x01
    13b2:	3a 81       	ldd	r19, Y+2	; 0x02
    13b4:	4b 81       	ldd	r20, Y+3	; 0x03
    13b6:	5c 81       	ldd	r21, Y+4	; 0x04
    13b8:	ca 01       	movw	r24, r20
    13ba:	b9 01       	movw	r22, r18
    13bc:	0e 94 a5 51 	call	0xa34a	; 0xa34a <__mulsf3>
    13c0:	6b 01       	movw	r12, r22
    13c2:	7c 01       	movw	r14, r24
    13c4:	a3 01       	movw	r20, r6
    13c6:	92 01       	movw	r18, r4
    13c8:	c3 01       	movw	r24, r6
    13ca:	b2 01       	movw	r22, r4
    13cc:	0e 94 a5 51 	call	0xa34a	; 0xa34a <__mulsf3>
    13d0:	2b 01       	movw	r4, r22
    13d2:	3c 01       	movw	r6, r24
    13d4:	a5 01       	movw	r20, r10
    13d6:	94 01       	movw	r18, r8
    13d8:	c5 01       	movw	r24, r10
    13da:	b4 01       	movw	r22, r8
    13dc:	0e 94 a5 51 	call	0xa34a	; 0xa34a <__mulsf3>
    13e0:	9b 01       	movw	r18, r22
    13e2:	ac 01       	movw	r20, r24
    13e4:	c3 01       	movw	r24, r6
    13e6:	b2 01       	movw	r22, r4
    13e8:	0e 94 45 4f 	call	0x9e8a	; 0x9e8a <__addsf3>
    13ec:	2b 01       	movw	r4, r22
    13ee:	3c 01       	movw	r6, r24
    13f0:	0e 94 0c 52 	call	0xa418	; 0xa418 <sqrt>
    13f4:	20 e0       	ldi	r18, 0x00	; 0
    13f6:	30 e0       	ldi	r19, 0x00	; 0
    13f8:	48 e4       	ldi	r20, 0x48	; 72
    13fa:	52 e4       	ldi	r21, 0x42	; 66
    13fc:	0e 94 44 4f 	call	0x9e88	; 0x9e88 <__subsf3>
    1400:	4b 01       	movw	r8, r22
    1402:	5c 01       	movw	r10, r24
    1404:	9b 01       	movw	r18, r22
    1406:	ac 01       	movw	r20, r24
    1408:	0e 94 a5 51 	call	0xa34a	; 0xa34a <__mulsf3>
    140c:	6d 83       	std	Y+5, r22	; 0x05
    140e:	7e 83       	std	Y+6, r23	; 0x06
    1410:	8f 83       	std	Y+7, r24	; 0x07
    1412:	98 87       	std	Y+8, r25	; 0x08
    1414:	9b 01       	movw	r18, r22
    1416:	ac 01       	movw	r20, r24
    1418:	c7 01       	movw	r24, r14
    141a:	b6 01       	movw	r22, r12
    141c:	0e 94 45 4f 	call	0x9e8a	; 0x9e8a <__addsf3>
    1420:	69 87       	std	Y+9, r22	; 0x09
    1422:	7a 87       	std	Y+10, r23	; 0x0a
    1424:	8b 87       	std	Y+11, r24	; 0x0b
    1426:	9c 87       	std	Y+12, r25	; 0x0c
    1428:	0e 94 0c 52 	call	0xa418	; 0xa418 <sqrt>
    142c:	9b 01       	movw	r18, r22
    142e:	ac 01       	movw	r20, r24
    1430:	69 81       	ldd	r22, Y+1	; 0x01
    1432:	7a 81       	ldd	r23, Y+2	; 0x02
    1434:	8b 81       	ldd	r24, Y+3	; 0x03
    1436:	9c 81       	ldd	r25, Y+4	; 0x04
    1438:	90 58       	subi	r25, 0x80	; 128
    143a:	0e 94 0f 50 	call	0xa01e	; 0xa01e <__divsf3>
    143e:	0e 94 36 4f 	call	0x9e6c	; 0x9e6c <acos>
    1442:	69 83       	std	Y+1, r22	; 0x01
    1444:	7a 83       	std	Y+2, r23	; 0x02
    1446:	8b 83       	std	Y+3, r24	; 0x03
    1448:	9c 83       	std	Y+4, r25	; 0x04
    144a:	20 e0       	ldi	r18, 0x00	; 0
    144c:	30 e0       	ldi	r19, 0x00	; 0
    144e:	48 e4       	ldi	r20, 0x48	; 72
    1450:	52 e4       	ldi	r21, 0x42	; 66
    1452:	c3 01       	movw	r24, r6
    1454:	b2 01       	movw	r22, r4
    1456:	0e 94 44 4f 	call	0x9e88	; 0x9e88 <__subsf3>
    145a:	0e 94 0c 52 	call	0xa418	; 0xa418 <sqrt>
    145e:	9b 01       	movw	r18, r22
    1460:	ac 01       	movw	r20, r24
    1462:	c5 01       	movw	r24, r10
    1464:	b4 01       	movw	r22, r8
    1466:	0e 94 a5 51 	call	0xa34a	; 0xa34a <__mulsf3>
    146a:	9b 01       	movw	r18, r22
    146c:	ac 01       	movw	r20, r24
    146e:	c7 01       	movw	r24, r14
    1470:	b6 01       	movw	r22, r12
    1472:	0e 94 45 4f 	call	0x9e8a	; 0x9e8a <__addsf3>
    1476:	0e 94 0c 52 	call	0xa418	; 0xa418 <sqrt>
    147a:	2b 01       	movw	r4, r22
    147c:	3c 01       	movw	r6, r24
    147e:	20 e0       	ldi	r18, 0x00	; 0
    1480:	38 e4       	ldi	r19, 0x48	; 72
    1482:	4c e8       	ldi	r20, 0x8C	; 140
    1484:	55 e4       	ldi	r21, 0x45	; 69
    1486:	69 85       	ldd	r22, Y+9	; 0x09
    1488:	7a 85       	ldd	r23, Y+10	; 0x0a
    148a:	8b 85       	ldd	r24, Y+11	; 0x0b
    148c:	9c 85       	ldd	r25, Y+12	; 0x0c
    148e:	0e 94 45 4f 	call	0x9e8a	; 0x9e8a <__addsf3>
    1492:	20 e0       	ldi	r18, 0x00	; 0
    1494:	38 e0       	ldi	r19, 0x08	; 8
    1496:	44 e8       	ldi	r20, 0x84	; 132
    1498:	56 e4       	ldi	r21, 0x46	; 70
    149a:	0e 94 44 4f 	call	0x9e88	; 0x9e88 <__subsf3>
    149e:	4b 01       	movw	r8, r22
    14a0:	5c 01       	movw	r10, r24
    14a2:	a3 01       	movw	r20, r6
    14a4:	92 01       	movw	r18, r4
    14a6:	c3 01       	movw	r24, r6
    14a8:	b2 01       	movw	r22, r4
    14aa:	0e 94 45 4f 	call	0x9e8a	; 0x9e8a <__addsf3>
    14ae:	20 e0       	ldi	r18, 0x00	; 0
    14b0:	30 e0       	ldi	r19, 0x00	; 0
    14b2:	46 e8       	ldi	r20, 0x86	; 134
    14b4:	52 e4       	ldi	r21, 0x42	; 66
    14b6:	0e 94 a5 51 	call	0xa34a	; 0xa34a <__mulsf3>
    14ba:	9b 01       	movw	r18, r22
    14bc:	ac 01       	movw	r20, r24
    14be:	c5 01       	movw	r24, r10
    14c0:	b4 01       	movw	r22, r8
    14c2:	0e 94 0f 50 	call	0xa01e	; 0xa01e <__divsf3>
    14c6:	0e 94 36 4f 	call	0x9e6c	; 0x9e6c <acos>
    14ca:	2b 01       	movw	r4, r22
    14cc:	3c 01       	movw	r6, r24
    14ce:	a7 01       	movw	r20, r14
    14d0:	96 01       	movw	r18, r12
    14d2:	60 e0       	ldi	r22, 0x00	; 0
    14d4:	7a e1       	ldi	r23, 0x1A	; 26
    14d6:	87 ea       	ldi	r24, 0xA7	; 167
    14d8:	96 e4       	ldi	r25, 0x46	; 70
    14da:	0e 94 44 4f 	call	0x9e88	; 0x9e88 <__subsf3>
    14de:	2d 81       	ldd	r18, Y+5	; 0x05
    14e0:	3e 81       	ldd	r19, Y+6	; 0x06
    14e2:	4f 81       	ldd	r20, Y+7	; 0x07
    14e4:	58 85       	ldd	r21, Y+8	; 0x08
    14e6:	0e 94 44 4f 	call	0x9e88	; 0x9e88 <__subsf3>
    14ea:	20 e0       	ldi	r18, 0x00	; 0
    14ec:	38 e1       	ldi	r19, 0x18	; 24
    14ee:	48 e8       	ldi	r20, 0x88	; 136
    14f0:	56 e4       	ldi	r21, 0x46	; 70
    14f2:	0e 94 0f 50 	call	0xa01e	; 0xa01e <__divsf3>
    14f6:	0e 94 36 4f 	call	0x9e6c	; 0x9e6c <acos>
    14fa:	4b 01       	movw	r8, r22
    14fc:	5c 01       	movw	r10, r24
    14fe:	68 01       	movw	r12, r16
    1500:	ee 24       	eor	r14, r14
    1502:	d7 fc       	sbrc	r13, 7
    1504:	e0 94       	com	r14
    1506:	fe 2c       	mov	r15, r14
    1508:	20 e0       	ldi	r18, 0x00	; 0
    150a:	30 e0       	ldi	r19, 0x00	; 0
    150c:	44 e3       	ldi	r20, 0x34	; 52
    150e:	53 e4       	ldi	r21, 0x43	; 67
    1510:	6d 85       	ldd	r22, Y+13	; 0x0d
    1512:	7e 85       	ldd	r23, Y+14	; 0x0e
    1514:	8f 85       	ldd	r24, Y+15	; 0x0f
    1516:	98 89       	ldd	r25, Y+16	; 0x10
    1518:	0e 94 a5 51 	call	0xa34a	; 0xa34a <__mulsf3>
    151c:	28 ed       	ldi	r18, 0xD8	; 216
    151e:	3f e0       	ldi	r19, 0x0F	; 15
    1520:	49 e4       	ldi	r20, 0x49	; 73
    1522:	50 e4       	ldi	r21, 0x40	; 64
    1524:	0e 94 0f 50 	call	0xa01e	; 0xa01e <__divsf3>
    1528:	0e 94 77 50 	call	0xa0ee	; 0xa0ee <__fixsfsi>
    152c:	ab 01       	movw	r20, r22
    152e:	bc 01       	movw	r22, r24
    1530:	47 59       	subi	r20, 0x97	; 151
    1532:	5f 4f       	sbci	r21, 0xFF	; 255
    1534:	6f 4f       	sbci	r22, 0xFF	; 255
    1536:	7f 4f       	sbci	r23, 0xFF	; 255
    1538:	97 01       	movw	r18, r14
    153a:	86 01       	movw	r16, r12
    153c:	80 91 40 01 	lds	r24, 0x0140
    1540:	90 91 41 01 	lds	r25, 0x0141
    1544:	a7 de       	rcall	.-690    	; 0x1294 <MoveDynamixel>
    1546:	a3 01       	movw	r20, r6
    1548:	92 01       	movw	r18, r4
    154a:	69 81       	ldd	r22, Y+1	; 0x01
    154c:	7a 81       	ldd	r23, Y+2	; 0x02
    154e:	8b 81       	ldd	r24, Y+3	; 0x03
    1550:	9c 81       	ldd	r25, Y+4	; 0x04
    1552:	0e 94 45 4f 	call	0x9e8a	; 0x9e8a <__addsf3>
    1556:	24 ee       	ldi	r18, 0xE4	; 228
    1558:	3e e2       	ldi	r19, 0x2E	; 46
    155a:	45 e6       	ldi	r20, 0x65	; 101
    155c:	52 e4       	ldi	r21, 0x42	; 66
    155e:	0e 94 a5 51 	call	0xa34a	; 0xa34a <__mulsf3>
    1562:	0e 94 77 50 	call	0xa0ee	; 0xa0ee <__fixsfsi>
    1566:	ab 01       	movw	r20, r22
    1568:	bc 01       	movw	r22, r24
    156a:	45 5b       	subi	r20, 0xB5	; 181
    156c:	5f 4f       	sbci	r21, 0xFF	; 255
    156e:	6f 4f       	sbci	r22, 0xFF	; 255
    1570:	7f 4f       	sbci	r23, 0xFF	; 255
    1572:	97 01       	movw	r18, r14
    1574:	86 01       	movw	r16, r12
    1576:	80 91 42 01 	lds	r24, 0x0142
    157a:	90 91 43 01 	lds	r25, 0x0143
    157e:	8a de       	rcall	.-748    	; 0x1294 <MoveDynamixel>
    1580:	20 e0       	ldi	r18, 0x00	; 0
    1582:	30 e0       	ldi	r19, 0x00	; 0
    1584:	44 e3       	ldi	r20, 0x34	; 52
    1586:	53 e4       	ldi	r21, 0x43	; 67
    1588:	c5 01       	movw	r24, r10
    158a:	b4 01       	movw	r22, r8
    158c:	0e 94 a5 51 	call	0xa34a	; 0xa34a <__mulsf3>
    1590:	28 ed       	ldi	r18, 0xD8	; 216
    1592:	3f e0       	ldi	r19, 0x0F	; 15
    1594:	49 e4       	ldi	r20, 0x49	; 73
    1596:	50 e4       	ldi	r21, 0x40	; 64
    1598:	0e 94 0f 50 	call	0xa01e	; 0xa01e <__divsf3>
    159c:	0e 94 77 50 	call	0xa0ee	; 0xa0ee <__fixsfsi>
    15a0:	ab 01       	movw	r20, r22
    15a2:	bc 01       	movw	r22, r24
    15a4:	4f 5f       	subi	r20, 0xFF	; 255
    15a6:	5f 4f       	sbci	r21, 0xFF	; 255
    15a8:	6f 4f       	sbci	r22, 0xFF	; 255
    15aa:	7f 4f       	sbci	r23, 0xFF	; 255
    15ac:	97 01       	movw	r18, r14
    15ae:	86 01       	movw	r16, r12
    15b0:	80 91 44 01 	lds	r24, 0x0144
    15b4:	90 91 45 01 	lds	r25, 0x0145
    15b8:	6d de       	rcall	.-806    	; 0x1294 <MoveDynamixel>
    15ba:	60 96       	adiw	r28, 0x10	; 16
    15bc:	0f b6       	in	r0, 0x3f	; 63
    15be:	f8 94       	cli
    15c0:	de bf       	out	0x3e, r29	; 62
    15c2:	0f be       	out	0x3f, r0	; 63
    15c4:	cd bf       	out	0x3d, r28	; 61
    15c6:	df 91       	pop	r29
    15c8:	cf 91       	pop	r28
    15ca:	1f 91       	pop	r17
    15cc:	0f 91       	pop	r16
    15ce:	ff 90       	pop	r15
    15d0:	ef 90       	pop	r14
    15d2:	df 90       	pop	r13
    15d4:	cf 90       	pop	r12
    15d6:	bf 90       	pop	r11
    15d8:	af 90       	pop	r10
    15da:	9f 90       	pop	r9
    15dc:	8f 90       	pop	r8
    15de:	7f 90       	pop	r7
    15e0:	6f 90       	pop	r6
    15e2:	5f 90       	pop	r5
    15e4:	4f 90       	pop	r4
    15e6:	08 95       	ret

000015e8 <MoveFrontRightLeg>:
    15e8:	4f 92       	push	r4
    15ea:	5f 92       	push	r5
    15ec:	6f 92       	push	r6
    15ee:	7f 92       	push	r7
    15f0:	8f 92       	push	r8
    15f2:	9f 92       	push	r9
    15f4:	af 92       	push	r10
    15f6:	bf 92       	push	r11
    15f8:	cf 92       	push	r12
    15fa:	df 92       	push	r13
    15fc:	ef 92       	push	r14
    15fe:	ff 92       	push	r15
    1600:	0f 93       	push	r16
    1602:	1f 93       	push	r17
    1604:	cf 93       	push	r28
    1606:	df 93       	push	r29
    1608:	cd b7       	in	r28, 0x3d	; 61
    160a:	de b7       	in	r29, 0x3e	; 62
    160c:	60 97       	sbiw	r28, 0x10	; 16
    160e:	0f b6       	in	r0, 0x3f	; 63
    1610:	f8 94       	cli
    1612:	de bf       	out	0x3e, r29	; 62
    1614:	0f be       	out	0x3f, r0	; 63
    1616:	cd bf       	out	0x3d, r28	; 61
    1618:	2b 01       	movw	r4, r22
    161a:	3c 01       	movw	r6, r24
    161c:	49 01       	movw	r8, r18
    161e:	5a 01       	movw	r10, r20
    1620:	e9 82       	std	Y+1, r14	; 0x01
    1622:	fa 82       	std	Y+2, r15	; 0x02
    1624:	0b 83       	std	Y+3, r16	; 0x03
    1626:	1c 83       	std	Y+4, r17	; 0x04
    1628:	86 01       	movw	r16, r12
    162a:	90 58       	subi	r25, 0x80	; 128
    162c:	0e 94 b8 4f 	call	0x9f70	; 0x9f70 <atan2>
    1630:	6d 87       	std	Y+13, r22	; 0x0d
    1632:	7e 87       	std	Y+14, r23	; 0x0e
    1634:	8f 87       	std	Y+15, r24	; 0x0f
    1636:	98 8b       	std	Y+16, r25	; 0x10
    1638:	29 81       	ldd	r18, Y+1	; 0x01
    163a:	3a 81       	ldd	r19, Y+2	; 0x02
    163c:	4b 81       	ldd	r20, Y+3	; 0x03
    163e:	5c 81       	ldd	r21, Y+4	; 0x04
    1640:	ca 01       	movw	r24, r20
    1642:	b9 01       	movw	r22, r18
    1644:	0e 94 a5 51 	call	0xa34a	; 0xa34a <__mulsf3>
    1648:	6b 01       	movw	r12, r22
    164a:	7c 01       	movw	r14, r24
    164c:	a3 01       	movw	r20, r6
    164e:	92 01       	movw	r18, r4
    1650:	c3 01       	movw	r24, r6
    1652:	b2 01       	movw	r22, r4
    1654:	0e 94 a5 51 	call	0xa34a	; 0xa34a <__mulsf3>
    1658:	2b 01       	movw	r4, r22
    165a:	3c 01       	movw	r6, r24
    165c:	a5 01       	movw	r20, r10
    165e:	94 01       	movw	r18, r8
    1660:	c5 01       	movw	r24, r10
    1662:	b4 01       	movw	r22, r8
    1664:	0e 94 a5 51 	call	0xa34a	; 0xa34a <__mulsf3>
    1668:	9b 01       	movw	r18, r22
    166a:	ac 01       	movw	r20, r24
    166c:	c3 01       	movw	r24, r6
    166e:	b2 01       	movw	r22, r4
    1670:	0e 94 45 4f 	call	0x9e8a	; 0x9e8a <__addsf3>
    1674:	2b 01       	movw	r4, r22
    1676:	3c 01       	movw	r6, r24
    1678:	0e 94 0c 52 	call	0xa418	; 0xa418 <sqrt>
    167c:	20 e0       	ldi	r18, 0x00	; 0
    167e:	30 e0       	ldi	r19, 0x00	; 0
    1680:	48 e4       	ldi	r20, 0x48	; 72
    1682:	52 e4       	ldi	r21, 0x42	; 66
    1684:	0e 94 44 4f 	call	0x9e88	; 0x9e88 <__subsf3>
    1688:	4b 01       	movw	r8, r22
    168a:	5c 01       	movw	r10, r24
    168c:	9b 01       	movw	r18, r22
    168e:	ac 01       	movw	r20, r24
    1690:	0e 94 a5 51 	call	0xa34a	; 0xa34a <__mulsf3>
    1694:	6d 83       	std	Y+5, r22	; 0x05
    1696:	7e 83       	std	Y+6, r23	; 0x06
    1698:	8f 83       	std	Y+7, r24	; 0x07
    169a:	98 87       	std	Y+8, r25	; 0x08
    169c:	9b 01       	movw	r18, r22
    169e:	ac 01       	movw	r20, r24
    16a0:	c7 01       	movw	r24, r14
    16a2:	b6 01       	movw	r22, r12
    16a4:	0e 94 45 4f 	call	0x9e8a	; 0x9e8a <__addsf3>
    16a8:	69 87       	std	Y+9, r22	; 0x09
    16aa:	7a 87       	std	Y+10, r23	; 0x0a
    16ac:	8b 87       	std	Y+11, r24	; 0x0b
    16ae:	9c 87       	std	Y+12, r25	; 0x0c
    16b0:	0e 94 0c 52 	call	0xa418	; 0xa418 <sqrt>
    16b4:	9b 01       	movw	r18, r22
    16b6:	ac 01       	movw	r20, r24
    16b8:	69 81       	ldd	r22, Y+1	; 0x01
    16ba:	7a 81       	ldd	r23, Y+2	; 0x02
    16bc:	8b 81       	ldd	r24, Y+3	; 0x03
    16be:	9c 81       	ldd	r25, Y+4	; 0x04
    16c0:	90 58       	subi	r25, 0x80	; 128
    16c2:	0e 94 0f 50 	call	0xa01e	; 0xa01e <__divsf3>
    16c6:	0e 94 36 4f 	call	0x9e6c	; 0x9e6c <acos>
    16ca:	69 83       	std	Y+1, r22	; 0x01
    16cc:	7a 83       	std	Y+2, r23	; 0x02
    16ce:	8b 83       	std	Y+3, r24	; 0x03
    16d0:	9c 83       	std	Y+4, r25	; 0x04
    16d2:	20 e0       	ldi	r18, 0x00	; 0
    16d4:	30 e0       	ldi	r19, 0x00	; 0
    16d6:	48 e4       	ldi	r20, 0x48	; 72
    16d8:	52 e4       	ldi	r21, 0x42	; 66
    16da:	c3 01       	movw	r24, r6
    16dc:	b2 01       	movw	r22, r4
    16de:	0e 94 44 4f 	call	0x9e88	; 0x9e88 <__subsf3>
    16e2:	0e 94 0c 52 	call	0xa418	; 0xa418 <sqrt>
    16e6:	9b 01       	movw	r18, r22
    16e8:	ac 01       	movw	r20, r24
    16ea:	c5 01       	movw	r24, r10
    16ec:	b4 01       	movw	r22, r8
    16ee:	0e 94 a5 51 	call	0xa34a	; 0xa34a <__mulsf3>
    16f2:	9b 01       	movw	r18, r22
    16f4:	ac 01       	movw	r20, r24
    16f6:	c7 01       	movw	r24, r14
    16f8:	b6 01       	movw	r22, r12
    16fa:	0e 94 45 4f 	call	0x9e8a	; 0x9e8a <__addsf3>
    16fe:	0e 94 0c 52 	call	0xa418	; 0xa418 <sqrt>
    1702:	2b 01       	movw	r4, r22
    1704:	3c 01       	movw	r6, r24
    1706:	20 e0       	ldi	r18, 0x00	; 0
    1708:	38 e4       	ldi	r19, 0x48	; 72
    170a:	4c e8       	ldi	r20, 0x8C	; 140
    170c:	55 e4       	ldi	r21, 0x45	; 69
    170e:	69 85       	ldd	r22, Y+9	; 0x09
    1710:	7a 85       	ldd	r23, Y+10	; 0x0a
    1712:	8b 85       	ldd	r24, Y+11	; 0x0b
    1714:	9c 85       	ldd	r25, Y+12	; 0x0c
    1716:	0e 94 45 4f 	call	0x9e8a	; 0x9e8a <__addsf3>
    171a:	20 e0       	ldi	r18, 0x00	; 0
    171c:	38 e0       	ldi	r19, 0x08	; 8
    171e:	44 e8       	ldi	r20, 0x84	; 132
    1720:	56 e4       	ldi	r21, 0x46	; 70
    1722:	0e 94 44 4f 	call	0x9e88	; 0x9e88 <__subsf3>
    1726:	4b 01       	movw	r8, r22
    1728:	5c 01       	movw	r10, r24
    172a:	a3 01       	movw	r20, r6
    172c:	92 01       	movw	r18, r4
    172e:	c3 01       	movw	r24, r6
    1730:	b2 01       	movw	r22, r4
    1732:	0e 94 45 4f 	call	0x9e8a	; 0x9e8a <__addsf3>
    1736:	20 e0       	ldi	r18, 0x00	; 0
    1738:	30 e0       	ldi	r19, 0x00	; 0
    173a:	46 e8       	ldi	r20, 0x86	; 134
    173c:	52 e4       	ldi	r21, 0x42	; 66
    173e:	0e 94 a5 51 	call	0xa34a	; 0xa34a <__mulsf3>
    1742:	9b 01       	movw	r18, r22
    1744:	ac 01       	movw	r20, r24
    1746:	c5 01       	movw	r24, r10
    1748:	b4 01       	movw	r22, r8
    174a:	0e 94 0f 50 	call	0xa01e	; 0xa01e <__divsf3>
    174e:	0e 94 36 4f 	call	0x9e6c	; 0x9e6c <acos>
    1752:	2b 01       	movw	r4, r22
    1754:	3c 01       	movw	r6, r24
    1756:	a7 01       	movw	r20, r14
    1758:	96 01       	movw	r18, r12
    175a:	60 e0       	ldi	r22, 0x00	; 0
    175c:	7a e1       	ldi	r23, 0x1A	; 26
    175e:	87 ea       	ldi	r24, 0xA7	; 167
    1760:	96 e4       	ldi	r25, 0x46	; 70
    1762:	0e 94 44 4f 	call	0x9e88	; 0x9e88 <__subsf3>
    1766:	2d 81       	ldd	r18, Y+5	; 0x05
    1768:	3e 81       	ldd	r19, Y+6	; 0x06
    176a:	4f 81       	ldd	r20, Y+7	; 0x07
    176c:	58 85       	ldd	r21, Y+8	; 0x08
    176e:	0e 94 44 4f 	call	0x9e88	; 0x9e88 <__subsf3>
    1772:	20 e0       	ldi	r18, 0x00	; 0
    1774:	38 e1       	ldi	r19, 0x18	; 24
    1776:	48 e8       	ldi	r20, 0x88	; 136
    1778:	56 e4       	ldi	r21, 0x46	; 70
    177a:	0e 94 0f 50 	call	0xa01e	; 0xa01e <__divsf3>
    177e:	0e 94 36 4f 	call	0x9e6c	; 0x9e6c <acos>
    1782:	4b 01       	movw	r8, r22
    1784:	5c 01       	movw	r10, r24
    1786:	68 01       	movw	r12, r16
    1788:	ee 24       	eor	r14, r14
    178a:	d7 fc       	sbrc	r13, 7
    178c:	e0 94       	com	r14
    178e:	fe 2c       	mov	r15, r14
    1790:	20 e0       	ldi	r18, 0x00	; 0
    1792:	30 e0       	ldi	r19, 0x00	; 0
    1794:	44 e3       	ldi	r20, 0x34	; 52
    1796:	53 e4       	ldi	r21, 0x43	; 67
    1798:	6d 85       	ldd	r22, Y+13	; 0x0d
    179a:	7e 85       	ldd	r23, Y+14	; 0x0e
    179c:	8f 85       	ldd	r24, Y+15	; 0x0f
    179e:	98 89       	ldd	r25, Y+16	; 0x10
    17a0:	0e 94 a5 51 	call	0xa34a	; 0xa34a <__mulsf3>
    17a4:	28 ed       	ldi	r18, 0xD8	; 216
    17a6:	3f e0       	ldi	r19, 0x0F	; 15
    17a8:	49 e4       	ldi	r20, 0x49	; 73
    17aa:	50 e4       	ldi	r21, 0x40	; 64
    17ac:	0e 94 0f 50 	call	0xa01e	; 0xa01e <__divsf3>
    17b0:	0e 94 77 50 	call	0xa0ee	; 0xa0ee <__fixsfsi>
    17b4:	ab 01       	movw	r20, r22
    17b6:	bc 01       	movw	r22, r24
    17b8:	4f 53       	subi	r20, 0x3F	; 63
    17ba:	5f 4f       	sbci	r21, 0xFF	; 255
    17bc:	6f 4f       	sbci	r22, 0xFF	; 255
    17be:	7f 4f       	sbci	r23, 0xFF	; 255
    17c0:	97 01       	movw	r18, r14
    17c2:	86 01       	movw	r16, r12
    17c4:	80 91 38 01 	lds	r24, 0x0138
    17c8:	90 91 39 01 	lds	r25, 0x0139
    17cc:	63 dd       	rcall	.-1338   	; 0x1294 <MoveDynamixel>
    17ce:	a3 01       	movw	r20, r6
    17d0:	92 01       	movw	r18, r4
    17d2:	69 81       	ldd	r22, Y+1	; 0x01
    17d4:	7a 81       	ldd	r23, Y+2	; 0x02
    17d6:	8b 81       	ldd	r24, Y+3	; 0x03
    17d8:	9c 81       	ldd	r25, Y+4	; 0x04
    17da:	0e 94 45 4f 	call	0x9e8a	; 0x9e8a <__addsf3>
    17de:	24 ee       	ldi	r18, 0xE4	; 228
    17e0:	3e e2       	ldi	r19, 0x2E	; 46
    17e2:	45 e6       	ldi	r20, 0x65	; 101
    17e4:	52 e4       	ldi	r21, 0x42	; 66
    17e6:	0e 94 a5 51 	call	0xa34a	; 0xa34a <__mulsf3>
    17ea:	0e 94 77 50 	call	0xa0ee	; 0xa0ee <__fixsfsi>
    17ee:	ab 01       	movw	r20, r22
    17f0:	bc 01       	movw	r22, r24
    17f2:	45 5b       	subi	r20, 0xB5	; 181
    17f4:	5f 4f       	sbci	r21, 0xFF	; 255
    17f6:	6f 4f       	sbci	r22, 0xFF	; 255
    17f8:	7f 4f       	sbci	r23, 0xFF	; 255
    17fa:	97 01       	movw	r18, r14
    17fc:	86 01       	movw	r16, r12
    17fe:	80 91 3a 01 	lds	r24, 0x013A
    1802:	90 91 3b 01 	lds	r25, 0x013B
    1806:	46 dd       	rcall	.-1396   	; 0x1294 <MoveDynamixel>
    1808:	20 e0       	ldi	r18, 0x00	; 0
    180a:	30 e0       	ldi	r19, 0x00	; 0
    180c:	44 e3       	ldi	r20, 0x34	; 52
    180e:	53 e4       	ldi	r21, 0x43	; 67
    1810:	c5 01       	movw	r24, r10
    1812:	b4 01       	movw	r22, r8
    1814:	0e 94 a5 51 	call	0xa34a	; 0xa34a <__mulsf3>
    1818:	28 ed       	ldi	r18, 0xD8	; 216
    181a:	3f e0       	ldi	r19, 0x0F	; 15
    181c:	49 e4       	ldi	r20, 0x49	; 73
    181e:	50 e4       	ldi	r21, 0x40	; 64
    1820:	0e 94 0f 50 	call	0xa01e	; 0xa01e <__divsf3>
    1824:	0e 94 77 50 	call	0xa0ee	; 0xa0ee <__fixsfsi>
    1828:	ab 01       	movw	r20, r22
    182a:	bc 01       	movw	r22, r24
    182c:	4d 5f       	subi	r20, 0xFD	; 253
    182e:	5f 4f       	sbci	r21, 0xFF	; 255
    1830:	6f 4f       	sbci	r22, 0xFF	; 255
    1832:	7f 4f       	sbci	r23, 0xFF	; 255
    1834:	97 01       	movw	r18, r14
    1836:	86 01       	movw	r16, r12
    1838:	80 91 3c 01 	lds	r24, 0x013C
    183c:	90 91 3d 01 	lds	r25, 0x013D
    1840:	29 dd       	rcall	.-1454   	; 0x1294 <MoveDynamixel>
    1842:	60 96       	adiw	r28, 0x10	; 16
    1844:	0f b6       	in	r0, 0x3f	; 63
    1846:	f8 94       	cli
    1848:	de bf       	out	0x3e, r29	; 62
    184a:	0f be       	out	0x3f, r0	; 63
    184c:	cd bf       	out	0x3d, r28	; 61
    184e:	df 91       	pop	r29
    1850:	cf 91       	pop	r28
    1852:	1f 91       	pop	r17
    1854:	0f 91       	pop	r16
    1856:	ff 90       	pop	r15
    1858:	ef 90       	pop	r14
    185a:	df 90       	pop	r13
    185c:	cf 90       	pop	r12
    185e:	bf 90       	pop	r11
    1860:	af 90       	pop	r10
    1862:	9f 90       	pop	r9
    1864:	8f 90       	pop	r8
    1866:	7f 90       	pop	r7
    1868:	6f 90       	pop	r6
    186a:	5f 90       	pop	r5
    186c:	4f 90       	pop	r4
    186e:	08 95       	ret

00001870 <MoveRearLeftLeg>:
    1870:	4f 92       	push	r4
    1872:	5f 92       	push	r5
    1874:	6f 92       	push	r6
    1876:	7f 92       	push	r7
    1878:	8f 92       	push	r8
    187a:	9f 92       	push	r9
    187c:	af 92       	push	r10
    187e:	bf 92       	push	r11
    1880:	cf 92       	push	r12
    1882:	df 92       	push	r13
    1884:	ef 92       	push	r14
    1886:	ff 92       	push	r15
    1888:	0f 93       	push	r16
    188a:	1f 93       	push	r17
    188c:	cf 93       	push	r28
    188e:	df 93       	push	r29
    1890:	cd b7       	in	r28, 0x3d	; 61
    1892:	de b7       	in	r29, 0x3e	; 62
    1894:	60 97       	sbiw	r28, 0x10	; 16
    1896:	0f b6       	in	r0, 0x3f	; 63
    1898:	f8 94       	cli
    189a:	de bf       	out	0x3e, r29	; 62
    189c:	0f be       	out	0x3f, r0	; 63
    189e:	cd bf       	out	0x3d, r28	; 61
    18a0:	2b 01       	movw	r4, r22
    18a2:	3c 01       	movw	r6, r24
    18a4:	49 01       	movw	r8, r18
    18a6:	5a 01       	movw	r10, r20
    18a8:	e9 82       	std	Y+1, r14	; 0x01
    18aa:	fa 82       	std	Y+2, r15	; 0x02
    18ac:	0b 83       	std	Y+3, r16	; 0x03
    18ae:	1c 83       	std	Y+4, r17	; 0x04
    18b0:	86 01       	movw	r16, r12
    18b2:	50 58       	subi	r21, 0x80	; 128
    18b4:	0e 94 b8 4f 	call	0x9f70	; 0x9f70 <atan2>
    18b8:	6d 87       	std	Y+13, r22	; 0x0d
    18ba:	7e 87       	std	Y+14, r23	; 0x0e
    18bc:	8f 87       	std	Y+15, r24	; 0x0f
    18be:	98 8b       	std	Y+16, r25	; 0x10
    18c0:	29 81       	ldd	r18, Y+1	; 0x01
    18c2:	3a 81       	ldd	r19, Y+2	; 0x02
    18c4:	4b 81       	ldd	r20, Y+3	; 0x03
    18c6:	5c 81       	ldd	r21, Y+4	; 0x04
    18c8:	ca 01       	movw	r24, r20
    18ca:	b9 01       	movw	r22, r18
    18cc:	0e 94 a5 51 	call	0xa34a	; 0xa34a <__mulsf3>
    18d0:	6b 01       	movw	r12, r22
    18d2:	7c 01       	movw	r14, r24
    18d4:	a3 01       	movw	r20, r6
    18d6:	92 01       	movw	r18, r4
    18d8:	c3 01       	movw	r24, r6
    18da:	b2 01       	movw	r22, r4
    18dc:	0e 94 a5 51 	call	0xa34a	; 0xa34a <__mulsf3>
    18e0:	2b 01       	movw	r4, r22
    18e2:	3c 01       	movw	r6, r24
    18e4:	a5 01       	movw	r20, r10
    18e6:	94 01       	movw	r18, r8
    18e8:	c5 01       	movw	r24, r10
    18ea:	b4 01       	movw	r22, r8
    18ec:	0e 94 a5 51 	call	0xa34a	; 0xa34a <__mulsf3>
    18f0:	9b 01       	movw	r18, r22
    18f2:	ac 01       	movw	r20, r24
    18f4:	c3 01       	movw	r24, r6
    18f6:	b2 01       	movw	r22, r4
    18f8:	0e 94 45 4f 	call	0x9e8a	; 0x9e8a <__addsf3>
    18fc:	2b 01       	movw	r4, r22
    18fe:	3c 01       	movw	r6, r24
    1900:	0e 94 0c 52 	call	0xa418	; 0xa418 <sqrt>
    1904:	20 e0       	ldi	r18, 0x00	; 0
    1906:	30 e0       	ldi	r19, 0x00	; 0
    1908:	48 e4       	ldi	r20, 0x48	; 72
    190a:	52 e4       	ldi	r21, 0x42	; 66
    190c:	0e 94 44 4f 	call	0x9e88	; 0x9e88 <__subsf3>
    1910:	4b 01       	movw	r8, r22
    1912:	5c 01       	movw	r10, r24
    1914:	9b 01       	movw	r18, r22
    1916:	ac 01       	movw	r20, r24
    1918:	0e 94 a5 51 	call	0xa34a	; 0xa34a <__mulsf3>
    191c:	6d 83       	std	Y+5, r22	; 0x05
    191e:	7e 83       	std	Y+6, r23	; 0x06
    1920:	8f 83       	std	Y+7, r24	; 0x07
    1922:	98 87       	std	Y+8, r25	; 0x08
    1924:	9b 01       	movw	r18, r22
    1926:	ac 01       	movw	r20, r24
    1928:	c7 01       	movw	r24, r14
    192a:	b6 01       	movw	r22, r12
    192c:	0e 94 45 4f 	call	0x9e8a	; 0x9e8a <__addsf3>
    1930:	69 87       	std	Y+9, r22	; 0x09
    1932:	7a 87       	std	Y+10, r23	; 0x0a
    1934:	8b 87       	std	Y+11, r24	; 0x0b
    1936:	9c 87       	std	Y+12, r25	; 0x0c
    1938:	0e 94 0c 52 	call	0xa418	; 0xa418 <sqrt>
    193c:	9b 01       	movw	r18, r22
    193e:	ac 01       	movw	r20, r24
    1940:	69 81       	ldd	r22, Y+1	; 0x01
    1942:	7a 81       	ldd	r23, Y+2	; 0x02
    1944:	8b 81       	ldd	r24, Y+3	; 0x03
    1946:	9c 81       	ldd	r25, Y+4	; 0x04
    1948:	90 58       	subi	r25, 0x80	; 128
    194a:	0e 94 0f 50 	call	0xa01e	; 0xa01e <__divsf3>
    194e:	0e 94 36 4f 	call	0x9e6c	; 0x9e6c <acos>
    1952:	69 83       	std	Y+1, r22	; 0x01
    1954:	7a 83       	std	Y+2, r23	; 0x02
    1956:	8b 83       	std	Y+3, r24	; 0x03
    1958:	9c 83       	std	Y+4, r25	; 0x04
    195a:	20 e0       	ldi	r18, 0x00	; 0
    195c:	30 e0       	ldi	r19, 0x00	; 0
    195e:	48 e4       	ldi	r20, 0x48	; 72
    1960:	52 e4       	ldi	r21, 0x42	; 66
    1962:	c3 01       	movw	r24, r6
    1964:	b2 01       	movw	r22, r4
    1966:	0e 94 44 4f 	call	0x9e88	; 0x9e88 <__subsf3>
    196a:	0e 94 0c 52 	call	0xa418	; 0xa418 <sqrt>
    196e:	9b 01       	movw	r18, r22
    1970:	ac 01       	movw	r20, r24
    1972:	c5 01       	movw	r24, r10
    1974:	b4 01       	movw	r22, r8
    1976:	0e 94 a5 51 	call	0xa34a	; 0xa34a <__mulsf3>
    197a:	9b 01       	movw	r18, r22
    197c:	ac 01       	movw	r20, r24
    197e:	c7 01       	movw	r24, r14
    1980:	b6 01       	movw	r22, r12
    1982:	0e 94 45 4f 	call	0x9e8a	; 0x9e8a <__addsf3>
    1986:	0e 94 0c 52 	call	0xa418	; 0xa418 <sqrt>
    198a:	2b 01       	movw	r4, r22
    198c:	3c 01       	movw	r6, r24
    198e:	20 e0       	ldi	r18, 0x00	; 0
    1990:	38 e4       	ldi	r19, 0x48	; 72
    1992:	4c e8       	ldi	r20, 0x8C	; 140
    1994:	55 e4       	ldi	r21, 0x45	; 69
    1996:	69 85       	ldd	r22, Y+9	; 0x09
    1998:	7a 85       	ldd	r23, Y+10	; 0x0a
    199a:	8b 85       	ldd	r24, Y+11	; 0x0b
    199c:	9c 85       	ldd	r25, Y+12	; 0x0c
    199e:	0e 94 45 4f 	call	0x9e8a	; 0x9e8a <__addsf3>
    19a2:	20 e0       	ldi	r18, 0x00	; 0
    19a4:	38 e0       	ldi	r19, 0x08	; 8
    19a6:	44 e8       	ldi	r20, 0x84	; 132
    19a8:	56 e4       	ldi	r21, 0x46	; 70
    19aa:	0e 94 44 4f 	call	0x9e88	; 0x9e88 <__subsf3>
    19ae:	4b 01       	movw	r8, r22
    19b0:	5c 01       	movw	r10, r24
    19b2:	a3 01       	movw	r20, r6
    19b4:	92 01       	movw	r18, r4
    19b6:	c3 01       	movw	r24, r6
    19b8:	b2 01       	movw	r22, r4
    19ba:	0e 94 45 4f 	call	0x9e8a	; 0x9e8a <__addsf3>
    19be:	20 e0       	ldi	r18, 0x00	; 0
    19c0:	30 e0       	ldi	r19, 0x00	; 0
    19c2:	46 e8       	ldi	r20, 0x86	; 134
    19c4:	52 e4       	ldi	r21, 0x42	; 66
    19c6:	0e 94 a5 51 	call	0xa34a	; 0xa34a <__mulsf3>
    19ca:	9b 01       	movw	r18, r22
    19cc:	ac 01       	movw	r20, r24
    19ce:	c5 01       	movw	r24, r10
    19d0:	b4 01       	movw	r22, r8
    19d2:	0e 94 0f 50 	call	0xa01e	; 0xa01e <__divsf3>
    19d6:	0e 94 36 4f 	call	0x9e6c	; 0x9e6c <acos>
    19da:	2b 01       	movw	r4, r22
    19dc:	3c 01       	movw	r6, r24
    19de:	a7 01       	movw	r20, r14
    19e0:	96 01       	movw	r18, r12
    19e2:	60 e0       	ldi	r22, 0x00	; 0
    19e4:	7a e1       	ldi	r23, 0x1A	; 26
    19e6:	87 ea       	ldi	r24, 0xA7	; 167
    19e8:	96 e4       	ldi	r25, 0x46	; 70
    19ea:	0e 94 44 4f 	call	0x9e88	; 0x9e88 <__subsf3>
    19ee:	2d 81       	ldd	r18, Y+5	; 0x05
    19f0:	3e 81       	ldd	r19, Y+6	; 0x06
    19f2:	4f 81       	ldd	r20, Y+7	; 0x07
    19f4:	58 85       	ldd	r21, Y+8	; 0x08
    19f6:	0e 94 44 4f 	call	0x9e88	; 0x9e88 <__subsf3>
    19fa:	20 e0       	ldi	r18, 0x00	; 0
    19fc:	38 e1       	ldi	r19, 0x18	; 24
    19fe:	48 e8       	ldi	r20, 0x88	; 136
    1a00:	56 e4       	ldi	r21, 0x46	; 70
    1a02:	0e 94 0f 50 	call	0xa01e	; 0xa01e <__divsf3>
    1a06:	0e 94 36 4f 	call	0x9e6c	; 0x9e6c <acos>
    1a0a:	4b 01       	movw	r8, r22
    1a0c:	5c 01       	movw	r10, r24
    1a0e:	68 01       	movw	r12, r16
    1a10:	ee 24       	eor	r14, r14
    1a12:	d7 fc       	sbrc	r13, 7
    1a14:	e0 94       	com	r14
    1a16:	fe 2c       	mov	r15, r14
    1a18:	20 e0       	ldi	r18, 0x00	; 0
    1a1a:	30 e0       	ldi	r19, 0x00	; 0
    1a1c:	44 e3       	ldi	r20, 0x34	; 52
    1a1e:	53 e4       	ldi	r21, 0x43	; 67
    1a20:	6d 85       	ldd	r22, Y+13	; 0x0d
    1a22:	7e 85       	ldd	r23, Y+14	; 0x0e
    1a24:	8f 85       	ldd	r24, Y+15	; 0x0f
    1a26:	98 89       	ldd	r25, Y+16	; 0x10
    1a28:	0e 94 a5 51 	call	0xa34a	; 0xa34a <__mulsf3>
    1a2c:	28 ed       	ldi	r18, 0xD8	; 216
    1a2e:	3f e0       	ldi	r19, 0x0F	; 15
    1a30:	49 e4       	ldi	r20, 0x49	; 73
    1a32:	50 e4       	ldi	r21, 0x40	; 64
    1a34:	0e 94 0f 50 	call	0xa01e	; 0xa01e <__divsf3>
    1a38:	0e 94 77 50 	call	0xa0ee	; 0xa0ee <__fixsfsi>
    1a3c:	ab 01       	movw	r20, r22
    1a3e:	bc 01       	movw	r22, r24
    1a40:	4d 53       	subi	r20, 0x3D	; 61
    1a42:	5f 4f       	sbci	r21, 0xFF	; 255
    1a44:	6f 4f       	sbci	r22, 0xFF	; 255
    1a46:	7f 4f       	sbci	r23, 0xFF	; 255
    1a48:	97 01       	movw	r18, r14
    1a4a:	86 01       	movw	r16, r12
    1a4c:	80 91 30 01 	lds	r24, 0x0130
    1a50:	90 91 31 01 	lds	r25, 0x0131
    1a54:	1f dc       	rcall	.-1986   	; 0x1294 <MoveDynamixel>
    1a56:	a3 01       	movw	r20, r6
    1a58:	92 01       	movw	r18, r4
    1a5a:	69 81       	ldd	r22, Y+1	; 0x01
    1a5c:	7a 81       	ldd	r23, Y+2	; 0x02
    1a5e:	8b 81       	ldd	r24, Y+3	; 0x03
    1a60:	9c 81       	ldd	r25, Y+4	; 0x04
    1a62:	0e 94 45 4f 	call	0x9e8a	; 0x9e8a <__addsf3>
    1a66:	24 ee       	ldi	r18, 0xE4	; 228
    1a68:	3e e2       	ldi	r19, 0x2E	; 46
    1a6a:	45 e6       	ldi	r20, 0x65	; 101
    1a6c:	52 e4       	ldi	r21, 0x42	; 66
    1a6e:	0e 94 a5 51 	call	0xa34a	; 0xa34a <__mulsf3>
    1a72:	0e 94 77 50 	call	0xa0ee	; 0xa0ee <__fixsfsi>
    1a76:	0f 2e       	mov	r0, r31
    1a78:	f1 ee       	ldi	r31, 0xE1	; 225
    1a7a:	4f 2e       	mov	r4, r31
    1a7c:	51 2c       	mov	r5, r1
    1a7e:	61 2c       	mov	r6, r1
    1a80:	71 2c       	mov	r7, r1
    1a82:	f0 2d       	mov	r31, r0
    1a84:	93 01       	movw	r18, r6
    1a86:	82 01       	movw	r16, r4
    1a88:	06 1b       	sub	r16, r22
    1a8a:	17 0b       	sbc	r17, r23
    1a8c:	28 0b       	sbc	r18, r24
    1a8e:	39 0b       	sbc	r19, r25
    1a90:	b9 01       	movw	r22, r18
    1a92:	a8 01       	movw	r20, r16
    1a94:	97 01       	movw	r18, r14
    1a96:	86 01       	movw	r16, r12
    1a98:	80 91 32 01 	lds	r24, 0x0132
    1a9c:	90 91 33 01 	lds	r25, 0x0133
    1aa0:	f9 db       	rcall	.-2062   	; 0x1294 <MoveDynamixel>
    1aa2:	20 e0       	ldi	r18, 0x00	; 0
    1aa4:	30 e0       	ldi	r19, 0x00	; 0
    1aa6:	44 e3       	ldi	r20, 0x34	; 52
    1aa8:	53 e4       	ldi	r21, 0x43	; 67
    1aaa:	c5 01       	movw	r24, r10
    1aac:	b4 01       	movw	r22, r8
    1aae:	0e 94 a5 51 	call	0xa34a	; 0xa34a <__mulsf3>
    1ab2:	28 ed       	ldi	r18, 0xD8	; 216
    1ab4:	3f e0       	ldi	r19, 0x0F	; 15
    1ab6:	49 e4       	ldi	r20, 0x49	; 73
    1ab8:	50 e4       	ldi	r21, 0x40	; 64
    1aba:	0e 94 0f 50 	call	0xa01e	; 0xa01e <__divsf3>
    1abe:	0e 94 77 50 	call	0xa0ee	; 0xa0ee <__fixsfsi>
    1ac2:	0f 2e       	mov	r0, r31
    1ac4:	fc e2       	ldi	r31, 0x2C	; 44
    1ac6:	8f 2e       	mov	r8, r31
    1ac8:	99 24       	eor	r9, r9
    1aca:	93 94       	inc	r9
    1acc:	a1 2c       	mov	r10, r1
    1ace:	b1 2c       	mov	r11, r1
    1ad0:	f0 2d       	mov	r31, r0
    1ad2:	95 01       	movw	r18, r10
    1ad4:	84 01       	movw	r16, r8
    1ad6:	06 1b       	sub	r16, r22
    1ad8:	17 0b       	sbc	r17, r23
    1ada:	28 0b       	sbc	r18, r24
    1adc:	39 0b       	sbc	r19, r25
    1ade:	b9 01       	movw	r22, r18
    1ae0:	a8 01       	movw	r20, r16
    1ae2:	97 01       	movw	r18, r14
    1ae4:	86 01       	movw	r16, r12
    1ae6:	80 91 34 01 	lds	r24, 0x0134
    1aea:	90 91 35 01 	lds	r25, 0x0135
    1aee:	d2 db       	rcall	.-2140   	; 0x1294 <MoveDynamixel>
    1af0:	60 96       	adiw	r28, 0x10	; 16
    1af2:	0f b6       	in	r0, 0x3f	; 63
    1af4:	f8 94       	cli
    1af6:	de bf       	out	0x3e, r29	; 62
    1af8:	0f be       	out	0x3f, r0	; 63
    1afa:	cd bf       	out	0x3d, r28	; 61
    1afc:	df 91       	pop	r29
    1afe:	cf 91       	pop	r28
    1b00:	1f 91       	pop	r17
    1b02:	0f 91       	pop	r16
    1b04:	ff 90       	pop	r15
    1b06:	ef 90       	pop	r14
    1b08:	df 90       	pop	r13
    1b0a:	cf 90       	pop	r12
    1b0c:	bf 90       	pop	r11
    1b0e:	af 90       	pop	r10
    1b10:	9f 90       	pop	r9
    1b12:	8f 90       	pop	r8
    1b14:	7f 90       	pop	r7
    1b16:	6f 90       	pop	r6
    1b18:	5f 90       	pop	r5
    1b1a:	4f 90       	pop	r4
    1b1c:	08 95       	ret

00001b1e <MoveRearRightLeg>:
    1b1e:	4f 92       	push	r4
    1b20:	5f 92       	push	r5
    1b22:	6f 92       	push	r6
    1b24:	7f 92       	push	r7
    1b26:	8f 92       	push	r8
    1b28:	9f 92       	push	r9
    1b2a:	af 92       	push	r10
    1b2c:	bf 92       	push	r11
    1b2e:	cf 92       	push	r12
    1b30:	df 92       	push	r13
    1b32:	ef 92       	push	r14
    1b34:	ff 92       	push	r15
    1b36:	0f 93       	push	r16
    1b38:	1f 93       	push	r17
    1b3a:	cf 93       	push	r28
    1b3c:	df 93       	push	r29
    1b3e:	cd b7       	in	r28, 0x3d	; 61
    1b40:	de b7       	in	r29, 0x3e	; 62
    1b42:	60 97       	sbiw	r28, 0x10	; 16
    1b44:	0f b6       	in	r0, 0x3f	; 63
    1b46:	f8 94       	cli
    1b48:	de bf       	out	0x3e, r29	; 62
    1b4a:	0f be       	out	0x3f, r0	; 63
    1b4c:	cd bf       	out	0x3d, r28	; 61
    1b4e:	2b 01       	movw	r4, r22
    1b50:	3c 01       	movw	r6, r24
    1b52:	49 01       	movw	r8, r18
    1b54:	5a 01       	movw	r10, r20
    1b56:	e9 82       	std	Y+1, r14	; 0x01
    1b58:	fa 82       	std	Y+2, r15	; 0x02
    1b5a:	0b 83       	std	Y+3, r16	; 0x03
    1b5c:	1c 83       	std	Y+4, r17	; 0x04
    1b5e:	86 01       	movw	r16, r12
    1b60:	50 58       	subi	r21, 0x80	; 128
    1b62:	0e 94 b8 4f 	call	0x9f70	; 0x9f70 <atan2>
    1b66:	6d 87       	std	Y+13, r22	; 0x0d
    1b68:	7e 87       	std	Y+14, r23	; 0x0e
    1b6a:	8f 87       	std	Y+15, r24	; 0x0f
    1b6c:	98 8b       	std	Y+16, r25	; 0x10
    1b6e:	29 81       	ldd	r18, Y+1	; 0x01
    1b70:	3a 81       	ldd	r19, Y+2	; 0x02
    1b72:	4b 81       	ldd	r20, Y+3	; 0x03
    1b74:	5c 81       	ldd	r21, Y+4	; 0x04
    1b76:	ca 01       	movw	r24, r20
    1b78:	b9 01       	movw	r22, r18
    1b7a:	0e 94 a5 51 	call	0xa34a	; 0xa34a <__mulsf3>
    1b7e:	6b 01       	movw	r12, r22
    1b80:	7c 01       	movw	r14, r24
    1b82:	a3 01       	movw	r20, r6
    1b84:	92 01       	movw	r18, r4
    1b86:	c3 01       	movw	r24, r6
    1b88:	b2 01       	movw	r22, r4
    1b8a:	0e 94 a5 51 	call	0xa34a	; 0xa34a <__mulsf3>
    1b8e:	2b 01       	movw	r4, r22
    1b90:	3c 01       	movw	r6, r24
    1b92:	a5 01       	movw	r20, r10
    1b94:	94 01       	movw	r18, r8
    1b96:	c5 01       	movw	r24, r10
    1b98:	b4 01       	movw	r22, r8
    1b9a:	0e 94 a5 51 	call	0xa34a	; 0xa34a <__mulsf3>
    1b9e:	9b 01       	movw	r18, r22
    1ba0:	ac 01       	movw	r20, r24
    1ba2:	c3 01       	movw	r24, r6
    1ba4:	b2 01       	movw	r22, r4
    1ba6:	0e 94 45 4f 	call	0x9e8a	; 0x9e8a <__addsf3>
    1baa:	2b 01       	movw	r4, r22
    1bac:	3c 01       	movw	r6, r24
    1bae:	0e 94 0c 52 	call	0xa418	; 0xa418 <sqrt>
    1bb2:	20 e0       	ldi	r18, 0x00	; 0
    1bb4:	30 e0       	ldi	r19, 0x00	; 0
    1bb6:	48 e4       	ldi	r20, 0x48	; 72
    1bb8:	52 e4       	ldi	r21, 0x42	; 66
    1bba:	0e 94 44 4f 	call	0x9e88	; 0x9e88 <__subsf3>
    1bbe:	4b 01       	movw	r8, r22
    1bc0:	5c 01       	movw	r10, r24
    1bc2:	9b 01       	movw	r18, r22
    1bc4:	ac 01       	movw	r20, r24
    1bc6:	0e 94 a5 51 	call	0xa34a	; 0xa34a <__mulsf3>
    1bca:	6d 83       	std	Y+5, r22	; 0x05
    1bcc:	7e 83       	std	Y+6, r23	; 0x06
    1bce:	8f 83       	std	Y+7, r24	; 0x07
    1bd0:	98 87       	std	Y+8, r25	; 0x08
    1bd2:	9b 01       	movw	r18, r22
    1bd4:	ac 01       	movw	r20, r24
    1bd6:	c7 01       	movw	r24, r14
    1bd8:	b6 01       	movw	r22, r12
    1bda:	0e 94 45 4f 	call	0x9e8a	; 0x9e8a <__addsf3>
    1bde:	69 87       	std	Y+9, r22	; 0x09
    1be0:	7a 87       	std	Y+10, r23	; 0x0a
    1be2:	8b 87       	std	Y+11, r24	; 0x0b
    1be4:	9c 87       	std	Y+12, r25	; 0x0c
    1be6:	0e 94 0c 52 	call	0xa418	; 0xa418 <sqrt>
    1bea:	9b 01       	movw	r18, r22
    1bec:	ac 01       	movw	r20, r24
    1bee:	69 81       	ldd	r22, Y+1	; 0x01
    1bf0:	7a 81       	ldd	r23, Y+2	; 0x02
    1bf2:	8b 81       	ldd	r24, Y+3	; 0x03
    1bf4:	9c 81       	ldd	r25, Y+4	; 0x04
    1bf6:	90 58       	subi	r25, 0x80	; 128
    1bf8:	0e 94 0f 50 	call	0xa01e	; 0xa01e <__divsf3>
    1bfc:	0e 94 36 4f 	call	0x9e6c	; 0x9e6c <acos>
    1c00:	69 83       	std	Y+1, r22	; 0x01
    1c02:	7a 83       	std	Y+2, r23	; 0x02
    1c04:	8b 83       	std	Y+3, r24	; 0x03
    1c06:	9c 83       	std	Y+4, r25	; 0x04
    1c08:	20 e0       	ldi	r18, 0x00	; 0
    1c0a:	30 e0       	ldi	r19, 0x00	; 0
    1c0c:	48 e4       	ldi	r20, 0x48	; 72
    1c0e:	52 e4       	ldi	r21, 0x42	; 66
    1c10:	c3 01       	movw	r24, r6
    1c12:	b2 01       	movw	r22, r4
    1c14:	0e 94 44 4f 	call	0x9e88	; 0x9e88 <__subsf3>
    1c18:	0e 94 0c 52 	call	0xa418	; 0xa418 <sqrt>
    1c1c:	9b 01       	movw	r18, r22
    1c1e:	ac 01       	movw	r20, r24
    1c20:	c5 01       	movw	r24, r10
    1c22:	b4 01       	movw	r22, r8
    1c24:	0e 94 a5 51 	call	0xa34a	; 0xa34a <__mulsf3>
    1c28:	9b 01       	movw	r18, r22
    1c2a:	ac 01       	movw	r20, r24
    1c2c:	c7 01       	movw	r24, r14
    1c2e:	b6 01       	movw	r22, r12
    1c30:	0e 94 45 4f 	call	0x9e8a	; 0x9e8a <__addsf3>
    1c34:	0e 94 0c 52 	call	0xa418	; 0xa418 <sqrt>
    1c38:	2b 01       	movw	r4, r22
    1c3a:	3c 01       	movw	r6, r24
    1c3c:	20 e0       	ldi	r18, 0x00	; 0
    1c3e:	38 e4       	ldi	r19, 0x48	; 72
    1c40:	4c e8       	ldi	r20, 0x8C	; 140
    1c42:	55 e4       	ldi	r21, 0x45	; 69
    1c44:	69 85       	ldd	r22, Y+9	; 0x09
    1c46:	7a 85       	ldd	r23, Y+10	; 0x0a
    1c48:	8b 85       	ldd	r24, Y+11	; 0x0b
    1c4a:	9c 85       	ldd	r25, Y+12	; 0x0c
    1c4c:	0e 94 45 4f 	call	0x9e8a	; 0x9e8a <__addsf3>
    1c50:	20 e0       	ldi	r18, 0x00	; 0
    1c52:	38 e0       	ldi	r19, 0x08	; 8
    1c54:	44 e8       	ldi	r20, 0x84	; 132
    1c56:	56 e4       	ldi	r21, 0x46	; 70
    1c58:	0e 94 44 4f 	call	0x9e88	; 0x9e88 <__subsf3>
    1c5c:	4b 01       	movw	r8, r22
    1c5e:	5c 01       	movw	r10, r24
    1c60:	a3 01       	movw	r20, r6
    1c62:	92 01       	movw	r18, r4
    1c64:	c3 01       	movw	r24, r6
    1c66:	b2 01       	movw	r22, r4
    1c68:	0e 94 45 4f 	call	0x9e8a	; 0x9e8a <__addsf3>
    1c6c:	20 e0       	ldi	r18, 0x00	; 0
    1c6e:	30 e0       	ldi	r19, 0x00	; 0
    1c70:	46 e8       	ldi	r20, 0x86	; 134
    1c72:	52 e4       	ldi	r21, 0x42	; 66
    1c74:	0e 94 a5 51 	call	0xa34a	; 0xa34a <__mulsf3>
    1c78:	9b 01       	movw	r18, r22
    1c7a:	ac 01       	movw	r20, r24
    1c7c:	c5 01       	movw	r24, r10
    1c7e:	b4 01       	movw	r22, r8
    1c80:	0e 94 0f 50 	call	0xa01e	; 0xa01e <__divsf3>
    1c84:	0e 94 36 4f 	call	0x9e6c	; 0x9e6c <acos>
    1c88:	2b 01       	movw	r4, r22
    1c8a:	3c 01       	movw	r6, r24
    1c8c:	a7 01       	movw	r20, r14
    1c8e:	96 01       	movw	r18, r12
    1c90:	60 e0       	ldi	r22, 0x00	; 0
    1c92:	7a e1       	ldi	r23, 0x1A	; 26
    1c94:	87 ea       	ldi	r24, 0xA7	; 167
    1c96:	96 e4       	ldi	r25, 0x46	; 70
    1c98:	0e 94 44 4f 	call	0x9e88	; 0x9e88 <__subsf3>
    1c9c:	2d 81       	ldd	r18, Y+5	; 0x05
    1c9e:	3e 81       	ldd	r19, Y+6	; 0x06
    1ca0:	4f 81       	ldd	r20, Y+7	; 0x07
    1ca2:	58 85       	ldd	r21, Y+8	; 0x08
    1ca4:	0e 94 44 4f 	call	0x9e88	; 0x9e88 <__subsf3>
    1ca8:	20 e0       	ldi	r18, 0x00	; 0
    1caa:	38 e1       	ldi	r19, 0x18	; 24
    1cac:	48 e8       	ldi	r20, 0x88	; 136
    1cae:	56 e4       	ldi	r21, 0x46	; 70
    1cb0:	0e 94 0f 50 	call	0xa01e	; 0xa01e <__divsf3>
    1cb4:	0e 94 36 4f 	call	0x9e6c	; 0x9e6c <acos>
    1cb8:	4b 01       	movw	r8, r22
    1cba:	5c 01       	movw	r10, r24
    1cbc:	68 01       	movw	r12, r16
    1cbe:	ee 24       	eor	r14, r14
    1cc0:	d7 fc       	sbrc	r13, 7
    1cc2:	e0 94       	com	r14
    1cc4:	fe 2c       	mov	r15, r14
    1cc6:	20 e0       	ldi	r18, 0x00	; 0
    1cc8:	30 e0       	ldi	r19, 0x00	; 0
    1cca:	44 e3       	ldi	r20, 0x34	; 52
    1ccc:	53 e4       	ldi	r21, 0x43	; 67
    1cce:	6d 85       	ldd	r22, Y+13	; 0x0d
    1cd0:	7e 85       	ldd	r23, Y+14	; 0x0e
    1cd2:	8f 85       	ldd	r24, Y+15	; 0x0f
    1cd4:	98 89       	ldd	r25, Y+16	; 0x10
    1cd6:	0e 94 a5 51 	call	0xa34a	; 0xa34a <__mulsf3>
    1cda:	28 ed       	ldi	r18, 0xD8	; 216
    1cdc:	3f e0       	ldi	r19, 0x0F	; 15
    1cde:	49 e4       	ldi	r20, 0x49	; 73
    1ce0:	50 e4       	ldi	r21, 0x40	; 64
    1ce2:	0e 94 0f 50 	call	0xa01e	; 0xa01e <__divsf3>
    1ce6:	0e 94 77 50 	call	0xa0ee	; 0xa0ee <__fixsfsi>
    1cea:	ab 01       	movw	r20, r22
    1cec:	bc 01       	movw	r22, r24
    1cee:	47 59       	subi	r20, 0x97	; 151
    1cf0:	5f 4f       	sbci	r21, 0xFF	; 255
    1cf2:	6f 4f       	sbci	r22, 0xFF	; 255
    1cf4:	7f 4f       	sbci	r23, 0xFF	; 255
    1cf6:	97 01       	movw	r18, r14
    1cf8:	86 01       	movw	r16, r12
    1cfa:	80 91 28 01 	lds	r24, 0x0128
    1cfe:	90 91 29 01 	lds	r25, 0x0129
    1d02:	c8 da       	rcall	.-2672   	; 0x1294 <MoveDynamixel>
    1d04:	a3 01       	movw	r20, r6
    1d06:	92 01       	movw	r18, r4
    1d08:	69 81       	ldd	r22, Y+1	; 0x01
    1d0a:	7a 81       	ldd	r23, Y+2	; 0x02
    1d0c:	8b 81       	ldd	r24, Y+3	; 0x03
    1d0e:	9c 81       	ldd	r25, Y+4	; 0x04
    1d10:	0e 94 45 4f 	call	0x9e8a	; 0x9e8a <__addsf3>
    1d14:	24 ee       	ldi	r18, 0xE4	; 228
    1d16:	3e e2       	ldi	r19, 0x2E	; 46
    1d18:	45 e6       	ldi	r20, 0x65	; 101
    1d1a:	52 e4       	ldi	r21, 0x42	; 66
    1d1c:	0e 94 a5 51 	call	0xa34a	; 0xa34a <__mulsf3>
    1d20:	0e 94 77 50 	call	0xa0ee	; 0xa0ee <__fixsfsi>
    1d24:	0f 2e       	mov	r0, r31
    1d26:	f1 ee       	ldi	r31, 0xE1	; 225
    1d28:	4f 2e       	mov	r4, r31
    1d2a:	51 2c       	mov	r5, r1
    1d2c:	61 2c       	mov	r6, r1
    1d2e:	71 2c       	mov	r7, r1
    1d30:	f0 2d       	mov	r31, r0
    1d32:	93 01       	movw	r18, r6
    1d34:	82 01       	movw	r16, r4
    1d36:	06 1b       	sub	r16, r22
    1d38:	17 0b       	sbc	r17, r23
    1d3a:	28 0b       	sbc	r18, r24
    1d3c:	39 0b       	sbc	r19, r25
    1d3e:	b9 01       	movw	r22, r18
    1d40:	a8 01       	movw	r20, r16
    1d42:	97 01       	movw	r18, r14
    1d44:	86 01       	movw	r16, r12
    1d46:	80 91 2a 01 	lds	r24, 0x012A
    1d4a:	90 91 2b 01 	lds	r25, 0x012B
    1d4e:	a2 da       	rcall	.-2748   	; 0x1294 <MoveDynamixel>
    1d50:	20 e0       	ldi	r18, 0x00	; 0
    1d52:	30 e0       	ldi	r19, 0x00	; 0
    1d54:	44 e3       	ldi	r20, 0x34	; 52
    1d56:	53 e4       	ldi	r21, 0x43	; 67
    1d58:	c5 01       	movw	r24, r10
    1d5a:	b4 01       	movw	r22, r8
    1d5c:	0e 94 a5 51 	call	0xa34a	; 0xa34a <__mulsf3>
    1d60:	28 ed       	ldi	r18, 0xD8	; 216
    1d62:	3f e0       	ldi	r19, 0x0F	; 15
    1d64:	49 e4       	ldi	r20, 0x49	; 73
    1d66:	50 e4       	ldi	r21, 0x40	; 64
    1d68:	0e 94 0f 50 	call	0xa01e	; 0xa01e <__divsf3>
    1d6c:	0e 94 77 50 	call	0xa0ee	; 0xa0ee <__fixsfsi>
    1d70:	0f 2e       	mov	r0, r31
    1d72:	fc e2       	ldi	r31, 0x2C	; 44
    1d74:	8f 2e       	mov	r8, r31
    1d76:	99 24       	eor	r9, r9
    1d78:	93 94       	inc	r9
    1d7a:	a1 2c       	mov	r10, r1
    1d7c:	b1 2c       	mov	r11, r1
    1d7e:	f0 2d       	mov	r31, r0
    1d80:	95 01       	movw	r18, r10
    1d82:	84 01       	movw	r16, r8
    1d84:	06 1b       	sub	r16, r22
    1d86:	17 0b       	sbc	r17, r23
    1d88:	28 0b       	sbc	r18, r24
    1d8a:	39 0b       	sbc	r19, r25
    1d8c:	b9 01       	movw	r22, r18
    1d8e:	a8 01       	movw	r20, r16
    1d90:	97 01       	movw	r18, r14
    1d92:	86 01       	movw	r16, r12
    1d94:	80 91 2c 01 	lds	r24, 0x012C
    1d98:	90 91 2d 01 	lds	r25, 0x012D
    1d9c:	7b da       	rcall	.-2826   	; 0x1294 <MoveDynamixel>
    1d9e:	60 96       	adiw	r28, 0x10	; 16
    1da0:	0f b6       	in	r0, 0x3f	; 63
    1da2:	f8 94       	cli
    1da4:	de bf       	out	0x3e, r29	; 62
    1da6:	0f be       	out	0x3f, r0	; 63
    1da8:	cd bf       	out	0x3d, r28	; 61
    1daa:	df 91       	pop	r29
    1dac:	cf 91       	pop	r28
    1dae:	1f 91       	pop	r17
    1db0:	0f 91       	pop	r16
    1db2:	ff 90       	pop	r15
    1db4:	ef 90       	pop	r14
    1db6:	df 90       	pop	r13
    1db8:	cf 90       	pop	r12
    1dba:	bf 90       	pop	r11
    1dbc:	af 90       	pop	r10
    1dbe:	9f 90       	pop	r9
    1dc0:	8f 90       	pop	r8
    1dc2:	7f 90       	pop	r7
    1dc4:	6f 90       	pop	r6
    1dc6:	5f 90       	pop	r5
    1dc8:	4f 90       	pop	r4
    1dca:	08 95       	ret

00001dcc <MoveToStartPosition>:
    1dcc:	4f 92       	push	r4
    1dce:	5f 92       	push	r5
    1dd0:	6f 92       	push	r6
    1dd2:	7f 92       	push	r7
    1dd4:	8f 92       	push	r8
    1dd6:	9f 92       	push	r9
    1dd8:	af 92       	push	r10
    1dda:	bf 92       	push	r11
    1ddc:	cf 92       	push	r12
    1dde:	df 92       	push	r13
    1de0:	ef 92       	push	r14
    1de2:	ff 92       	push	r15
    1de4:	0f 93       	push	r16
    1de6:	1f 93       	push	r17
    1de8:	c0 90 24 01 	lds	r12, 0x0124
    1dec:	d0 90 25 01 	lds	r13, 0x0125
    1df0:	60 91 5a 01 	lds	r22, 0x015A
    1df4:	70 91 5b 01 	lds	r23, 0x015B
    1df8:	88 27       	eor	r24, r24
    1dfa:	77 fd       	sbrc	r23, 7
    1dfc:	80 95       	com	r24
    1dfe:	98 2f       	mov	r25, r24
    1e00:	0e 94 aa 50 	call	0xa154	; 0xa154 <__floatsisf>
    1e04:	2b 01       	movw	r4, r22
    1e06:	3c 01       	movw	r6, r24
    1e08:	60 91 5c 01 	lds	r22, 0x015C
    1e0c:	70 91 5d 01 	lds	r23, 0x015D
    1e10:	88 27       	eor	r24, r24
    1e12:	77 fd       	sbrc	r23, 7
    1e14:	80 95       	com	r24
    1e16:	98 2f       	mov	r25, r24
    1e18:	0e 94 aa 50 	call	0xa154	; 0xa154 <__floatsisf>
    1e1c:	4b 01       	movw	r8, r22
    1e1e:	5c 01       	movw	r10, r24
    1e20:	60 91 5e 01 	lds	r22, 0x015E
    1e24:	70 91 5f 01 	lds	r23, 0x015F
    1e28:	71 95       	neg	r23
    1e2a:	61 95       	neg	r22
    1e2c:	71 09       	sbc	r23, r1
    1e2e:	88 27       	eor	r24, r24
    1e30:	77 fd       	sbrc	r23, 7
    1e32:	80 95       	com	r24
    1e34:	98 2f       	mov	r25, r24
    1e36:	0e 94 aa 50 	call	0xa154	; 0xa154 <__floatsisf>
    1e3a:	83 01       	movw	r16, r6
    1e3c:	72 01       	movw	r14, r4
    1e3e:	a5 01       	movw	r20, r10
    1e40:	94 01       	movw	r18, r8
    1e42:	8e da       	rcall	.-2788   	; 0x1360 <MoveFrontLeftLeg>
    1e44:	c0 90 24 01 	lds	r12, 0x0124
    1e48:	d0 90 25 01 	lds	r13, 0x0125
    1e4c:	60 91 5a 01 	lds	r22, 0x015A
    1e50:	70 91 5b 01 	lds	r23, 0x015B
    1e54:	88 27       	eor	r24, r24
    1e56:	77 fd       	sbrc	r23, 7
    1e58:	80 95       	com	r24
    1e5a:	98 2f       	mov	r25, r24
    1e5c:	0e 94 aa 50 	call	0xa154	; 0xa154 <__floatsisf>
    1e60:	2b 01       	movw	r4, r22
    1e62:	3c 01       	movw	r6, r24
    1e64:	60 91 5c 01 	lds	r22, 0x015C
    1e68:	70 91 5d 01 	lds	r23, 0x015D
    1e6c:	88 27       	eor	r24, r24
    1e6e:	77 fd       	sbrc	r23, 7
    1e70:	80 95       	com	r24
    1e72:	98 2f       	mov	r25, r24
    1e74:	0e 94 aa 50 	call	0xa154	; 0xa154 <__floatsisf>
    1e78:	4b 01       	movw	r8, r22
    1e7a:	5c 01       	movw	r10, r24
    1e7c:	60 91 5e 01 	lds	r22, 0x015E
    1e80:	70 91 5f 01 	lds	r23, 0x015F
    1e84:	88 27       	eor	r24, r24
    1e86:	77 fd       	sbrc	r23, 7
    1e88:	80 95       	com	r24
    1e8a:	98 2f       	mov	r25, r24
    1e8c:	0e 94 aa 50 	call	0xa154	; 0xa154 <__floatsisf>
    1e90:	83 01       	movw	r16, r6
    1e92:	72 01       	movw	r14, r4
    1e94:	a5 01       	movw	r20, r10
    1e96:	94 01       	movw	r18, r8
    1e98:	a7 db       	rcall	.-2226   	; 0x15e8 <MoveFrontRightLeg>
    1e9a:	c0 90 24 01 	lds	r12, 0x0124
    1e9e:	d0 90 25 01 	lds	r13, 0x0125
    1ea2:	60 91 5a 01 	lds	r22, 0x015A
    1ea6:	70 91 5b 01 	lds	r23, 0x015B
    1eaa:	88 27       	eor	r24, r24
    1eac:	77 fd       	sbrc	r23, 7
    1eae:	80 95       	com	r24
    1eb0:	98 2f       	mov	r25, r24
    1eb2:	0e 94 aa 50 	call	0xa154	; 0xa154 <__floatsisf>
    1eb6:	2b 01       	movw	r4, r22
    1eb8:	3c 01       	movw	r6, r24
    1eba:	60 91 5c 01 	lds	r22, 0x015C
    1ebe:	70 91 5d 01 	lds	r23, 0x015D
    1ec2:	71 95       	neg	r23
    1ec4:	61 95       	neg	r22
    1ec6:	71 09       	sbc	r23, r1
    1ec8:	88 27       	eor	r24, r24
    1eca:	77 fd       	sbrc	r23, 7
    1ecc:	80 95       	com	r24
    1ece:	98 2f       	mov	r25, r24
    1ed0:	0e 94 aa 50 	call	0xa154	; 0xa154 <__floatsisf>
    1ed4:	4b 01       	movw	r8, r22
    1ed6:	5c 01       	movw	r10, r24
    1ed8:	60 91 5e 01 	lds	r22, 0x015E
    1edc:	70 91 5f 01 	lds	r23, 0x015F
    1ee0:	71 95       	neg	r23
    1ee2:	61 95       	neg	r22
    1ee4:	71 09       	sbc	r23, r1
    1ee6:	88 27       	eor	r24, r24
    1ee8:	77 fd       	sbrc	r23, 7
    1eea:	80 95       	com	r24
    1eec:	98 2f       	mov	r25, r24
    1eee:	0e 94 aa 50 	call	0xa154	; 0xa154 <__floatsisf>
    1ef2:	83 01       	movw	r16, r6
    1ef4:	72 01       	movw	r14, r4
    1ef6:	a5 01       	movw	r20, r10
    1ef8:	94 01       	movw	r18, r8
    1efa:	ba dc       	rcall	.-1676   	; 0x1870 <MoveRearLeftLeg>
    1efc:	c0 90 24 01 	lds	r12, 0x0124
    1f00:	d0 90 25 01 	lds	r13, 0x0125
    1f04:	60 91 5a 01 	lds	r22, 0x015A
    1f08:	70 91 5b 01 	lds	r23, 0x015B
    1f0c:	88 27       	eor	r24, r24
    1f0e:	77 fd       	sbrc	r23, 7
    1f10:	80 95       	com	r24
    1f12:	98 2f       	mov	r25, r24
    1f14:	0e 94 aa 50 	call	0xa154	; 0xa154 <__floatsisf>
    1f18:	2b 01       	movw	r4, r22
    1f1a:	3c 01       	movw	r6, r24
    1f1c:	60 91 5c 01 	lds	r22, 0x015C
    1f20:	70 91 5d 01 	lds	r23, 0x015D
    1f24:	71 95       	neg	r23
    1f26:	61 95       	neg	r22
    1f28:	71 09       	sbc	r23, r1
    1f2a:	88 27       	eor	r24, r24
    1f2c:	77 fd       	sbrc	r23, 7
    1f2e:	80 95       	com	r24
    1f30:	98 2f       	mov	r25, r24
    1f32:	0e 94 aa 50 	call	0xa154	; 0xa154 <__floatsisf>
    1f36:	4b 01       	movw	r8, r22
    1f38:	5c 01       	movw	r10, r24
    1f3a:	60 91 5e 01 	lds	r22, 0x015E
    1f3e:	70 91 5f 01 	lds	r23, 0x015F
    1f42:	88 27       	eor	r24, r24
    1f44:	77 fd       	sbrc	r23, 7
    1f46:	80 95       	com	r24
    1f48:	98 2f       	mov	r25, r24
    1f4a:	0e 94 aa 50 	call	0xa154	; 0xa154 <__floatsisf>
    1f4e:	83 01       	movw	r16, r6
    1f50:	72 01       	movw	r14, r4
    1f52:	a5 01       	movw	r20, r10
    1f54:	94 01       	movw	r18, r8
    1f56:	e3 dd       	rcall	.-1082   	; 0x1b1e <MoveRearRightLeg>
    1f58:	1f 91       	pop	r17
    1f5a:	0f 91       	pop	r16
    1f5c:	ff 90       	pop	r15
    1f5e:	ef 90       	pop	r14
    1f60:	df 90       	pop	r13
    1f62:	cf 90       	pop	r12
    1f64:	bf 90       	pop	r11
    1f66:	af 90       	pop	r10
    1f68:	9f 90       	pop	r9
    1f6a:	8f 90       	pop	r8
    1f6c:	7f 90       	pop	r7
    1f6e:	6f 90       	pop	r6
    1f70:	5f 90       	pop	r5
    1f72:	4f 90       	pop	r4
    1f74:	08 95       	ret

00001f76 <increasePositionIndexes>:
    1f76:	80 91 80 01 	lds	r24, 0x0180
    1f7a:	90 91 81 01 	lds	r25, 0x0181
    1f7e:	20 91 20 01 	lds	r18, 0x0120
    1f82:	30 91 21 01 	lds	r19, 0x0121
    1f86:	82 17       	cp	r24, r18
    1f88:	93 07       	cpc	r25, r19
    1f8a:	5c f0       	brlt	.+22     	; 0x1fa2 <increasePositionIndexes+0x2c>
    1f8c:	10 92 81 01 	sts	0x0181, r1
    1f90:	10 92 80 01 	sts	0x0180, r1
    1f94:	81 e0       	ldi	r24, 0x01	; 1
    1f96:	90 e0       	ldi	r25, 0x00	; 0
    1f98:	90 93 23 01 	sts	0x0123, r25
    1f9c:	80 93 22 01 	sts	0x0122, r24
    1fa0:	08 95       	ret
    1fa2:	ac 01       	movw	r20, r24
    1fa4:	4f 5f       	subi	r20, 0xFF	; 255
    1fa6:	5f 4f       	sbci	r21, 0xFF	; 255
    1fa8:	50 93 81 01 	sts	0x0181, r21
    1fac:	40 93 80 01 	sts	0x0180, r20
    1fb0:	42 17       	cp	r20, r18
    1fb2:	53 07       	cpc	r21, r19
    1fb4:	2c f0       	brlt	.+10     	; 0x1fc0 <increasePositionIndexes+0x4a>
    1fb6:	10 92 23 01 	sts	0x0123, r1
    1fba:	10 92 22 01 	sts	0x0122, r1
    1fbe:	08 95       	ret
    1fc0:	02 96       	adiw	r24, 0x02	; 2
    1fc2:	90 93 23 01 	sts	0x0123, r25
    1fc6:	80 93 22 01 	sts	0x0122, r24
    1fca:	08 95       	ret

00001fcc <CalcStraightPath>:
    1fcc:	2f 92       	push	r2
    1fce:	3f 92       	push	r3
    1fd0:	4f 92       	push	r4
    1fd2:	5f 92       	push	r5
    1fd4:	6f 92       	push	r6
    1fd6:	7f 92       	push	r7
    1fd8:	8f 92       	push	r8
    1fda:	9f 92       	push	r9
    1fdc:	af 92       	push	r10
    1fde:	bf 92       	push	r11
    1fe0:	cf 92       	push	r12
    1fe2:	df 92       	push	r13
    1fe4:	ef 92       	push	r14
    1fe6:	ff 92       	push	r15
    1fe8:	0f 93       	push	r16
    1fea:	1f 93       	push	r17
    1fec:	cf 93       	push	r28
    1fee:	df 93       	push	r29
    1ff0:	cd b7       	in	r28, 0x3d	; 61
    1ff2:	de b7       	in	r29, 0x3e	; 62
    1ff4:	e6 97       	sbiw	r28, 0x36	; 54
    1ff6:	0f b6       	in	r0, 0x3f	; 63
    1ff8:	f8 94       	cli
    1ffa:	de bf       	out	0x3e, r29	; 62
    1ffc:	0f be       	out	0x3f, r0	; 63
    1ffe:	cd bf       	out	0x3d, r28	; 61
    2000:	29 83       	std	Y+1, r18	; 0x01
    2002:	3a 83       	std	Y+2, r19	; 0x02
    2004:	4b 83       	std	Y+3, r20	; 0x03
    2006:	5c 83       	std	Y+4, r21	; 0x04
    2008:	6d 83       	std	Y+5, r22	; 0x05
    200a:	7e 83       	std	Y+6, r23	; 0x06
    200c:	8f 83       	std	Y+7, r24	; 0x07
    200e:	98 87       	std	Y+8, r25	; 0x08
    2010:	17 01       	movw	r2, r14
    2012:	2f 96       	adiw	r28, 0x0f	; 15
    2014:	4c ac       	ldd	r4, Y+60	; 0x3c
    2016:	5d ac       	ldd	r5, Y+61	; 0x3d
    2018:	6e ac       	ldd	r6, Y+62	; 0x3e
    201a:	7f ac       	ldd	r7, Y+63	; 0x3f
    201c:	2f 97       	sbiw	r28, 0x0f	; 15
    201e:	29 81       	ldd	r18, Y+1	; 0x01
    2020:	3a 81       	ldd	r19, Y+2	; 0x02
    2022:	3e 8b       	std	Y+22, r19	; 0x16
    2024:	2d 8b       	std	Y+21, r18	; 0x15
    2026:	4b 81       	ldd	r20, Y+3	; 0x03
    2028:	5c 81       	ldd	r21, Y+4	; 0x04
    202a:	58 8f       	std	Y+24, r21	; 0x18
    202c:	4f 8b       	std	Y+23, r20	; 0x17
    202e:	8d 80       	ldd	r8, Y+5	; 0x05
    2030:	9e 80       	ldd	r9, Y+6	; 0x06
    2032:	ef 80       	ldd	r14, Y+7	; 0x07
    2034:	f8 84       	ldd	r15, Y+8	; 0x08
    2036:	c9 01       	movw	r24, r18
    2038:	01 97       	sbiw	r24, 0x01	; 1
    203a:	02 97       	sbiw	r24, 0x02	; 2
    203c:	88 f4       	brcc	.+34     	; 0x2060 <CalcStraightPath+0x94>
    203e:	d7 fa       	bst	r13, 7
    2040:	d0 94       	com	r13
    2042:	d7 f8       	bld	r13, 7
    2044:	d0 94       	com	r13
    2046:	67 96       	adiw	r28, 0x17	; 23
    2048:	8c ad       	ldd	r24, Y+60	; 0x3c
    204a:	9d ad       	ldd	r25, Y+61	; 0x3d
    204c:	ae ad       	ldd	r26, Y+62	; 0x3e
    204e:	bf ad       	ldd	r27, Y+63	; 0x3f
    2050:	67 97       	sbiw	r28, 0x17	; 23
    2052:	b0 58       	subi	r27, 0x80	; 128
    2054:	67 96       	adiw	r28, 0x17	; 23
    2056:	8c af       	std	Y+60, r24	; 0x3c
    2058:	9d af       	std	Y+61, r25	; 0x3d
    205a:	ae af       	std	Y+62, r26	; 0x3e
    205c:	bf af       	std	Y+63, r27	; 0x3f
    205e:	67 97       	sbiw	r28, 0x17	; 23
    2060:	8d 89       	ldd	r24, Y+21	; 0x15
    2062:	9e 89       	ldd	r25, Y+22	; 0x16
    2064:	03 97       	sbiw	r24, 0x03	; 3
    2066:	02 97       	sbiw	r24, 0x02	; 2
    2068:	88 f4       	brcc	.+34     	; 0x208c <CalcStraightPath+0xc0>
    206a:	77 fa       	bst	r7, 7
    206c:	70 94       	com	r7
    206e:	77 f8       	bld	r7, 7
    2070:	70 94       	com	r7
    2072:	6b 96       	adiw	r28, 0x1b	; 27
    2074:	2c ad       	ldd	r18, Y+60	; 0x3c
    2076:	3d ad       	ldd	r19, Y+61	; 0x3d
    2078:	4e ad       	ldd	r20, Y+62	; 0x3e
    207a:	5f ad       	ldd	r21, Y+63	; 0x3f
    207c:	6b 97       	sbiw	r28, 0x1b	; 27
    207e:	50 58       	subi	r21, 0x80	; 128
    2080:	6b 96       	adiw	r28, 0x1b	; 27
    2082:	2c af       	std	Y+60, r18	; 0x3c
    2084:	3d af       	std	Y+61, r19	; 0x3d
    2086:	4e af       	std	Y+62, r20	; 0x3e
    2088:	5f af       	std	Y+63, r21	; 0x3f
    208a:	6b 97       	sbiw	r28, 0x1b	; 27
    208c:	b8 01       	movw	r22, r16
    208e:	88 27       	eor	r24, r24
    2090:	77 fd       	sbrc	r23, 7
    2092:	80 95       	com	r24
    2094:	98 2f       	mov	r25, r24
    2096:	0e 94 aa 50 	call	0xa154	; 0xa154 <__floatsisf>
    209a:	69 87       	std	Y+9, r22	; 0x09
    209c:	7a 87       	std	Y+10, r23	; 0x0a
    209e:	8b 87       	std	Y+11, r24	; 0x0b
    20a0:	9c 87       	std	Y+12, r25	; 0x0c
    20a2:	a6 01       	movw	r20, r12
    20a4:	95 01       	movw	r18, r10
    20a6:	67 96       	adiw	r28, 0x17	; 23
    20a8:	6c ad       	ldd	r22, Y+60	; 0x3c
    20aa:	7d ad       	ldd	r23, Y+61	; 0x3d
    20ac:	8e ad       	ldd	r24, Y+62	; 0x3e
    20ae:	9f ad       	ldd	r25, Y+63	; 0x3f
    20b0:	67 97       	sbiw	r28, 0x17	; 23
    20b2:	0e 94 44 4f 	call	0x9e88	; 0x9e88 <__subsf3>
    20b6:	29 85       	ldd	r18, Y+9	; 0x09
    20b8:	3a 85       	ldd	r19, Y+10	; 0x0a
    20ba:	4b 85       	ldd	r20, Y+11	; 0x0b
    20bc:	5c 85       	ldd	r21, Y+12	; 0x0c
    20be:	0e 94 0f 50 	call	0xa01e	; 0xa01e <__divsf3>
    20c2:	6b a7       	std	Y+43, r22	; 0x2b
    20c4:	7c a7       	std	Y+44, r23	; 0x2c
    20c6:	8d a7       	std	Y+45, r24	; 0x2d
    20c8:	9e a7       	std	Y+46, r25	; 0x2e
    20ca:	a3 01       	movw	r20, r6
    20cc:	92 01       	movw	r18, r4
    20ce:	6b 96       	adiw	r28, 0x1b	; 27
    20d0:	6c ad       	ldd	r22, Y+60	; 0x3c
    20d2:	7d ad       	ldd	r23, Y+61	; 0x3d
    20d4:	8e ad       	ldd	r24, Y+62	; 0x3e
    20d6:	9f ad       	ldd	r25, Y+63	; 0x3f
    20d8:	6b 97       	sbiw	r28, 0x1b	; 27
    20da:	0e 94 44 4f 	call	0x9e88	; 0x9e88 <__subsf3>
    20de:	29 85       	ldd	r18, Y+9	; 0x09
    20e0:	3a 85       	ldd	r19, Y+10	; 0x0a
    20e2:	4b 85       	ldd	r20, Y+11	; 0x0b
    20e4:	5c 85       	ldd	r21, Y+12	; 0x0c
    20e6:	0e 94 0f 50 	call	0xa01e	; 0xa01e <__divsf3>
    20ea:	6f a7       	std	Y+47, r22	; 0x2f
    20ec:	78 ab       	std	Y+48, r23	; 0x30
    20ee:	89 ab       	std	Y+49, r24	; 0x31
    20f0:	9a ab       	std	Y+50, r25	; 0x32
    20f2:	63 96       	adiw	r28, 0x13	; 19
    20f4:	2c ad       	ldd	r18, Y+60	; 0x3c
    20f6:	3d ad       	ldd	r19, Y+61	; 0x3d
    20f8:	4e ad       	ldd	r20, Y+62	; 0x3e
    20fa:	5f ad       	ldd	r21, Y+63	; 0x3f
    20fc:	63 97       	sbiw	r28, 0x13	; 19
    20fe:	6f 96       	adiw	r28, 0x1f	; 31
    2100:	6c ad       	ldd	r22, Y+60	; 0x3c
    2102:	7d ad       	ldd	r23, Y+61	; 0x3d
    2104:	8e ad       	ldd	r24, Y+62	; 0x3e
    2106:	9f ad       	ldd	r25, Y+63	; 0x3f
    2108:	6f 97       	sbiw	r28, 0x1f	; 31
    210a:	0e 94 44 4f 	call	0x9e88	; 0x9e88 <__subsf3>
    210e:	29 85       	ldd	r18, Y+9	; 0x09
    2110:	3a 85       	ldd	r19, Y+10	; 0x0a
    2112:	4b 85       	ldd	r20, Y+11	; 0x0b
    2114:	5c 85       	ldd	r21, Y+12	; 0x0c
    2116:	0e 94 0f 50 	call	0xa01e	; 0xa01e <__divsf3>
    211a:	6b ab       	std	Y+51, r22	; 0x33
    211c:	7c ab       	std	Y+52, r23	; 0x34
    211e:	8d ab       	std	Y+53, r24	; 0x35
    2120:	9e ab       	std	Y+54, r25	; 0x36
    2122:	a1 01       	movw	r20, r2
    2124:	40 0f       	add	r20, r16
    2126:	51 1f       	adc	r21, r17
    2128:	5a a7       	std	Y+42, r21	; 0x2a
    212a:	49 a7       	std	Y+41, r20	; 0x29
    212c:	24 16       	cp	r2, r20
    212e:	35 06       	cpc	r3, r21
    2130:	0c f0       	brlt	.+2      	; 0x2134 <CalcStraightPath+0x168>
    2132:	b8 c2       	rjmp	.+1392   	; 0x26a4 <CalcStraightPath+0x6d8>
    2134:	24 e1       	ldi	r18, 0x14	; 20
    2136:	af 89       	ldd	r26, Y+23	; 0x17
    2138:	b8 8d       	ldd	r27, Y+24	; 0x18
    213a:	2a 9f       	mul	r18, r26
    213c:	c0 01       	movw	r24, r0
    213e:	2b 9f       	mul	r18, r27
    2140:	90 0d       	add	r25, r0
    2142:	11 24       	eor	r1, r1
    2144:	82 0d       	add	r24, r2
    2146:	93 1d       	adc	r25, r3
    2148:	88 0f       	add	r24, r24
    214a:	99 1f       	adc	r25, r25
    214c:	88 0f       	add	r24, r24
    214e:	99 1f       	adc	r25, r25
    2150:	fc 01       	movw	r30, r24
    2152:	e5 5b       	subi	r30, 0xB5	; 181
    2154:	ff 4e       	sbci	r31, 0xEF	; 239
    2156:	fa a3       	std	Y+34, r31	; 0x22
    2158:	e9 a3       	std	Y+33, r30	; 0x21
    215a:	28 9d       	mul	r18, r8
    215c:	c0 01       	movw	r24, r0
    215e:	29 9d       	mul	r18, r9
    2160:	90 0d       	add	r25, r0
    2162:	11 24       	eor	r1, r1
    2164:	82 0d       	add	r24, r2
    2166:	93 1d       	adc	r25, r3
    2168:	88 0f       	add	r24, r24
    216a:	99 1f       	adc	r25, r25
    216c:	88 0f       	add	r24, r24
    216e:	99 1f       	adc	r25, r25
    2170:	ac 01       	movw	r20, r24
    2172:	45 5b       	subi	r20, 0xB5	; 181
    2174:	5f 4e       	sbci	r21, 0xEF	; 239
    2176:	58 a3       	std	Y+32, r21	; 0x20
    2178:	4f 8f       	std	Y+31, r20	; 0x1f
    217a:	2e 9d       	mul	r18, r14
    217c:	c0 01       	movw	r24, r0
    217e:	2f 9d       	mul	r18, r15
    2180:	90 0d       	add	r25, r0
    2182:	11 24       	eor	r1, r1
    2184:	82 0d       	add	r24, r2
    2186:	93 1d       	adc	r25, r3
    2188:	88 0f       	add	r24, r24
    218a:	99 1f       	adc	r25, r25
    218c:	88 0f       	add	r24, r24
    218e:	99 1f       	adc	r25, r25
    2190:	dc 01       	movw	r26, r24
    2192:	a5 5b       	subi	r26, 0xB5	; 181
    2194:	bf 4e       	sbci	r27, 0xEF	; 239
    2196:	bc a3       	std	Y+36, r27	; 0x24
    2198:	ab a3       	std	Y+35, r26	; 0x23
    219a:	81 01       	movw	r16, r2
    219c:	00 0f       	add	r16, r16
    219e:	11 1f       	adc	r17, r17
    21a0:	00 0f       	add	r16, r16
    21a2:	11 1f       	adc	r17, r17
    21a4:	0b 57       	subi	r16, 0x7B	; 123
    21a6:	13 4f       	sbci	r17, 0xF3	; 243
    21a8:	a9 86       	std	Y+9, r10	; 0x09
    21aa:	ba 86       	std	Y+10, r11	; 0x0a
    21ac:	cb 86       	std	Y+11, r12	; 0x0b
    21ae:	dc 86       	std	Y+12, r13	; 0x0c
    21b0:	4d 86       	std	Y+13, r4	; 0x0d
    21b2:	5e 86       	std	Y+14, r5	; 0x0e
    21b4:	6f 86       	std	Y+15, r6	; 0x0f
    21b6:	78 8a       	std	Y+16, r7	; 0x10
    21b8:	2b a5       	ldd	r18, Y+43	; 0x2b
    21ba:	3c a5       	ldd	r19, Y+44	; 0x2c
    21bc:	4d a5       	ldd	r20, Y+45	; 0x2d
    21be:	5e a5       	ldd	r21, Y+46	; 0x2e
    21c0:	69 85       	ldd	r22, Y+9	; 0x09
    21c2:	7a 85       	ldd	r23, Y+10	; 0x0a
    21c4:	8b 85       	ldd	r24, Y+11	; 0x0b
    21c6:	9c 85       	ldd	r25, Y+12	; 0x0c
    21c8:	0e 94 45 4f 	call	0x9e8a	; 0x9e8a <__addsf3>
    21cc:	69 87       	std	Y+9, r22	; 0x09
    21ce:	7a 87       	std	Y+10, r23	; 0x0a
    21d0:	8b 87       	std	Y+11, r24	; 0x0b
    21d2:	9c 87       	std	Y+12, r25	; 0x0c
    21d4:	2f a5       	ldd	r18, Y+47	; 0x2f
    21d6:	38 a9       	ldd	r19, Y+48	; 0x30
    21d8:	49 a9       	ldd	r20, Y+49	; 0x31
    21da:	5a a9       	ldd	r21, Y+50	; 0x32
    21dc:	6d 85       	ldd	r22, Y+13	; 0x0d
    21de:	7e 85       	ldd	r23, Y+14	; 0x0e
    21e0:	8f 85       	ldd	r24, Y+15	; 0x0f
    21e2:	98 89       	ldd	r25, Y+16	; 0x10
    21e4:	0e 94 45 4f 	call	0x9e8a	; 0x9e8a <__addsf3>
    21e8:	6d 87       	std	Y+13, r22	; 0x0d
    21ea:	7e 87       	std	Y+14, r23	; 0x0e
    21ec:	8f 87       	std	Y+15, r24	; 0x0f
    21ee:	98 8b       	std	Y+16, r25	; 0x10
    21f0:	2b a9       	ldd	r18, Y+51	; 0x33
    21f2:	3c a9       	ldd	r19, Y+52	; 0x34
    21f4:	4d a9       	ldd	r20, Y+53	; 0x35
    21f6:	5e a9       	ldd	r21, Y+54	; 0x36
    21f8:	63 96       	adiw	r28, 0x13	; 19
    21fa:	6c ad       	ldd	r22, Y+60	; 0x3c
    21fc:	7d ad       	ldd	r23, Y+61	; 0x3d
    21fe:	8e ad       	ldd	r24, Y+62	; 0x3e
    2200:	9f ad       	ldd	r25, Y+63	; 0x3f
    2202:	63 97       	sbiw	r28, 0x13	; 19
    2204:	0e 94 45 4f 	call	0x9e8a	; 0x9e8a <__addsf3>
    2208:	63 96       	adiw	r28, 0x13	; 19
    220a:	6c af       	std	Y+60, r22	; 0x3c
    220c:	7d af       	std	Y+61, r23	; 0x3d
    220e:	8e af       	std	Y+62, r24	; 0x3e
    2210:	9f af       	std	Y+63, r25	; 0x3f
    2212:	63 97       	sbiw	r28, 0x13	; 19
    2214:	2d 85       	ldd	r18, Y+13	; 0x0d
    2216:	3e 85       	ldd	r19, Y+14	; 0x0e
    2218:	4f 85       	ldd	r20, Y+15	; 0x0f
    221a:	58 89       	ldd	r21, Y+16	; 0x10
    221c:	69 85       	ldd	r22, Y+9	; 0x09
    221e:	7a 85       	ldd	r23, Y+10	; 0x0a
    2220:	8b 85       	ldd	r24, Y+11	; 0x0b
    2222:	9c 85       	ldd	r25, Y+12	; 0x0c
    2224:	0e 94 b8 4f 	call	0x9f70	; 0x9f70 <atan2>
    2228:	20 e0       	ldi	r18, 0x00	; 0
    222a:	30 e0       	ldi	r19, 0x00	; 0
    222c:	44 e3       	ldi	r20, 0x34	; 52
    222e:	53 e4       	ldi	r21, 0x43	; 67
    2230:	0e 94 a5 51 	call	0xa34a	; 0xa34a <__mulsf3>
    2234:	28 ed       	ldi	r18, 0xD8	; 216
    2236:	3f e0       	ldi	r19, 0x0F	; 15
    2238:	49 e4       	ldi	r20, 0x49	; 73
    223a:	50 e4       	ldi	r21, 0x40	; 64
    223c:	0e 94 0f 50 	call	0xa01e	; 0xa01e <__divsf3>
    2240:	0e 94 77 50 	call	0xa0ee	; 0xa0ee <__fixsfsi>
    2244:	6d a3       	std	Y+37, r22	; 0x25
    2246:	7e a3       	std	Y+38, r23	; 0x26
    2248:	8f a3       	std	Y+39, r24	; 0x27
    224a:	98 a7       	std	Y+40, r25	; 0x28
    224c:	63 96       	adiw	r28, 0x13	; 19
    224e:	2c ad       	ldd	r18, Y+60	; 0x3c
    2250:	3d ad       	ldd	r19, Y+61	; 0x3d
    2252:	4e ad       	ldd	r20, Y+62	; 0x3e
    2254:	5f ad       	ldd	r21, Y+63	; 0x3f
    2256:	63 97       	sbiw	r28, 0x13	; 19
    2258:	ca 01       	movw	r24, r20
    225a:	b9 01       	movw	r22, r18
    225c:	0e 94 a5 51 	call	0xa34a	; 0xa34a <__mulsf3>
    2260:	69 8b       	std	Y+17, r22	; 0x11
    2262:	7a 8b       	std	Y+18, r23	; 0x12
    2264:	8b 8b       	std	Y+19, r24	; 0x13
    2266:	9c 8b       	std	Y+20, r25	; 0x14
    2268:	29 85       	ldd	r18, Y+9	; 0x09
    226a:	3a 85       	ldd	r19, Y+10	; 0x0a
    226c:	4b 85       	ldd	r20, Y+11	; 0x0b
    226e:	5c 85       	ldd	r21, Y+12	; 0x0c
    2270:	ca 01       	movw	r24, r20
    2272:	b9 01       	movw	r22, r18
    2274:	0e 94 a5 51 	call	0xa34a	; 0xa34a <__mulsf3>
    2278:	6b 01       	movw	r12, r22
    227a:	7c 01       	movw	r14, r24
    227c:	2d 85       	ldd	r18, Y+13	; 0x0d
    227e:	3e 85       	ldd	r19, Y+14	; 0x0e
    2280:	4f 85       	ldd	r20, Y+15	; 0x0f
    2282:	58 89       	ldd	r21, Y+16	; 0x10
    2284:	ca 01       	movw	r24, r20
    2286:	b9 01       	movw	r22, r18
    2288:	0e 94 a5 51 	call	0xa34a	; 0xa34a <__mulsf3>
    228c:	9b 01       	movw	r18, r22
    228e:	ac 01       	movw	r20, r24
    2290:	c7 01       	movw	r24, r14
    2292:	b6 01       	movw	r22, r12
    2294:	0e 94 45 4f 	call	0x9e8a	; 0x9e8a <__addsf3>
    2298:	6f 8b       	std	Y+23, r22	; 0x17
    229a:	78 8f       	std	Y+24, r23	; 0x18
    229c:	89 8f       	std	Y+25, r24	; 0x19
    229e:	9a 8f       	std	Y+26, r25	; 0x1a
    22a0:	0e 94 0c 52 	call	0xa418	; 0xa418 <sqrt>
    22a4:	20 e0       	ldi	r18, 0x00	; 0
    22a6:	30 e0       	ldi	r19, 0x00	; 0
    22a8:	48 e4       	ldi	r20, 0x48	; 72
    22aa:	52 e4       	ldi	r21, 0x42	; 66
    22ac:	0e 94 44 4f 	call	0x9e88	; 0x9e88 <__subsf3>
    22b0:	6b 01       	movw	r12, r22
    22b2:	7c 01       	movw	r14, r24
    22b4:	9b 01       	movw	r18, r22
    22b6:	ac 01       	movw	r20, r24
    22b8:	0e 94 a5 51 	call	0xa34a	; 0xa34a <__mulsf3>
    22bc:	6b 8f       	std	Y+27, r22	; 0x1b
    22be:	7c 8f       	std	Y+28, r23	; 0x1c
    22c0:	8d 8f       	std	Y+29, r24	; 0x1d
    22c2:	9e 8f       	std	Y+30, r25	; 0x1e
    22c4:	9b 01       	movw	r18, r22
    22c6:	ac 01       	movw	r20, r24
    22c8:	69 89       	ldd	r22, Y+17	; 0x11
    22ca:	7a 89       	ldd	r23, Y+18	; 0x12
    22cc:	8b 89       	ldd	r24, Y+19	; 0x13
    22ce:	9c 89       	ldd	r25, Y+20	; 0x14
    22d0:	0e 94 45 4f 	call	0x9e8a	; 0x9e8a <__addsf3>
    22d4:	4b 01       	movw	r8, r22
    22d6:	5c 01       	movw	r10, r24
    22d8:	0e 94 0c 52 	call	0xa418	; 0xa418 <sqrt>
    22dc:	9b 01       	movw	r18, r22
    22de:	ac 01       	movw	r20, r24
    22e0:	63 96       	adiw	r28, 0x13	; 19
    22e2:	6c ad       	ldd	r22, Y+60	; 0x3c
    22e4:	7d ad       	ldd	r23, Y+61	; 0x3d
    22e6:	8e ad       	ldd	r24, Y+62	; 0x3e
    22e8:	9f ad       	ldd	r25, Y+63	; 0x3f
    22ea:	63 97       	sbiw	r28, 0x13	; 19
    22ec:	90 58       	subi	r25, 0x80	; 128
    22ee:	0e 94 0f 50 	call	0xa01e	; 0xa01e <__divsf3>
    22f2:	0e 94 36 4f 	call	0x9e6c	; 0x9e6c <acos>
    22f6:	2b 01       	movw	r4, r22
    22f8:	3c 01       	movw	r6, r24
    22fa:	20 e0       	ldi	r18, 0x00	; 0
    22fc:	30 e0       	ldi	r19, 0x00	; 0
    22fe:	48 e4       	ldi	r20, 0x48	; 72
    2300:	52 e4       	ldi	r21, 0x42	; 66
    2302:	6f 89       	ldd	r22, Y+23	; 0x17
    2304:	78 8d       	ldd	r23, Y+24	; 0x18
    2306:	89 8d       	ldd	r24, Y+25	; 0x19
    2308:	9a 8d       	ldd	r25, Y+26	; 0x1a
    230a:	0e 94 44 4f 	call	0x9e88	; 0x9e88 <__subsf3>
    230e:	0e 94 0c 52 	call	0xa418	; 0xa418 <sqrt>
    2312:	9b 01       	movw	r18, r22
    2314:	ac 01       	movw	r20, r24
    2316:	c7 01       	movw	r24, r14
    2318:	b6 01       	movw	r22, r12
    231a:	0e 94 a5 51 	call	0xa34a	; 0xa34a <__mulsf3>
    231e:	9b 01       	movw	r18, r22
    2320:	ac 01       	movw	r20, r24
    2322:	69 89       	ldd	r22, Y+17	; 0x11
    2324:	7a 89       	ldd	r23, Y+18	; 0x12
    2326:	8b 89       	ldd	r24, Y+19	; 0x13
    2328:	9c 89       	ldd	r25, Y+20	; 0x14
    232a:	0e 94 45 4f 	call	0x9e8a	; 0x9e8a <__addsf3>
    232e:	0e 94 0c 52 	call	0xa418	; 0xa418 <sqrt>
    2332:	6b 01       	movw	r12, r22
    2334:	7c 01       	movw	r14, r24
    2336:	20 e0       	ldi	r18, 0x00	; 0
    2338:	38 e4       	ldi	r19, 0x48	; 72
    233a:	4c e8       	ldi	r20, 0x8C	; 140
    233c:	55 e4       	ldi	r21, 0x45	; 69
    233e:	c5 01       	movw	r24, r10
    2340:	b4 01       	movw	r22, r8
    2342:	0e 94 45 4f 	call	0x9e8a	; 0x9e8a <__addsf3>
    2346:	20 e0       	ldi	r18, 0x00	; 0
    2348:	38 e0       	ldi	r19, 0x08	; 8
    234a:	44 e8       	ldi	r20, 0x84	; 132
    234c:	56 e4       	ldi	r21, 0x46	; 70
    234e:	0e 94 44 4f 	call	0x9e88	; 0x9e88 <__subsf3>
    2352:	4b 01       	movw	r8, r22
    2354:	5c 01       	movw	r10, r24
    2356:	a7 01       	movw	r20, r14
    2358:	96 01       	movw	r18, r12
    235a:	c7 01       	movw	r24, r14
    235c:	b6 01       	movw	r22, r12
    235e:	0e 94 45 4f 	call	0x9e8a	; 0x9e8a <__addsf3>
    2362:	20 e0       	ldi	r18, 0x00	; 0
    2364:	30 e0       	ldi	r19, 0x00	; 0
    2366:	46 e8       	ldi	r20, 0x86	; 134
    2368:	52 e4       	ldi	r21, 0x42	; 66
    236a:	0e 94 a5 51 	call	0xa34a	; 0xa34a <__mulsf3>
    236e:	9b 01       	movw	r18, r22
    2370:	ac 01       	movw	r20, r24
    2372:	c5 01       	movw	r24, r10
    2374:	b4 01       	movw	r22, r8
    2376:	0e 94 0f 50 	call	0xa01e	; 0xa01e <__divsf3>
    237a:	0e 94 36 4f 	call	0x9e6c	; 0x9e6c <acos>
    237e:	9b 01       	movw	r18, r22
    2380:	ac 01       	movw	r20, r24
    2382:	c3 01       	movw	r24, r6
    2384:	b2 01       	movw	r22, r4
    2386:	0e 94 45 4f 	call	0x9e8a	; 0x9e8a <__addsf3>
    238a:	24 ee       	ldi	r18, 0xE4	; 228
    238c:	3e e2       	ldi	r19, 0x2E	; 46
    238e:	45 e6       	ldi	r20, 0x65	; 101
    2390:	52 e4       	ldi	r21, 0x42	; 66
    2392:	0e 94 a5 51 	call	0xa34a	; 0xa34a <__mulsf3>
    2396:	0e 94 77 50 	call	0xa0ee	; 0xa0ee <__fixsfsi>
    239a:	6b 01       	movw	r12, r22
    239c:	7c 01       	movw	r14, r24
    239e:	29 89       	ldd	r18, Y+17	; 0x11
    23a0:	3a 89       	ldd	r19, Y+18	; 0x12
    23a2:	4b 89       	ldd	r20, Y+19	; 0x13
    23a4:	5c 89       	ldd	r21, Y+20	; 0x14
    23a6:	60 e0       	ldi	r22, 0x00	; 0
    23a8:	7a e1       	ldi	r23, 0x1A	; 26
    23aa:	87 ea       	ldi	r24, 0xA7	; 167
    23ac:	96 e4       	ldi	r25, 0x46	; 70
    23ae:	0e 94 44 4f 	call	0x9e88	; 0x9e88 <__subsf3>
    23b2:	2b 8d       	ldd	r18, Y+27	; 0x1b
    23b4:	3c 8d       	ldd	r19, Y+28	; 0x1c
    23b6:	4d 8d       	ldd	r20, Y+29	; 0x1d
    23b8:	5e 8d       	ldd	r21, Y+30	; 0x1e
    23ba:	0e 94 44 4f 	call	0x9e88	; 0x9e88 <__subsf3>
    23be:	20 e0       	ldi	r18, 0x00	; 0
    23c0:	38 e1       	ldi	r19, 0x18	; 24
    23c2:	48 e8       	ldi	r20, 0x88	; 136
    23c4:	56 e4       	ldi	r21, 0x46	; 70
    23c6:	0e 94 0f 50 	call	0xa01e	; 0xa01e <__divsf3>
    23ca:	0e 94 36 4f 	call	0x9e6c	; 0x9e6c <acos>
    23ce:	20 e0       	ldi	r18, 0x00	; 0
    23d0:	30 e0       	ldi	r19, 0x00	; 0
    23d2:	44 e3       	ldi	r20, 0x34	; 52
    23d4:	53 e4       	ldi	r21, 0x43	; 67
    23d6:	0e 94 a5 51 	call	0xa34a	; 0xa34a <__mulsf3>
    23da:	28 ed       	ldi	r18, 0xD8	; 216
    23dc:	3f e0       	ldi	r19, 0x0F	; 15
    23de:	49 e4       	ldi	r20, 0x49	; 73
    23e0:	50 e4       	ldi	r21, 0x40	; 64
    23e2:	0e 94 0f 50 	call	0xa01e	; 0xa01e <__divsf3>
    23e6:	0e 94 77 50 	call	0xa0ee	; 0xa0ee <__fixsfsi>
    23ea:	ed 89       	ldd	r30, Y+21	; 0x15
    23ec:	fe 89       	ldd	r31, Y+22	; 0x16
    23ee:	e2 30       	cpi	r30, 0x02	; 2
    23f0:	f1 05       	cpc	r31, r1
    23f2:	09 f4       	brne	.+2      	; 0x23f6 <CalcStraightPath+0x42a>
    23f4:	57 c0       	rjmp	.+174    	; 0x24a4 <CalcStraightPath+0x4d8>
    23f6:	1c f4       	brge	.+6      	; 0x23fe <CalcStraightPath+0x432>
    23f8:	31 97       	sbiw	r30, 0x01	; 1
    23fa:	61 f0       	breq	.+24     	; 0x2414 <CalcStraightPath+0x448>
    23fc:	38 c1       	rjmp	.+624    	; 0x266e <CalcStraightPath+0x6a2>
    23fe:	2d 89       	ldd	r18, Y+21	; 0x15
    2400:	3e 89       	ldd	r19, Y+22	; 0x16
    2402:	23 30       	cpi	r18, 0x03	; 3
    2404:	31 05       	cpc	r19, r1
    2406:	09 f4       	brne	.+2      	; 0x240a <CalcStraightPath+0x43e>
    2408:	96 c0       	rjmp	.+300    	; 0x2536 <CalcStraightPath+0x56a>
    240a:	24 30       	cpi	r18, 0x04	; 4
    240c:	31 05       	cpc	r19, r1
    240e:	09 f4       	brne	.+2      	; 0x2412 <CalcStraightPath+0x446>
    2410:	e1 c0       	rjmp	.+450    	; 0x25d4 <CalcStraightPath+0x608>
    2412:	2d c1       	rjmp	.+602    	; 0x266e <CalcStraightPath+0x6a2>
    2414:	8d a0       	ldd	r8, Y+37	; 0x25
    2416:	9e a0       	ldd	r9, Y+38	; 0x26
    2418:	af a0       	ldd	r10, Y+39	; 0x27
    241a:	b8 a4       	ldd	r11, Y+40	; 0x28
    241c:	39 e6       	ldi	r19, 0x69	; 105
    241e:	83 0e       	add	r8, r19
    2420:	91 1c       	adc	r9, r1
    2422:	a1 1c       	adc	r10, r1
    2424:	b1 1c       	adc	r11, r1
    2426:	a9 a1       	ldd	r26, Y+33	; 0x21
    2428:	ba a1       	ldd	r27, Y+34	; 0x22
    242a:	8d 92       	st	X+, r8
    242c:	9d 92       	st	X+, r9
    242e:	ad 92       	st	X+, r10
    2430:	bc 92       	st	X, r11
    2432:	13 97       	sbiw	r26, 0x03	; 3
    2434:	bb e4       	ldi	r27, 0x4B	; 75
    2436:	cb 0e       	add	r12, r27
    2438:	d1 1c       	adc	r13, r1
    243a:	e1 1c       	adc	r14, r1
    243c:	f1 1c       	adc	r15, r1
    243e:	ef 8d       	ldd	r30, Y+31	; 0x1f
    2440:	f8 a1       	ldd	r31, Y+32	; 0x20
    2442:	c0 82       	st	Z, r12
    2444:	d1 82       	std	Z+1, r13	; 0x01
    2446:	e2 82       	std	Z+2, r14	; 0x02
    2448:	f3 82       	std	Z+3, r15	; 0x03
    244a:	dc 01       	movw	r26, r24
    244c:	cb 01       	movw	r24, r22
    244e:	01 96       	adiw	r24, 0x01	; 1
    2450:	a1 1d       	adc	r26, r1
    2452:	b1 1d       	adc	r27, r1
    2454:	eb a1       	ldd	r30, Y+35	; 0x23
    2456:	fc a1       	ldd	r31, Y+36	; 0x24
    2458:	80 83       	st	Z, r24
    245a:	91 83       	std	Z+1, r25	; 0x01
    245c:	a2 83       	std	Z+2, r26	; 0x02
    245e:	b3 83       	std	Z+3, r27	; 0x03
    2460:	29 85       	ldd	r18, Y+9	; 0x09
    2462:	3a 85       	ldd	r19, Y+10	; 0x0a
    2464:	4b 85       	ldd	r20, Y+11	; 0x0b
    2466:	5c 85       	ldd	r21, Y+12	; 0x0c
    2468:	d8 01       	movw	r26, r16
    246a:	2d 93       	st	X+, r18
    246c:	3d 93       	st	X+, r19
    246e:	4d 93       	st	X+, r20
    2470:	5c 93       	st	X, r21
    2472:	13 97       	sbiw	r26, 0x03	; 3
    2474:	f8 01       	movw	r30, r16
    2476:	e0 5b       	subi	r30, 0xB0	; 176
    2478:	ff 4f       	sbci	r31, 0xFF	; 255
    247a:	2d 85       	ldd	r18, Y+13	; 0x0d
    247c:	3e 85       	ldd	r19, Y+14	; 0x0e
    247e:	4f 85       	ldd	r20, Y+15	; 0x0f
    2480:	58 89       	ldd	r21, Y+16	; 0x10
    2482:	20 83       	st	Z, r18
    2484:	31 83       	std	Z+1, r19	; 0x01
    2486:	42 83       	std	Z+2, r20	; 0x02
    2488:	53 83       	std	Z+3, r21	; 0x03
    248a:	e0 5b       	subi	r30, 0xB0	; 176
    248c:	ff 4f       	sbci	r31, 0xFF	; 255
    248e:	63 96       	adiw	r28, 0x13	; 19
    2490:	8c ad       	ldd	r24, Y+60	; 0x3c
    2492:	9d ad       	ldd	r25, Y+61	; 0x3d
    2494:	ae ad       	ldd	r26, Y+62	; 0x3e
    2496:	bf ad       	ldd	r27, Y+63	; 0x3f
    2498:	63 97       	sbiw	r28, 0x13	; 19
    249a:	80 83       	st	Z, r24
    249c:	91 83       	std	Z+1, r25	; 0x01
    249e:	a2 83       	std	Z+2, r26	; 0x02
    24a0:	b3 83       	std	Z+3, r27	; 0x03
    24a2:	e5 c0       	rjmp	.+458    	; 0x266e <CalcStraightPath+0x6a2>
    24a4:	8d a0       	ldd	r8, Y+37	; 0x25
    24a6:	9e a0       	ldd	r9, Y+38	; 0x26
    24a8:	af a0       	ldd	r10, Y+39	; 0x27
    24aa:	b8 a4       	ldd	r11, Y+40	; 0x28
    24ac:	a1 ec       	ldi	r26, 0xC1	; 193
    24ae:	8a 0e       	add	r8, r26
    24b0:	91 1c       	adc	r9, r1
    24b2:	a1 1c       	adc	r10, r1
    24b4:	b1 1c       	adc	r11, r1
    24b6:	e9 a1       	ldd	r30, Y+33	; 0x21
    24b8:	fa a1       	ldd	r31, Y+34	; 0x22
    24ba:	80 82       	st	Z, r8
    24bc:	91 82       	std	Z+1, r9	; 0x01
    24be:	a2 82       	std	Z+2, r10	; 0x02
    24c0:	b3 82       	std	Z+3, r11	; 0x03
    24c2:	fb e4       	ldi	r31, 0x4B	; 75
    24c4:	cf 0e       	add	r12, r31
    24c6:	d1 1c       	adc	r13, r1
    24c8:	e1 1c       	adc	r14, r1
    24ca:	f1 1c       	adc	r15, r1
    24cc:	af 8d       	ldd	r26, Y+31	; 0x1f
    24ce:	b8 a1       	ldd	r27, Y+32	; 0x20
    24d0:	cd 92       	st	X+, r12
    24d2:	dd 92       	st	X+, r13
    24d4:	ed 92       	st	X+, r14
    24d6:	fc 92       	st	X, r15
    24d8:	13 97       	sbiw	r26, 0x03	; 3
    24da:	dc 01       	movw	r26, r24
    24dc:	cb 01       	movw	r24, r22
    24de:	03 96       	adiw	r24, 0x03	; 3
    24e0:	a1 1d       	adc	r26, r1
    24e2:	b1 1d       	adc	r27, r1
    24e4:	eb a1       	ldd	r30, Y+35	; 0x23
    24e6:	fc a1       	ldd	r31, Y+36	; 0x24
    24e8:	80 83       	st	Z, r24
    24ea:	91 83       	std	Z+1, r25	; 0x01
    24ec:	a2 83       	std	Z+2, r26	; 0x02
    24ee:	b3 83       	std	Z+3, r27	; 0x03
    24f0:	f8 01       	movw	r30, r16
    24f2:	e0 51       	subi	r30, 0x10	; 16
    24f4:	ff 4f       	sbci	r31, 0xFF	; 255
    24f6:	89 85       	ldd	r24, Y+9	; 0x09
    24f8:	9a 85       	ldd	r25, Y+10	; 0x0a
    24fa:	ab 85       	ldd	r26, Y+11	; 0x0b
    24fc:	bc 85       	ldd	r27, Y+12	; 0x0c
    24fe:	b0 58       	subi	r27, 0x80	; 128
    2500:	80 83       	st	Z, r24
    2502:	91 83       	std	Z+1, r25	; 0x01
    2504:	a2 83       	std	Z+2, r26	; 0x02
    2506:	b3 83       	std	Z+3, r27	; 0x03
    2508:	e0 5b       	subi	r30, 0xB0	; 176
    250a:	ff 4f       	sbci	r31, 0xFF	; 255
    250c:	2d 85       	ldd	r18, Y+13	; 0x0d
    250e:	3e 85       	ldd	r19, Y+14	; 0x0e
    2510:	4f 85       	ldd	r20, Y+15	; 0x0f
    2512:	58 89       	ldd	r21, Y+16	; 0x10
    2514:	20 83       	st	Z, r18
    2516:	31 83       	std	Z+1, r19	; 0x01
    2518:	42 83       	std	Z+2, r20	; 0x02
    251a:	53 83       	std	Z+3, r21	; 0x03
    251c:	e0 5b       	subi	r30, 0xB0	; 176
    251e:	ff 4f       	sbci	r31, 0xFF	; 255
    2520:	63 96       	adiw	r28, 0x13	; 19
    2522:	8c ad       	ldd	r24, Y+60	; 0x3c
    2524:	9d ad       	ldd	r25, Y+61	; 0x3d
    2526:	ae ad       	ldd	r26, Y+62	; 0x3e
    2528:	bf ad       	ldd	r27, Y+63	; 0x3f
    252a:	63 97       	sbiw	r28, 0x13	; 19
    252c:	80 83       	st	Z, r24
    252e:	91 83       	std	Z+1, r25	; 0x01
    2530:	a2 83       	std	Z+2, r26	; 0x02
    2532:	b3 83       	std	Z+3, r27	; 0x03
    2534:	9c c0       	rjmp	.+312    	; 0x266e <CalcStraightPath+0x6a2>
    2536:	8d a0       	ldd	r8, Y+37	; 0x25
    2538:	9e a0       	ldd	r9, Y+38	; 0x26
    253a:	af a0       	ldd	r10, Y+39	; 0x27
    253c:	b8 a4       	ldd	r11, Y+40	; 0x28
    253e:	a3 ec       	ldi	r26, 0xC3	; 195
    2540:	8a 0e       	add	r8, r26
    2542:	91 1c       	adc	r9, r1
    2544:	a1 1c       	adc	r10, r1
    2546:	b1 1c       	adc	r11, r1
    2548:	e9 a1       	ldd	r30, Y+33	; 0x21
    254a:	fa a1       	ldd	r31, Y+34	; 0x22
    254c:	80 82       	st	Z, r8
    254e:	91 82       	std	Z+1, r9	; 0x01
    2550:	a2 82       	std	Z+2, r10	; 0x02
    2552:	b3 82       	std	Z+3, r11	; 0x03
    2554:	21 ee       	ldi	r18, 0xE1	; 225
    2556:	30 e0       	ldi	r19, 0x00	; 0
    2558:	40 e0       	ldi	r20, 0x00	; 0
    255a:	50 e0       	ldi	r21, 0x00	; 0
    255c:	2c 19       	sub	r18, r12
    255e:	3d 09       	sbc	r19, r13
    2560:	4e 09       	sbc	r20, r14
    2562:	5f 09       	sbc	r21, r15
    2564:	af 8d       	ldd	r26, Y+31	; 0x1f
    2566:	b8 a1       	ldd	r27, Y+32	; 0x20
    2568:	2d 93       	st	X+, r18
    256a:	3d 93       	st	X+, r19
    256c:	4d 93       	st	X+, r20
    256e:	5c 93       	st	X, r21
    2570:	13 97       	sbiw	r26, 0x03	; 3
    2572:	2c e2       	ldi	r18, 0x2C	; 44
    2574:	31 e0       	ldi	r19, 0x01	; 1
    2576:	40 e0       	ldi	r20, 0x00	; 0
    2578:	50 e0       	ldi	r21, 0x00	; 0
    257a:	26 1b       	sub	r18, r22
    257c:	37 0b       	sbc	r19, r23
    257e:	48 0b       	sbc	r20, r24
    2580:	59 0b       	sbc	r21, r25
    2582:	eb a1       	ldd	r30, Y+35	; 0x23
    2584:	fc a1       	ldd	r31, Y+36	; 0x24
    2586:	20 83       	st	Z, r18
    2588:	31 83       	std	Z+1, r19	; 0x01
    258a:	42 83       	std	Z+2, r20	; 0x02
    258c:	53 83       	std	Z+3, r21	; 0x03
    258e:	f8 01       	movw	r30, r16
    2590:	e0 52       	subi	r30, 0x20	; 32
    2592:	fe 4f       	sbci	r31, 0xFE	; 254
    2594:	89 85       	ldd	r24, Y+9	; 0x09
    2596:	9a 85       	ldd	r25, Y+10	; 0x0a
    2598:	ab 85       	ldd	r26, Y+11	; 0x0b
    259a:	bc 85       	ldd	r27, Y+12	; 0x0c
    259c:	b0 58       	subi	r27, 0x80	; 128
    259e:	80 83       	st	Z, r24
    25a0:	91 83       	std	Z+1, r25	; 0x01
    25a2:	a2 83       	std	Z+2, r26	; 0x02
    25a4:	b3 83       	std	Z+3, r27	; 0x03
    25a6:	e0 5b       	subi	r30, 0xB0	; 176
    25a8:	ff 4f       	sbci	r31, 0xFF	; 255
    25aa:	2d 85       	ldd	r18, Y+13	; 0x0d
    25ac:	3e 85       	ldd	r19, Y+14	; 0x0e
    25ae:	4f 85       	ldd	r20, Y+15	; 0x0f
    25b0:	58 89       	ldd	r21, Y+16	; 0x10
    25b2:	20 83       	st	Z, r18
    25b4:	31 83       	std	Z+1, r19	; 0x01
    25b6:	42 83       	std	Z+2, r20	; 0x02
    25b8:	53 83       	std	Z+3, r21	; 0x03
    25ba:	e0 5b       	subi	r30, 0xB0	; 176
    25bc:	ff 4f       	sbci	r31, 0xFF	; 255
    25be:	63 96       	adiw	r28, 0x13	; 19
    25c0:	8c ad       	ldd	r24, Y+60	; 0x3c
    25c2:	9d ad       	ldd	r25, Y+61	; 0x3d
    25c4:	ae ad       	ldd	r26, Y+62	; 0x3e
    25c6:	bf ad       	ldd	r27, Y+63	; 0x3f
    25c8:	63 97       	sbiw	r28, 0x13	; 19
    25ca:	80 83       	st	Z, r24
    25cc:	91 83       	std	Z+1, r25	; 0x01
    25ce:	a2 83       	std	Z+2, r26	; 0x02
    25d0:	b3 83       	std	Z+3, r27	; 0x03
    25d2:	4d c0       	rjmp	.+154    	; 0x266e <CalcStraightPath+0x6a2>
    25d4:	8d a0       	ldd	r8, Y+37	; 0x25
    25d6:	9e a0       	ldd	r9, Y+38	; 0x26
    25d8:	af a0       	ldd	r10, Y+39	; 0x27
    25da:	b8 a4       	ldd	r11, Y+40	; 0x28
    25dc:	a9 e6       	ldi	r26, 0x69	; 105
    25de:	8a 0e       	add	r8, r26
    25e0:	91 1c       	adc	r9, r1
    25e2:	a1 1c       	adc	r10, r1
    25e4:	b1 1c       	adc	r11, r1
    25e6:	e9 a1       	ldd	r30, Y+33	; 0x21
    25e8:	fa a1       	ldd	r31, Y+34	; 0x22
    25ea:	80 82       	st	Z, r8
    25ec:	91 82       	std	Z+1, r9	; 0x01
    25ee:	a2 82       	std	Z+2, r10	; 0x02
    25f0:	b3 82       	std	Z+3, r11	; 0x03
    25f2:	21 ee       	ldi	r18, 0xE1	; 225
    25f4:	30 e0       	ldi	r19, 0x00	; 0
    25f6:	40 e0       	ldi	r20, 0x00	; 0
    25f8:	50 e0       	ldi	r21, 0x00	; 0
    25fa:	2c 19       	sub	r18, r12
    25fc:	3d 09       	sbc	r19, r13
    25fe:	4e 09       	sbc	r20, r14
    2600:	5f 09       	sbc	r21, r15
    2602:	af 8d       	ldd	r26, Y+31	; 0x1f
    2604:	b8 a1       	ldd	r27, Y+32	; 0x20
    2606:	2d 93       	st	X+, r18
    2608:	3d 93       	st	X+, r19
    260a:	4d 93       	st	X+, r20
    260c:	5c 93       	st	X, r21
    260e:	13 97       	sbiw	r26, 0x03	; 3
    2610:	2c e2       	ldi	r18, 0x2C	; 44
    2612:	31 e0       	ldi	r19, 0x01	; 1
    2614:	40 e0       	ldi	r20, 0x00	; 0
    2616:	50 e0       	ldi	r21, 0x00	; 0
    2618:	26 1b       	sub	r18, r22
    261a:	37 0b       	sbc	r19, r23
    261c:	48 0b       	sbc	r20, r24
    261e:	59 0b       	sbc	r21, r25
    2620:	eb a1       	ldd	r30, Y+35	; 0x23
    2622:	fc a1       	ldd	r31, Y+36	; 0x24
    2624:	20 83       	st	Z, r18
    2626:	31 83       	std	Z+1, r19	; 0x01
    2628:	42 83       	std	Z+2, r20	; 0x02
    262a:	53 83       	std	Z+3, r21	; 0x03
    262c:	f8 01       	movw	r30, r16
    262e:	e0 53       	subi	r30, 0x30	; 48
    2630:	fd 4f       	sbci	r31, 0xFD	; 253
    2632:	29 85       	ldd	r18, Y+9	; 0x09
    2634:	3a 85       	ldd	r19, Y+10	; 0x0a
    2636:	4b 85       	ldd	r20, Y+11	; 0x0b
    2638:	5c 85       	ldd	r21, Y+12	; 0x0c
    263a:	20 83       	st	Z, r18
    263c:	31 83       	std	Z+1, r19	; 0x01
    263e:	42 83       	std	Z+2, r20	; 0x02
    2640:	53 83       	std	Z+3, r21	; 0x03
    2642:	e0 5b       	subi	r30, 0xB0	; 176
    2644:	ff 4f       	sbci	r31, 0xFF	; 255
    2646:	8d 85       	ldd	r24, Y+13	; 0x0d
    2648:	9e 85       	ldd	r25, Y+14	; 0x0e
    264a:	af 85       	ldd	r26, Y+15	; 0x0f
    264c:	b8 89       	ldd	r27, Y+16	; 0x10
    264e:	80 83       	st	Z, r24
    2650:	91 83       	std	Z+1, r25	; 0x01
    2652:	a2 83       	std	Z+2, r26	; 0x02
    2654:	b3 83       	std	Z+3, r27	; 0x03
    2656:	e0 5b       	subi	r30, 0xB0	; 176
    2658:	ff 4f       	sbci	r31, 0xFF	; 255
    265a:	63 96       	adiw	r28, 0x13	; 19
    265c:	2c ad       	ldd	r18, Y+60	; 0x3c
    265e:	3d ad       	ldd	r19, Y+61	; 0x3d
    2660:	4e ad       	ldd	r20, Y+62	; 0x3e
    2662:	5f ad       	ldd	r21, Y+63	; 0x3f
    2664:	63 97       	sbiw	r28, 0x13	; 19
    2666:	20 83       	st	Z, r18
    2668:	31 83       	std	Z+1, r19	; 0x01
    266a:	42 83       	std	Z+2, r20	; 0x02
    266c:	53 83       	std	Z+3, r21	; 0x03
    266e:	3f ef       	ldi	r19, 0xFF	; 255
    2670:	23 1a       	sub	r2, r19
    2672:	33 0a       	sbc	r3, r19
    2674:	49 a1       	ldd	r20, Y+33	; 0x21
    2676:	5a a1       	ldd	r21, Y+34	; 0x22
    2678:	4c 5f       	subi	r20, 0xFC	; 252
    267a:	5f 4f       	sbci	r21, 0xFF	; 255
    267c:	5a a3       	std	Y+34, r21	; 0x22
    267e:	49 a3       	std	Y+33, r20	; 0x21
    2680:	8f 8d       	ldd	r24, Y+31	; 0x1f
    2682:	98 a1       	ldd	r25, Y+32	; 0x20
    2684:	04 96       	adiw	r24, 0x04	; 4
    2686:	98 a3       	std	Y+32, r25	; 0x20
    2688:	8f 8f       	std	Y+31, r24	; 0x1f
    268a:	ab a1       	ldd	r26, Y+35	; 0x23
    268c:	bc a1       	ldd	r27, Y+36	; 0x24
    268e:	14 96       	adiw	r26, 0x04	; 4
    2690:	bc a3       	std	Y+36, r27	; 0x24
    2692:	ab a3       	std	Y+35, r26	; 0x23
    2694:	0c 5f       	subi	r16, 0xFC	; 252
    2696:	1f 4f       	sbci	r17, 0xFF	; 255
    2698:	e9 a5       	ldd	r30, Y+41	; 0x29
    269a:	fa a5       	ldd	r31, Y+42	; 0x2a
    269c:	2e 16       	cp	r2, r30
    269e:	3f 06       	cpc	r3, r31
    26a0:	09 f0       	breq	.+2      	; 0x26a4 <CalcStraightPath+0x6d8>
    26a2:	8a cd       	rjmp	.-1260   	; 0x21b8 <CalcStraightPath+0x1ec>
    26a4:	e6 96       	adiw	r28, 0x36	; 54
    26a6:	0f b6       	in	r0, 0x3f	; 63
    26a8:	f8 94       	cli
    26aa:	de bf       	out	0x3e, r29	; 62
    26ac:	0f be       	out	0x3f, r0	; 63
    26ae:	cd bf       	out	0x3d, r28	; 61
    26b0:	df 91       	pop	r29
    26b2:	cf 91       	pop	r28
    26b4:	1f 91       	pop	r17
    26b6:	0f 91       	pop	r16
    26b8:	ff 90       	pop	r15
    26ba:	ef 90       	pop	r14
    26bc:	df 90       	pop	r13
    26be:	cf 90       	pop	r12
    26c0:	bf 90       	pop	r11
    26c2:	af 90       	pop	r10
    26c4:	9f 90       	pop	r9
    26c6:	8f 90       	pop	r8
    26c8:	7f 90       	pop	r7
    26ca:	6f 90       	pop	r6
    26cc:	5f 90       	pop	r5
    26ce:	4f 90       	pop	r4
    26d0:	3f 90       	pop	r3
    26d2:	2f 90       	pop	r2
    26d4:	08 95       	ret

000026d6 <CalcCurvedPath>:
    26d6:	2f 92       	push	r2
    26d8:	3f 92       	push	r3
    26da:	4f 92       	push	r4
    26dc:	5f 92       	push	r5
    26de:	6f 92       	push	r6
    26e0:	7f 92       	push	r7
    26e2:	8f 92       	push	r8
    26e4:	9f 92       	push	r9
    26e6:	af 92       	push	r10
    26e8:	bf 92       	push	r11
    26ea:	cf 92       	push	r12
    26ec:	df 92       	push	r13
    26ee:	ef 92       	push	r14
    26f0:	ff 92       	push	r15
    26f2:	0f 93       	push	r16
    26f4:	1f 93       	push	r17
    26f6:	cf 93       	push	r28
    26f8:	df 93       	push	r29
    26fa:	cd b7       	in	r28, 0x3d	; 61
    26fc:	de b7       	in	r29, 0x3e	; 62
    26fe:	ca 54       	subi	r28, 0x4A	; 74
    2700:	d1 09       	sbc	r29, r1
    2702:	0f b6       	in	r0, 0x3f	; 63
    2704:	f8 94       	cli
    2706:	de bf       	out	0x3e, r29	; 62
    2708:	0f be       	out	0x3f, r0	; 63
    270a:	cd bf       	out	0x3d, r28	; 61
    270c:	29 83       	std	Y+1, r18	; 0x01
    270e:	3a 83       	std	Y+2, r19	; 0x02
    2710:	4b 83       	std	Y+3, r20	; 0x03
    2712:	5c 83       	std	Y+4, r21	; 0x04
    2714:	6d 83       	std	Y+5, r22	; 0x05
    2716:	7e 83       	std	Y+6, r23	; 0x06
    2718:	8f 83       	std	Y+7, r24	; 0x07
    271a:	98 87       	std	Y+8, r25	; 0x08
    271c:	25 96       	adiw	r28, 0x05	; 5
    271e:	1f af       	std	Y+63, r17	; 0x3f
    2720:	0e af       	std	Y+62, r16	; 0x3e
    2722:	25 97       	sbiw	r28, 0x05	; 5
    2724:	fc aa       	std	Y+52, r15	; 0x34
    2726:	eb aa       	std	Y+51, r14	; 0x33
    2728:	a7 96       	adiw	r28, 0x27	; 39
    272a:	4c ac       	ldd	r4, Y+60	; 0x3c
    272c:	5d ac       	ldd	r5, Y+61	; 0x3d
    272e:	6e ac       	ldd	r6, Y+62	; 0x3e
    2730:	7f ac       	ldd	r7, Y+63	; 0x3f
    2732:	a7 97       	sbiw	r28, 0x27	; 39
    2734:	29 80       	ldd	r2, Y+1	; 0x01
    2736:	3a 80       	ldd	r3, Y+2	; 0x02
    2738:	2b 81       	ldd	r18, Y+3	; 0x03
    273a:	3c 81       	ldd	r19, Y+4	; 0x04
    273c:	27 96       	adiw	r28, 0x07	; 7
    273e:	3f af       	std	Y+63, r19	; 0x3f
    2740:	2e af       	std	Y+62, r18	; 0x3e
    2742:	27 97       	sbiw	r28, 0x07	; 7
    2744:	4d 81       	ldd	r20, Y+5	; 0x05
    2746:	5e 81       	ldd	r21, Y+6	; 0x06
    2748:	29 96       	adiw	r28, 0x09	; 9
    274a:	5f af       	std	Y+63, r21	; 0x3f
    274c:	4e af       	std	Y+62, r20	; 0x3e
    274e:	29 97       	sbiw	r28, 0x09	; 9
    2750:	8f 81       	ldd	r24, Y+7	; 0x07
    2752:	98 85       	ldd	r25, Y+8	; 0x08
    2754:	2b 96       	adiw	r28, 0x0b	; 11
    2756:	9f af       	std	Y+63, r25	; 0x3f
    2758:	8e af       	std	Y+62, r24	; 0x3e
    275a:	2b 97       	sbiw	r28, 0x0b	; 11
    275c:	11 23       	and	r17, r17
    275e:	14 f4       	brge	.+4      	; 0x2764 <CalcCurvedPath+0x8e>
    2760:	0f 5f       	subi	r16, 0xFF	; 255
    2762:	1f 4f       	sbci	r17, 0xFF	; 255
    2764:	15 95       	asr	r17
    2766:	07 95       	ror	r16
    2768:	ab a9       	ldd	r26, Y+51	; 0x33
    276a:	bc a9       	ldd	r27, Y+52	; 0x34
    276c:	a0 0f       	add	r26, r16
    276e:	b1 1f       	adc	r27, r17
    2770:	ba a7       	std	Y+42, r27	; 0x2a
    2772:	a9 a7       	std	Y+41, r26	; 0x29
    2774:	11 97       	sbiw	r26, 0x01	; 1
    2776:	ba af       	std	Y+58, r27	; 0x3a
    2778:	a9 af       	std	Y+57, r26	; 0x39
    277a:	c1 01       	movw	r24, r2
    277c:	01 97       	sbiw	r24, 0x01	; 1
    277e:	02 97       	sbiw	r24, 0x02	; 2
    2780:	88 f4       	brcc	.+34     	; 0x27a4 <CalcCurvedPath+0xce>
    2782:	d7 fa       	bst	r13, 7
    2784:	d0 94       	com	r13
    2786:	d7 f8       	bld	r13, 7
    2788:	d0 94       	com	r13
    278a:	ab 96       	adiw	r28, 0x2b	; 43
    278c:	2c ad       	ldd	r18, Y+60	; 0x3c
    278e:	3d ad       	ldd	r19, Y+61	; 0x3d
    2790:	4e ad       	ldd	r20, Y+62	; 0x3e
    2792:	5f ad       	ldd	r21, Y+63	; 0x3f
    2794:	ab 97       	sbiw	r28, 0x2b	; 43
    2796:	50 58       	subi	r21, 0x80	; 128
    2798:	ab 96       	adiw	r28, 0x2b	; 43
    279a:	2c af       	std	Y+60, r18	; 0x3c
    279c:	3d af       	std	Y+61, r19	; 0x3d
    279e:	4e af       	std	Y+62, r20	; 0x3e
    27a0:	5f af       	std	Y+63, r21	; 0x3f
    27a2:	ab 97       	sbiw	r28, 0x2b	; 43
    27a4:	c1 01       	movw	r24, r2
    27a6:	03 97       	sbiw	r24, 0x03	; 3
    27a8:	02 97       	sbiw	r24, 0x02	; 2
    27aa:	d0 f4       	brcc	.+52     	; 0x27e0 <CalcCurvedPath+0x10a>
    27ac:	a3 96       	adiw	r28, 0x23	; 35
    27ae:	8c ad       	ldd	r24, Y+60	; 0x3c
    27b0:	9d ad       	ldd	r25, Y+61	; 0x3d
    27b2:	ae ad       	ldd	r26, Y+62	; 0x3e
    27b4:	bf ad       	ldd	r27, Y+63	; 0x3f
    27b6:	a3 97       	sbiw	r28, 0x23	; 35
    27b8:	b0 58       	subi	r27, 0x80	; 128
    27ba:	a3 96       	adiw	r28, 0x23	; 35
    27bc:	8c af       	std	Y+60, r24	; 0x3c
    27be:	9d af       	std	Y+61, r25	; 0x3d
    27c0:	ae af       	std	Y+62, r26	; 0x3e
    27c2:	bf af       	std	Y+63, r27	; 0x3f
    27c4:	a3 97       	sbiw	r28, 0x23	; 35
    27c6:	af 96       	adiw	r28, 0x2f	; 47
    27c8:	2c ad       	ldd	r18, Y+60	; 0x3c
    27ca:	3d ad       	ldd	r19, Y+61	; 0x3d
    27cc:	4e ad       	ldd	r20, Y+62	; 0x3e
    27ce:	5f ad       	ldd	r21, Y+63	; 0x3f
    27d0:	af 97       	sbiw	r28, 0x2f	; 47
    27d2:	50 58       	subi	r21, 0x80	; 128
    27d4:	af 96       	adiw	r28, 0x2f	; 47
    27d6:	2c af       	std	Y+60, r18	; 0x3c
    27d8:	3d af       	std	Y+61, r19	; 0x3d
    27da:	4e af       	std	Y+62, r20	; 0x3e
    27dc:	5f af       	std	Y+63, r21	; 0x3f
    27de:	af 97       	sbiw	r28, 0x2f	; 47
    27e0:	25 96       	adiw	r28, 0x05	; 5
    27e2:	4e ad       	ldd	r20, Y+62	; 0x3e
    27e4:	5f ad       	ldd	r21, Y+63	; 0x3f
    27e6:	25 97       	sbiw	r28, 0x05	; 5
    27e8:	ba 01       	movw	r22, r20
    27ea:	88 27       	eor	r24, r24
    27ec:	77 fd       	sbrc	r23, 7
    27ee:	80 95       	com	r24
    27f0:	98 2f       	mov	r25, r24
    27f2:	0e 94 aa 50 	call	0xa154	; 0xa154 <__floatsisf>
    27f6:	69 87       	std	Y+9, r22	; 0x09
    27f8:	7a 87       	std	Y+10, r23	; 0x0a
    27fa:	8b 87       	std	Y+11, r24	; 0x0b
    27fc:	9c 87       	std	Y+12, r25	; 0x0c
    27fe:	a6 01       	movw	r20, r12
    2800:	95 01       	movw	r18, r10
    2802:	ab 96       	adiw	r28, 0x2b	; 43
    2804:	6c ad       	ldd	r22, Y+60	; 0x3c
    2806:	7d ad       	ldd	r23, Y+61	; 0x3d
    2808:	8e ad       	ldd	r24, Y+62	; 0x3e
    280a:	9f ad       	ldd	r25, Y+63	; 0x3f
    280c:	ab 97       	sbiw	r28, 0x2b	; 43
    280e:	0e 94 44 4f 	call	0x9e88	; 0x9e88 <__subsf3>
    2812:	29 85       	ldd	r18, Y+9	; 0x09
    2814:	3a 85       	ldd	r19, Y+10	; 0x0a
    2816:	4b 85       	ldd	r20, Y+11	; 0x0b
    2818:	5c 85       	ldd	r21, Y+12	; 0x0c
    281a:	0e 94 0f 50 	call	0xa01e	; 0xa01e <__divsf3>
    281e:	6b a7       	std	Y+43, r22	; 0x2b
    2820:	7c a7       	std	Y+44, r23	; 0x2c
    2822:	8d a7       	std	Y+45, r24	; 0x2d
    2824:	9e a7       	std	Y+46, r25	; 0x2e
    2826:	a3 96       	adiw	r28, 0x23	; 35
    2828:	2c ad       	ldd	r18, Y+60	; 0x3c
    282a:	3d ad       	ldd	r19, Y+61	; 0x3d
    282c:	4e ad       	ldd	r20, Y+62	; 0x3e
    282e:	5f ad       	ldd	r21, Y+63	; 0x3f
    2830:	a3 97       	sbiw	r28, 0x23	; 35
    2832:	af 96       	adiw	r28, 0x2f	; 47
    2834:	6c ad       	ldd	r22, Y+60	; 0x3c
    2836:	7d ad       	ldd	r23, Y+61	; 0x3d
    2838:	8e ad       	ldd	r24, Y+62	; 0x3e
    283a:	9f ad       	ldd	r25, Y+63	; 0x3f
    283c:	af 97       	sbiw	r28, 0x2f	; 47
    283e:	0e 94 44 4f 	call	0x9e88	; 0x9e88 <__subsf3>
    2842:	29 85       	ldd	r18, Y+9	; 0x09
    2844:	3a 85       	ldd	r19, Y+10	; 0x0a
    2846:	4b 85       	ldd	r20, Y+11	; 0x0b
    2848:	5c 85       	ldd	r21, Y+12	; 0x0c
    284a:	0e 94 0f 50 	call	0xa01e	; 0xa01e <__divsf3>
    284e:	6f a7       	std	Y+47, r22	; 0x2f
    2850:	78 ab       	std	Y+48, r23	; 0x30
    2852:	89 ab       	std	Y+49, r24	; 0x31
    2854:	9a ab       	std	Y+50, r25	; 0x32
    2856:	60 91 58 01 	lds	r22, 0x0158
    285a:	70 91 59 01 	lds	r23, 0x0159
    285e:	88 27       	eor	r24, r24
    2860:	77 fd       	sbrc	r23, 7
    2862:	80 95       	com	r24
    2864:	98 2f       	mov	r25, r24
    2866:	0e 94 aa 50 	call	0xa154	; 0xa154 <__floatsisf>
    286a:	69 87       	std	Y+9, r22	; 0x09
    286c:	7a 87       	std	Y+10, r23	; 0x0a
    286e:	8b 87       	std	Y+11, r24	; 0x0b
    2870:	9c 87       	std	Y+12, r25	; 0x0c
    2872:	b8 01       	movw	r22, r16
    2874:	88 27       	eor	r24, r24
    2876:	77 fd       	sbrc	r23, 7
    2878:	80 95       	com	r24
    287a:	98 2f       	mov	r25, r24
    287c:	0e 94 aa 50 	call	0xa154	; 0xa154 <__floatsisf>
    2880:	6d 87       	std	Y+13, r22	; 0x0d
    2882:	7e 87       	std	Y+14, r23	; 0x0e
    2884:	8f 87       	std	Y+15, r24	; 0x0f
    2886:	98 8b       	std	Y+16, r25	; 0x10
    2888:	e3 96       	adiw	r28, 0x33	; 51
    288a:	2c ad       	ldd	r18, Y+60	; 0x3c
    288c:	3d ad       	ldd	r19, Y+61	; 0x3d
    288e:	4e ad       	ldd	r20, Y+62	; 0x3e
    2890:	5f ad       	ldd	r21, Y+63	; 0x3f
    2892:	e3 97       	sbiw	r28, 0x33	; 51
    2894:	69 85       	ldd	r22, Y+9	; 0x09
    2896:	7a 85       	ldd	r23, Y+10	; 0x0a
    2898:	8b 85       	ldd	r24, Y+11	; 0x0b
    289a:	9c 85       	ldd	r25, Y+12	; 0x0c
    289c:	0e 94 45 4f 	call	0x9e8a	; 0x9e8a <__addsf3>
    28a0:	a3 01       	movw	r20, r6
    28a2:	92 01       	movw	r18, r4
    28a4:	0e 94 44 4f 	call	0x9e88	; 0x9e88 <__subsf3>
    28a8:	2d 85       	ldd	r18, Y+13	; 0x0d
    28aa:	3e 85       	ldd	r19, Y+14	; 0x0e
    28ac:	4f 85       	ldd	r20, Y+15	; 0x0f
    28ae:	58 89       	ldd	r21, Y+16	; 0x10
    28b0:	0e 94 0f 50 	call	0xa01e	; 0xa01e <__divsf3>
    28b4:	6b af       	std	Y+59, r22	; 0x3b
    28b6:	7c af       	std	Y+60, r23	; 0x3c
    28b8:	8d af       	std	Y+61, r24	; 0x3d
    28ba:	9e af       	std	Y+62, r25	; 0x3e
    28bc:	a3 01       	movw	r20, r6
    28be:	92 01       	movw	r18, r4
    28c0:	e3 96       	adiw	r28, 0x33	; 51
    28c2:	6c ad       	ldd	r22, Y+60	; 0x3c
    28c4:	7d ad       	ldd	r23, Y+61	; 0x3d
    28c6:	8e ad       	ldd	r24, Y+62	; 0x3e
    28c8:	9f ad       	ldd	r25, Y+63	; 0x3f
    28ca:	e3 97       	sbiw	r28, 0x33	; 51
    28cc:	0e 94 44 4f 	call	0x9e88	; 0x9e88 <__subsf3>
    28d0:	29 85       	ldd	r18, Y+9	; 0x09
    28d2:	3a 85       	ldd	r19, Y+10	; 0x0a
    28d4:	4b 85       	ldd	r20, Y+11	; 0x0b
    28d6:	5c 85       	ldd	r21, Y+12	; 0x0c
    28d8:	0e 94 44 4f 	call	0x9e88	; 0x9e88 <__subsf3>
    28dc:	2d 85       	ldd	r18, Y+13	; 0x0d
    28de:	3e 85       	ldd	r19, Y+14	; 0x0e
    28e0:	4f 85       	ldd	r20, Y+15	; 0x0f
    28e2:	58 89       	ldd	r21, Y+16	; 0x10
    28e4:	0e 94 0f 50 	call	0xa01e	; 0xa01e <__divsf3>
    28e8:	23 96       	adiw	r28, 0x03	; 3
    28ea:	6c af       	std	Y+60, r22	; 0x3c
    28ec:	7d af       	std	Y+61, r23	; 0x3d
    28ee:	8e af       	std	Y+62, r24	; 0x3e
    28f0:	9f af       	std	Y+63, r25	; 0x3f
    28f2:	23 97       	sbiw	r28, 0x03	; 3
    28f4:	8b a9       	ldd	r24, Y+51	; 0x33
    28f6:	9c a9       	ldd	r25, Y+52	; 0x34
    28f8:	a9 ad       	ldd	r26, Y+57	; 0x39
    28fa:	ba ad       	ldd	r27, Y+58	; 0x3a
    28fc:	a8 17       	cp	r26, r24
    28fe:	b9 07       	cpc	r27, r25
    2900:	0c f4       	brge	.+2      	; 0x2904 <CalcCurvedPath+0x22e>
    2902:	d3 c2       	rjmp	.+1446   	; 0x2eaa <CalcCurvedPath+0x7d4>
    2904:	24 e1       	ldi	r18, 0x14	; 20
    2906:	27 96       	adiw	r28, 0x07	; 7
    2908:	ee ad       	ldd	r30, Y+62	; 0x3e
    290a:	ff ad       	ldd	r31, Y+63	; 0x3f
    290c:	27 97       	sbiw	r28, 0x07	; 7
    290e:	2e 9f       	mul	r18, r30
    2910:	c0 01       	movw	r24, r0
    2912:	2f 9f       	mul	r18, r31
    2914:	90 0d       	add	r25, r0
    2916:	11 24       	eor	r1, r1
    2918:	4b a9       	ldd	r20, Y+51	; 0x33
    291a:	5c a9       	ldd	r21, Y+52	; 0x34
    291c:	84 0f       	add	r24, r20
    291e:	95 1f       	adc	r25, r21
    2920:	88 0f       	add	r24, r24
    2922:	99 1f       	adc	r25, r25
    2924:	88 0f       	add	r24, r24
    2926:	99 1f       	adc	r25, r25
    2928:	dc 01       	movw	r26, r24
    292a:	a5 5b       	subi	r26, 0xB5	; 181
    292c:	bf 4e       	sbci	r27, 0xEF	; 239
    292e:	ba a3       	std	Y+34, r27	; 0x22
    2930:	a9 a3       	std	Y+33, r26	; 0x21
    2932:	29 96       	adiw	r28, 0x09	; 9
    2934:	ee ad       	ldd	r30, Y+62	; 0x3e
    2936:	ff ad       	ldd	r31, Y+63	; 0x3f
    2938:	29 97       	sbiw	r28, 0x09	; 9
    293a:	2e 9f       	mul	r18, r30
    293c:	c0 01       	movw	r24, r0
    293e:	2f 9f       	mul	r18, r31
    2940:	90 0d       	add	r25, r0
    2942:	11 24       	eor	r1, r1
    2944:	84 0f       	add	r24, r20
    2946:	95 1f       	adc	r25, r21
    2948:	88 0f       	add	r24, r24
    294a:	99 1f       	adc	r25, r25
    294c:	88 0f       	add	r24, r24
    294e:	99 1f       	adc	r25, r25
    2950:	ac 01       	movw	r20, r24
    2952:	45 5b       	subi	r20, 0xB5	; 181
    2954:	5f 4e       	sbci	r21, 0xEF	; 239
    2956:	5c a3       	std	Y+36, r21	; 0x24
    2958:	4b a3       	std	Y+35, r20	; 0x23
    295a:	2b 96       	adiw	r28, 0x0b	; 11
    295c:	ae ad       	ldd	r26, Y+62	; 0x3e
    295e:	bf ad       	ldd	r27, Y+63	; 0x3f
    2960:	2b 97       	sbiw	r28, 0x0b	; 11
    2962:	2a 9f       	mul	r18, r26
    2964:	c0 01       	movw	r24, r0
    2966:	2b 9f       	mul	r18, r27
    2968:	90 0d       	add	r25, r0
    296a:	11 24       	eor	r1, r1
    296c:	eb a9       	ldd	r30, Y+51	; 0x33
    296e:	fc a9       	ldd	r31, Y+52	; 0x34
    2970:	8e 0f       	add	r24, r30
    2972:	9f 1f       	adc	r25, r31
    2974:	88 0f       	add	r24, r24
    2976:	99 1f       	adc	r25, r25
    2978:	88 0f       	add	r24, r24
    297a:	99 1f       	adc	r25, r25
    297c:	9c 01       	movw	r18, r24
    297e:	25 5b       	subi	r18, 0xB5	; 181
    2980:	3f 4e       	sbci	r19, 0xEF	; 239
    2982:	8f 01       	movw	r16, r30
    2984:	00 0f       	add	r16, r16
    2986:	11 1f       	adc	r17, r17
    2988:	00 0f       	add	r16, r16
    298a:	11 1f       	adc	r17, r17
    298c:	0b 57       	subi	r16, 0x7B	; 123
    298e:	13 4f       	sbci	r17, 0xF3	; 243
    2990:	3e 8a       	std	Y+22, r3	; 0x16
    2992:	2d 8a       	std	Y+21, r2	; 0x15
    2994:	1f 01       	movw	r2, r30
    2996:	3e a3       	std	Y+38, r19	; 0x26
    2998:	2d a3       	std	Y+37, r18	; 0x25
    299a:	a9 86       	std	Y+9, r10	; 0x09
    299c:	ba 86       	std	Y+10, r11	; 0x0a
    299e:	cb 86       	std	Y+11, r12	; 0x0b
    29a0:	dc 86       	std	Y+12, r13	; 0x0c
    29a2:	4d 86       	std	Y+13, r4	; 0x0d
    29a4:	5e 86       	std	Y+14, r5	; 0x0e
    29a6:	6f 86       	std	Y+15, r6	; 0x0f
    29a8:	78 8a       	std	Y+16, r7	; 0x10
    29aa:	2b a5       	ldd	r18, Y+43	; 0x2b
    29ac:	3c a5       	ldd	r19, Y+44	; 0x2c
    29ae:	4d a5       	ldd	r20, Y+45	; 0x2d
    29b0:	5e a5       	ldd	r21, Y+46	; 0x2e
    29b2:	69 85       	ldd	r22, Y+9	; 0x09
    29b4:	7a 85       	ldd	r23, Y+10	; 0x0a
    29b6:	8b 85       	ldd	r24, Y+11	; 0x0b
    29b8:	9c 85       	ldd	r25, Y+12	; 0x0c
    29ba:	0e 94 45 4f 	call	0x9e8a	; 0x9e8a <__addsf3>
    29be:	69 87       	std	Y+9, r22	; 0x09
    29c0:	7a 87       	std	Y+10, r23	; 0x0a
    29c2:	8b 87       	std	Y+11, r24	; 0x0b
    29c4:	9c 87       	std	Y+12, r25	; 0x0c
    29c6:	2f a5       	ldd	r18, Y+47	; 0x2f
    29c8:	38 a9       	ldd	r19, Y+48	; 0x30
    29ca:	49 a9       	ldd	r20, Y+49	; 0x31
    29cc:	5a a9       	ldd	r21, Y+50	; 0x32
    29ce:	a3 96       	adiw	r28, 0x23	; 35
    29d0:	6c ad       	ldd	r22, Y+60	; 0x3c
    29d2:	7d ad       	ldd	r23, Y+61	; 0x3d
    29d4:	8e ad       	ldd	r24, Y+62	; 0x3e
    29d6:	9f ad       	ldd	r25, Y+63	; 0x3f
    29d8:	a3 97       	sbiw	r28, 0x23	; 35
    29da:	0e 94 45 4f 	call	0x9e8a	; 0x9e8a <__addsf3>
    29de:	a3 96       	adiw	r28, 0x23	; 35
    29e0:	6c af       	std	Y+60, r22	; 0x3c
    29e2:	7d af       	std	Y+61, r23	; 0x3d
    29e4:	8e af       	std	Y+62, r24	; 0x3e
    29e6:	9f af       	std	Y+63, r25	; 0x3f
    29e8:	a3 97       	sbiw	r28, 0x23	; 35
    29ea:	2b ad       	ldd	r18, Y+59	; 0x3b
    29ec:	3c ad       	ldd	r19, Y+60	; 0x3c
    29ee:	4d ad       	ldd	r20, Y+61	; 0x3d
    29f0:	5e ad       	ldd	r21, Y+62	; 0x3e
    29f2:	6d 85       	ldd	r22, Y+13	; 0x0d
    29f4:	7e 85       	ldd	r23, Y+14	; 0x0e
    29f6:	8f 85       	ldd	r24, Y+15	; 0x0f
    29f8:	98 89       	ldd	r25, Y+16	; 0x10
    29fa:	0e 94 45 4f 	call	0x9e8a	; 0x9e8a <__addsf3>
    29fe:	6d 87       	std	Y+13, r22	; 0x0d
    2a00:	7e 87       	std	Y+14, r23	; 0x0e
    2a02:	8f 87       	std	Y+15, r24	; 0x0f
    2a04:	98 8b       	std	Y+16, r25	; 0x10
    2a06:	a3 96       	adiw	r28, 0x23	; 35
    2a08:	2c ad       	ldd	r18, Y+60	; 0x3c
    2a0a:	3d ad       	ldd	r19, Y+61	; 0x3d
    2a0c:	4e ad       	ldd	r20, Y+62	; 0x3e
    2a0e:	5f ad       	ldd	r21, Y+63	; 0x3f
    2a10:	a3 97       	sbiw	r28, 0x23	; 35
    2a12:	69 85       	ldd	r22, Y+9	; 0x09
    2a14:	7a 85       	ldd	r23, Y+10	; 0x0a
    2a16:	8b 85       	ldd	r24, Y+11	; 0x0b
    2a18:	9c 85       	ldd	r25, Y+12	; 0x0c
    2a1a:	0e 94 b8 4f 	call	0x9f70	; 0x9f70 <atan2>
    2a1e:	20 e0       	ldi	r18, 0x00	; 0
    2a20:	30 e0       	ldi	r19, 0x00	; 0
    2a22:	44 e3       	ldi	r20, 0x34	; 52
    2a24:	53 e4       	ldi	r21, 0x43	; 67
    2a26:	0e 94 a5 51 	call	0xa34a	; 0xa34a <__mulsf3>
    2a2a:	28 ed       	ldi	r18, 0xD8	; 216
    2a2c:	3f e0       	ldi	r19, 0x0F	; 15
    2a2e:	49 e4       	ldi	r20, 0x49	; 73
    2a30:	50 e4       	ldi	r21, 0x40	; 64
    2a32:	0e 94 0f 50 	call	0xa01e	; 0xa01e <__divsf3>
    2a36:	0e 94 77 50 	call	0xa0ee	; 0xa0ee <__fixsfsi>
    2a3a:	6d ab       	std	Y+53, r22	; 0x35
    2a3c:	7e ab       	std	Y+54, r23	; 0x36
    2a3e:	8f ab       	std	Y+55, r24	; 0x37
    2a40:	98 af       	std	Y+56, r25	; 0x38
    2a42:	2d 85       	ldd	r18, Y+13	; 0x0d
    2a44:	3e 85       	ldd	r19, Y+14	; 0x0e
    2a46:	4f 85       	ldd	r20, Y+15	; 0x0f
    2a48:	58 89       	ldd	r21, Y+16	; 0x10
    2a4a:	ca 01       	movw	r24, r20
    2a4c:	b9 01       	movw	r22, r18
    2a4e:	0e 94 a5 51 	call	0xa34a	; 0xa34a <__mulsf3>
    2a52:	69 8b       	std	Y+17, r22	; 0x11
    2a54:	7a 8b       	std	Y+18, r23	; 0x12
    2a56:	8b 8b       	std	Y+19, r24	; 0x13
    2a58:	9c 8b       	std	Y+20, r25	; 0x14
    2a5a:	29 85       	ldd	r18, Y+9	; 0x09
    2a5c:	3a 85       	ldd	r19, Y+10	; 0x0a
    2a5e:	4b 85       	ldd	r20, Y+11	; 0x0b
    2a60:	5c 85       	ldd	r21, Y+12	; 0x0c
    2a62:	ca 01       	movw	r24, r20
    2a64:	b9 01       	movw	r22, r18
    2a66:	0e 94 a5 51 	call	0xa34a	; 0xa34a <__mulsf3>
    2a6a:	6b 01       	movw	r12, r22
    2a6c:	7c 01       	movw	r14, r24
    2a6e:	a3 96       	adiw	r28, 0x23	; 35
    2a70:	2c ad       	ldd	r18, Y+60	; 0x3c
    2a72:	3d ad       	ldd	r19, Y+61	; 0x3d
    2a74:	4e ad       	ldd	r20, Y+62	; 0x3e
    2a76:	5f ad       	ldd	r21, Y+63	; 0x3f
    2a78:	a3 97       	sbiw	r28, 0x23	; 35
    2a7a:	ca 01       	movw	r24, r20
    2a7c:	b9 01       	movw	r22, r18
    2a7e:	0e 94 a5 51 	call	0xa34a	; 0xa34a <__mulsf3>
    2a82:	9b 01       	movw	r18, r22
    2a84:	ac 01       	movw	r20, r24
    2a86:	c7 01       	movw	r24, r14
    2a88:	b6 01       	movw	r22, r12
    2a8a:	0e 94 45 4f 	call	0x9e8a	; 0x9e8a <__addsf3>
    2a8e:	69 8f       	std	Y+25, r22	; 0x19
    2a90:	7a 8f       	std	Y+26, r23	; 0x1a
    2a92:	8b 8f       	std	Y+27, r24	; 0x1b
    2a94:	9c 8f       	std	Y+28, r25	; 0x1c
    2a96:	0e 94 0c 52 	call	0xa418	; 0xa418 <sqrt>
    2a9a:	20 e0       	ldi	r18, 0x00	; 0
    2a9c:	30 e0       	ldi	r19, 0x00	; 0
    2a9e:	48 e4       	ldi	r20, 0x48	; 72
    2aa0:	52 e4       	ldi	r21, 0x42	; 66
    2aa2:	0e 94 44 4f 	call	0x9e88	; 0x9e88 <__subsf3>
    2aa6:	6b 01       	movw	r12, r22
    2aa8:	7c 01       	movw	r14, r24
    2aaa:	9b 01       	movw	r18, r22
    2aac:	ac 01       	movw	r20, r24
    2aae:	0e 94 a5 51 	call	0xa34a	; 0xa34a <__mulsf3>
    2ab2:	6d 8f       	std	Y+29, r22	; 0x1d
    2ab4:	7e 8f       	std	Y+30, r23	; 0x1e
    2ab6:	8f 8f       	std	Y+31, r24	; 0x1f
    2ab8:	98 a3       	std	Y+32, r25	; 0x20
    2aba:	9b 01       	movw	r18, r22
    2abc:	ac 01       	movw	r20, r24
    2abe:	69 89       	ldd	r22, Y+17	; 0x11
    2ac0:	7a 89       	ldd	r23, Y+18	; 0x12
    2ac2:	8b 89       	ldd	r24, Y+19	; 0x13
    2ac4:	9c 89       	ldd	r25, Y+20	; 0x14
    2ac6:	0e 94 45 4f 	call	0x9e8a	; 0x9e8a <__addsf3>
    2aca:	4b 01       	movw	r8, r22
    2acc:	5c 01       	movw	r10, r24
    2ace:	0e 94 0c 52 	call	0xa418	; 0xa418 <sqrt>
    2ad2:	9b 01       	movw	r18, r22
    2ad4:	ac 01       	movw	r20, r24
    2ad6:	6d 85       	ldd	r22, Y+13	; 0x0d
    2ad8:	7e 85       	ldd	r23, Y+14	; 0x0e
    2ada:	8f 85       	ldd	r24, Y+15	; 0x0f
    2adc:	98 89       	ldd	r25, Y+16	; 0x10
    2ade:	90 58       	subi	r25, 0x80	; 128
    2ae0:	0e 94 0f 50 	call	0xa01e	; 0xa01e <__divsf3>
    2ae4:	0e 94 36 4f 	call	0x9e6c	; 0x9e6c <acos>
    2ae8:	2b 01       	movw	r4, r22
    2aea:	3c 01       	movw	r6, r24
    2aec:	20 e0       	ldi	r18, 0x00	; 0
    2aee:	30 e0       	ldi	r19, 0x00	; 0
    2af0:	48 e4       	ldi	r20, 0x48	; 72
    2af2:	52 e4       	ldi	r21, 0x42	; 66
    2af4:	69 8d       	ldd	r22, Y+25	; 0x19
    2af6:	7a 8d       	ldd	r23, Y+26	; 0x1a
    2af8:	8b 8d       	ldd	r24, Y+27	; 0x1b
    2afa:	9c 8d       	ldd	r25, Y+28	; 0x1c
    2afc:	0e 94 44 4f 	call	0x9e88	; 0x9e88 <__subsf3>
    2b00:	0e 94 0c 52 	call	0xa418	; 0xa418 <sqrt>
    2b04:	9b 01       	movw	r18, r22
    2b06:	ac 01       	movw	r20, r24
    2b08:	c7 01       	movw	r24, r14
    2b0a:	b6 01       	movw	r22, r12
    2b0c:	0e 94 a5 51 	call	0xa34a	; 0xa34a <__mulsf3>
    2b10:	9b 01       	movw	r18, r22
    2b12:	ac 01       	movw	r20, r24
    2b14:	69 89       	ldd	r22, Y+17	; 0x11
    2b16:	7a 89       	ldd	r23, Y+18	; 0x12
    2b18:	8b 89       	ldd	r24, Y+19	; 0x13
    2b1a:	9c 89       	ldd	r25, Y+20	; 0x14
    2b1c:	0e 94 45 4f 	call	0x9e8a	; 0x9e8a <__addsf3>
    2b20:	0e 94 0c 52 	call	0xa418	; 0xa418 <sqrt>
    2b24:	6b 01       	movw	r12, r22
    2b26:	7c 01       	movw	r14, r24
    2b28:	20 e0       	ldi	r18, 0x00	; 0
    2b2a:	38 e4       	ldi	r19, 0x48	; 72
    2b2c:	4c e8       	ldi	r20, 0x8C	; 140
    2b2e:	55 e4       	ldi	r21, 0x45	; 69
    2b30:	c5 01       	movw	r24, r10
    2b32:	b4 01       	movw	r22, r8
    2b34:	0e 94 45 4f 	call	0x9e8a	; 0x9e8a <__addsf3>
    2b38:	20 e0       	ldi	r18, 0x00	; 0
    2b3a:	38 e0       	ldi	r19, 0x08	; 8
    2b3c:	44 e8       	ldi	r20, 0x84	; 132
    2b3e:	56 e4       	ldi	r21, 0x46	; 70
    2b40:	0e 94 44 4f 	call	0x9e88	; 0x9e88 <__subsf3>
    2b44:	4b 01       	movw	r8, r22
    2b46:	5c 01       	movw	r10, r24
    2b48:	a7 01       	movw	r20, r14
    2b4a:	96 01       	movw	r18, r12
    2b4c:	c7 01       	movw	r24, r14
    2b4e:	b6 01       	movw	r22, r12
    2b50:	0e 94 45 4f 	call	0x9e8a	; 0x9e8a <__addsf3>
    2b54:	20 e0       	ldi	r18, 0x00	; 0
    2b56:	30 e0       	ldi	r19, 0x00	; 0
    2b58:	46 e8       	ldi	r20, 0x86	; 134
    2b5a:	52 e4       	ldi	r21, 0x42	; 66
    2b5c:	0e 94 a5 51 	call	0xa34a	; 0xa34a <__mulsf3>
    2b60:	9b 01       	movw	r18, r22
    2b62:	ac 01       	movw	r20, r24
    2b64:	c5 01       	movw	r24, r10
    2b66:	b4 01       	movw	r22, r8
    2b68:	0e 94 0f 50 	call	0xa01e	; 0xa01e <__divsf3>
    2b6c:	0e 94 36 4f 	call	0x9e6c	; 0x9e6c <acos>
    2b70:	9b 01       	movw	r18, r22
    2b72:	ac 01       	movw	r20, r24
    2b74:	c3 01       	movw	r24, r6
    2b76:	b2 01       	movw	r22, r4
    2b78:	0e 94 45 4f 	call	0x9e8a	; 0x9e8a <__addsf3>
    2b7c:	24 ee       	ldi	r18, 0xE4	; 228
    2b7e:	3e e2       	ldi	r19, 0x2E	; 46
    2b80:	45 e6       	ldi	r20, 0x65	; 101
    2b82:	52 e4       	ldi	r21, 0x42	; 66
    2b84:	0e 94 a5 51 	call	0xa34a	; 0xa34a <__mulsf3>
    2b88:	0e 94 77 50 	call	0xa0ee	; 0xa0ee <__fixsfsi>
    2b8c:	6b 01       	movw	r12, r22
    2b8e:	7c 01       	movw	r14, r24
    2b90:	29 89       	ldd	r18, Y+17	; 0x11
    2b92:	3a 89       	ldd	r19, Y+18	; 0x12
    2b94:	4b 89       	ldd	r20, Y+19	; 0x13
    2b96:	5c 89       	ldd	r21, Y+20	; 0x14
    2b98:	60 e0       	ldi	r22, 0x00	; 0
    2b9a:	7a e1       	ldi	r23, 0x1A	; 26
    2b9c:	87 ea       	ldi	r24, 0xA7	; 167
    2b9e:	96 e4       	ldi	r25, 0x46	; 70
    2ba0:	0e 94 44 4f 	call	0x9e88	; 0x9e88 <__subsf3>
    2ba4:	2d 8d       	ldd	r18, Y+29	; 0x1d
    2ba6:	3e 8d       	ldd	r19, Y+30	; 0x1e
    2ba8:	4f 8d       	ldd	r20, Y+31	; 0x1f
    2baa:	58 a1       	ldd	r21, Y+32	; 0x20
    2bac:	0e 94 44 4f 	call	0x9e88	; 0x9e88 <__subsf3>
    2bb0:	20 e0       	ldi	r18, 0x00	; 0
    2bb2:	38 e1       	ldi	r19, 0x18	; 24
    2bb4:	48 e8       	ldi	r20, 0x88	; 136
    2bb6:	56 e4       	ldi	r21, 0x46	; 70
    2bb8:	0e 94 0f 50 	call	0xa01e	; 0xa01e <__divsf3>
    2bbc:	0e 94 36 4f 	call	0x9e6c	; 0x9e6c <acos>
    2bc0:	20 e0       	ldi	r18, 0x00	; 0
    2bc2:	30 e0       	ldi	r19, 0x00	; 0
    2bc4:	44 e3       	ldi	r20, 0x34	; 52
    2bc6:	53 e4       	ldi	r21, 0x43	; 67
    2bc8:	0e 94 a5 51 	call	0xa34a	; 0xa34a <__mulsf3>
    2bcc:	28 ed       	ldi	r18, 0xD8	; 216
    2bce:	3f e0       	ldi	r19, 0x0F	; 15
    2bd0:	49 e4       	ldi	r20, 0x49	; 73
    2bd2:	50 e4       	ldi	r21, 0x40	; 64
    2bd4:	0e 94 0f 50 	call	0xa01e	; 0xa01e <__divsf3>
    2bd8:	0e 94 77 50 	call	0xa0ee	; 0xa0ee <__fixsfsi>
    2bdc:	4d 89       	ldd	r20, Y+21	; 0x15
    2bde:	5e 89       	ldd	r21, Y+22	; 0x16
    2be0:	42 30       	cpi	r20, 0x02	; 2
    2be2:	51 05       	cpc	r21, r1
    2be4:	09 f4       	brne	.+2      	; 0x2be8 <CalcCurvedPath+0x512>
    2be6:	57 c0       	rjmp	.+174    	; 0x2c96 <CalcCurvedPath+0x5c0>
    2be8:	24 f4       	brge	.+8      	; 0x2bf2 <CalcCurvedPath+0x51c>
    2bea:	41 30       	cpi	r20, 0x01	; 1
    2bec:	51 05       	cpc	r21, r1
    2bee:	59 f0       	breq	.+22     	; 0x2c06 <CalcCurvedPath+0x530>
    2bf0:	37 c1       	rjmp	.+622    	; 0x2e60 <CalcCurvedPath+0x78a>
    2bf2:	ad 89       	ldd	r26, Y+21	; 0x15
    2bf4:	be 89       	ldd	r27, Y+22	; 0x16
    2bf6:	a3 30       	cpi	r26, 0x03	; 3
    2bf8:	b1 05       	cpc	r27, r1
    2bfa:	09 f4       	brne	.+2      	; 0x2bfe <CalcCurvedPath+0x528>
    2bfc:	95 c0       	rjmp	.+298    	; 0x2d28 <CalcCurvedPath+0x652>
    2bfe:	14 97       	sbiw	r26, 0x04	; 4
    2c00:	09 f4       	brne	.+2      	; 0x2c04 <CalcCurvedPath+0x52e>
    2c02:	e1 c0       	rjmp	.+450    	; 0x2dc6 <CalcCurvedPath+0x6f0>
    2c04:	2d c1       	rjmp	.+602    	; 0x2e60 <CalcCurvedPath+0x78a>
    2c06:	8d a8       	ldd	r8, Y+53	; 0x35
    2c08:	9e a8       	ldd	r9, Y+54	; 0x36
    2c0a:	af a8       	ldd	r10, Y+55	; 0x37
    2c0c:	b8 ac       	ldd	r11, Y+56	; 0x38
    2c0e:	b9 e6       	ldi	r27, 0x69	; 105
    2c10:	8b 0e       	add	r8, r27
    2c12:	91 1c       	adc	r9, r1
    2c14:	a1 1c       	adc	r10, r1
    2c16:	b1 1c       	adc	r11, r1
    2c18:	e9 a1       	ldd	r30, Y+33	; 0x21
    2c1a:	fa a1       	ldd	r31, Y+34	; 0x22
    2c1c:	80 82       	st	Z, r8
    2c1e:	91 82       	std	Z+1, r9	; 0x01
    2c20:	a2 82       	std	Z+2, r10	; 0x02
    2c22:	b3 82       	std	Z+3, r11	; 0x03
    2c24:	fb e4       	ldi	r31, 0x4B	; 75
    2c26:	cf 0e       	add	r12, r31
    2c28:	d1 1c       	adc	r13, r1
    2c2a:	e1 1c       	adc	r14, r1
    2c2c:	f1 1c       	adc	r15, r1
    2c2e:	ab a1       	ldd	r26, Y+35	; 0x23
    2c30:	bc a1       	ldd	r27, Y+36	; 0x24
    2c32:	cd 92       	st	X+, r12
    2c34:	dd 92       	st	X+, r13
    2c36:	ed 92       	st	X+, r14
    2c38:	fc 92       	st	X, r15
    2c3a:	13 97       	sbiw	r26, 0x03	; 3
    2c3c:	dc 01       	movw	r26, r24
    2c3e:	cb 01       	movw	r24, r22
    2c40:	01 96       	adiw	r24, 0x01	; 1
    2c42:	a1 1d       	adc	r26, r1
    2c44:	b1 1d       	adc	r27, r1
    2c46:	ed a1       	ldd	r30, Y+37	; 0x25
    2c48:	fe a1       	ldd	r31, Y+38	; 0x26
    2c4a:	80 83       	st	Z, r24
    2c4c:	91 83       	std	Z+1, r25	; 0x01
    2c4e:	a2 83       	std	Z+2, r26	; 0x02
    2c50:	b3 83       	std	Z+3, r27	; 0x03
    2c52:	29 85       	ldd	r18, Y+9	; 0x09
    2c54:	3a 85       	ldd	r19, Y+10	; 0x0a
    2c56:	4b 85       	ldd	r20, Y+11	; 0x0b
    2c58:	5c 85       	ldd	r21, Y+12	; 0x0c
    2c5a:	d8 01       	movw	r26, r16
    2c5c:	2d 93       	st	X+, r18
    2c5e:	3d 93       	st	X+, r19
    2c60:	4d 93       	st	X+, r20
    2c62:	5c 93       	st	X, r21
    2c64:	13 97       	sbiw	r26, 0x03	; 3
    2c66:	f8 01       	movw	r30, r16
    2c68:	e0 5b       	subi	r30, 0xB0	; 176
    2c6a:	ff 4f       	sbci	r31, 0xFF	; 255
    2c6c:	a3 96       	adiw	r28, 0x23	; 35
    2c6e:	2c ad       	ldd	r18, Y+60	; 0x3c
    2c70:	3d ad       	ldd	r19, Y+61	; 0x3d
    2c72:	4e ad       	ldd	r20, Y+62	; 0x3e
    2c74:	5f ad       	ldd	r21, Y+63	; 0x3f
    2c76:	a3 97       	sbiw	r28, 0x23	; 35
    2c78:	20 83       	st	Z, r18
    2c7a:	31 83       	std	Z+1, r19	; 0x01
    2c7c:	42 83       	std	Z+2, r20	; 0x02
    2c7e:	53 83       	std	Z+3, r21	; 0x03
    2c80:	e0 5b       	subi	r30, 0xB0	; 176
    2c82:	ff 4f       	sbci	r31, 0xFF	; 255
    2c84:	8d 85       	ldd	r24, Y+13	; 0x0d
    2c86:	9e 85       	ldd	r25, Y+14	; 0x0e
    2c88:	af 85       	ldd	r26, Y+15	; 0x0f
    2c8a:	b8 89       	ldd	r27, Y+16	; 0x10
    2c8c:	80 83       	st	Z, r24
    2c8e:	91 83       	std	Z+1, r25	; 0x01
    2c90:	a2 83       	std	Z+2, r26	; 0x02
    2c92:	b3 83       	std	Z+3, r27	; 0x03
    2c94:	e5 c0       	rjmp	.+458    	; 0x2e60 <CalcCurvedPath+0x78a>
    2c96:	8d a8       	ldd	r8, Y+53	; 0x35
    2c98:	9e a8       	ldd	r9, Y+54	; 0x36
    2c9a:	af a8       	ldd	r10, Y+55	; 0x37
    2c9c:	b8 ac       	ldd	r11, Y+56	; 0x38
    2c9e:	a1 ec       	ldi	r26, 0xC1	; 193
    2ca0:	8a 0e       	add	r8, r26
    2ca2:	91 1c       	adc	r9, r1
    2ca4:	a1 1c       	adc	r10, r1
    2ca6:	b1 1c       	adc	r11, r1
    2ca8:	e9 a1       	ldd	r30, Y+33	; 0x21
    2caa:	fa a1       	ldd	r31, Y+34	; 0x22
    2cac:	80 82       	st	Z, r8
    2cae:	91 82       	std	Z+1, r9	; 0x01
    2cb0:	a2 82       	std	Z+2, r10	; 0x02
    2cb2:	b3 82       	std	Z+3, r11	; 0x03
    2cb4:	fb e4       	ldi	r31, 0x4B	; 75
    2cb6:	cf 0e       	add	r12, r31
    2cb8:	d1 1c       	adc	r13, r1
    2cba:	e1 1c       	adc	r14, r1
    2cbc:	f1 1c       	adc	r15, r1
    2cbe:	ab a1       	ldd	r26, Y+35	; 0x23
    2cc0:	bc a1       	ldd	r27, Y+36	; 0x24
    2cc2:	cd 92       	st	X+, r12
    2cc4:	dd 92       	st	X+, r13
    2cc6:	ed 92       	st	X+, r14
    2cc8:	fc 92       	st	X, r15
    2cca:	13 97       	sbiw	r26, 0x03	; 3
    2ccc:	dc 01       	movw	r26, r24
    2cce:	cb 01       	movw	r24, r22
    2cd0:	03 96       	adiw	r24, 0x03	; 3
    2cd2:	a1 1d       	adc	r26, r1
    2cd4:	b1 1d       	adc	r27, r1
    2cd6:	ed a1       	ldd	r30, Y+37	; 0x25
    2cd8:	fe a1       	ldd	r31, Y+38	; 0x26
    2cda:	80 83       	st	Z, r24
    2cdc:	91 83       	std	Z+1, r25	; 0x01
    2cde:	a2 83       	std	Z+2, r26	; 0x02
    2ce0:	b3 83       	std	Z+3, r27	; 0x03
    2ce2:	f8 01       	movw	r30, r16
    2ce4:	e0 51       	subi	r30, 0x10	; 16
    2ce6:	ff 4f       	sbci	r31, 0xFF	; 255
    2ce8:	89 85       	ldd	r24, Y+9	; 0x09
    2cea:	9a 85       	ldd	r25, Y+10	; 0x0a
    2cec:	ab 85       	ldd	r26, Y+11	; 0x0b
    2cee:	bc 85       	ldd	r27, Y+12	; 0x0c
    2cf0:	b0 58       	subi	r27, 0x80	; 128
    2cf2:	80 83       	st	Z, r24
    2cf4:	91 83       	std	Z+1, r25	; 0x01
    2cf6:	a2 83       	std	Z+2, r26	; 0x02
    2cf8:	b3 83       	std	Z+3, r27	; 0x03
    2cfa:	e0 5b       	subi	r30, 0xB0	; 176
    2cfc:	ff 4f       	sbci	r31, 0xFF	; 255
    2cfe:	a3 96       	adiw	r28, 0x23	; 35
    2d00:	2c ad       	ldd	r18, Y+60	; 0x3c
    2d02:	3d ad       	ldd	r19, Y+61	; 0x3d
    2d04:	4e ad       	ldd	r20, Y+62	; 0x3e
    2d06:	5f ad       	ldd	r21, Y+63	; 0x3f
    2d08:	a3 97       	sbiw	r28, 0x23	; 35
    2d0a:	20 83       	st	Z, r18
    2d0c:	31 83       	std	Z+1, r19	; 0x01
    2d0e:	42 83       	std	Z+2, r20	; 0x02
    2d10:	53 83       	std	Z+3, r21	; 0x03
    2d12:	e0 5b       	subi	r30, 0xB0	; 176
    2d14:	ff 4f       	sbci	r31, 0xFF	; 255
    2d16:	8d 85       	ldd	r24, Y+13	; 0x0d
    2d18:	9e 85       	ldd	r25, Y+14	; 0x0e
    2d1a:	af 85       	ldd	r26, Y+15	; 0x0f
    2d1c:	b8 89       	ldd	r27, Y+16	; 0x10
    2d1e:	80 83       	st	Z, r24
    2d20:	91 83       	std	Z+1, r25	; 0x01
    2d22:	a2 83       	std	Z+2, r26	; 0x02
    2d24:	b3 83       	std	Z+3, r27	; 0x03
    2d26:	9c c0       	rjmp	.+312    	; 0x2e60 <CalcCurvedPath+0x78a>
    2d28:	8d a8       	ldd	r8, Y+53	; 0x35
    2d2a:	9e a8       	ldd	r9, Y+54	; 0x36
    2d2c:	af a8       	ldd	r10, Y+55	; 0x37
    2d2e:	b8 ac       	ldd	r11, Y+56	; 0x38
    2d30:	a3 ec       	ldi	r26, 0xC3	; 195
    2d32:	8a 0e       	add	r8, r26
    2d34:	91 1c       	adc	r9, r1
    2d36:	a1 1c       	adc	r10, r1
    2d38:	b1 1c       	adc	r11, r1
    2d3a:	e9 a1       	ldd	r30, Y+33	; 0x21
    2d3c:	fa a1       	ldd	r31, Y+34	; 0x22
    2d3e:	80 82       	st	Z, r8
    2d40:	91 82       	std	Z+1, r9	; 0x01
    2d42:	a2 82       	std	Z+2, r10	; 0x02
    2d44:	b3 82       	std	Z+3, r11	; 0x03
    2d46:	21 ee       	ldi	r18, 0xE1	; 225
    2d48:	30 e0       	ldi	r19, 0x00	; 0
    2d4a:	40 e0       	ldi	r20, 0x00	; 0
    2d4c:	50 e0       	ldi	r21, 0x00	; 0
    2d4e:	2c 19       	sub	r18, r12
    2d50:	3d 09       	sbc	r19, r13
    2d52:	4e 09       	sbc	r20, r14
    2d54:	5f 09       	sbc	r21, r15
    2d56:	ab a1       	ldd	r26, Y+35	; 0x23
    2d58:	bc a1       	ldd	r27, Y+36	; 0x24
    2d5a:	2d 93       	st	X+, r18
    2d5c:	3d 93       	st	X+, r19
    2d5e:	4d 93       	st	X+, r20
    2d60:	5c 93       	st	X, r21
    2d62:	13 97       	sbiw	r26, 0x03	; 3
    2d64:	2c e2       	ldi	r18, 0x2C	; 44
    2d66:	31 e0       	ldi	r19, 0x01	; 1
    2d68:	40 e0       	ldi	r20, 0x00	; 0
    2d6a:	50 e0       	ldi	r21, 0x00	; 0
    2d6c:	26 1b       	sub	r18, r22
    2d6e:	37 0b       	sbc	r19, r23
    2d70:	48 0b       	sbc	r20, r24
    2d72:	59 0b       	sbc	r21, r25
    2d74:	ed a1       	ldd	r30, Y+37	; 0x25
    2d76:	fe a1       	ldd	r31, Y+38	; 0x26
    2d78:	20 83       	st	Z, r18
    2d7a:	31 83       	std	Z+1, r19	; 0x01
    2d7c:	42 83       	std	Z+2, r20	; 0x02
    2d7e:	53 83       	std	Z+3, r21	; 0x03
    2d80:	f8 01       	movw	r30, r16
    2d82:	e0 52       	subi	r30, 0x20	; 32
    2d84:	fe 4f       	sbci	r31, 0xFE	; 254
    2d86:	89 85       	ldd	r24, Y+9	; 0x09
    2d88:	9a 85       	ldd	r25, Y+10	; 0x0a
    2d8a:	ab 85       	ldd	r26, Y+11	; 0x0b
    2d8c:	bc 85       	ldd	r27, Y+12	; 0x0c
    2d8e:	b0 58       	subi	r27, 0x80	; 128
    2d90:	80 83       	st	Z, r24
    2d92:	91 83       	std	Z+1, r25	; 0x01
    2d94:	a2 83       	std	Z+2, r26	; 0x02
    2d96:	b3 83       	std	Z+3, r27	; 0x03
    2d98:	e0 5b       	subi	r30, 0xB0	; 176
    2d9a:	ff 4f       	sbci	r31, 0xFF	; 255
    2d9c:	a3 96       	adiw	r28, 0x23	; 35
    2d9e:	2c ad       	ldd	r18, Y+60	; 0x3c
    2da0:	3d ad       	ldd	r19, Y+61	; 0x3d
    2da2:	4e ad       	ldd	r20, Y+62	; 0x3e
    2da4:	5f ad       	ldd	r21, Y+63	; 0x3f
    2da6:	a3 97       	sbiw	r28, 0x23	; 35
    2da8:	20 83       	st	Z, r18
    2daa:	31 83       	std	Z+1, r19	; 0x01
    2dac:	42 83       	std	Z+2, r20	; 0x02
    2dae:	53 83       	std	Z+3, r21	; 0x03
    2db0:	e0 5b       	subi	r30, 0xB0	; 176
    2db2:	ff 4f       	sbci	r31, 0xFF	; 255
    2db4:	8d 85       	ldd	r24, Y+13	; 0x0d
    2db6:	9e 85       	ldd	r25, Y+14	; 0x0e
    2db8:	af 85       	ldd	r26, Y+15	; 0x0f
    2dba:	b8 89       	ldd	r27, Y+16	; 0x10
    2dbc:	80 83       	st	Z, r24
    2dbe:	91 83       	std	Z+1, r25	; 0x01
    2dc0:	a2 83       	std	Z+2, r26	; 0x02
    2dc2:	b3 83       	std	Z+3, r27	; 0x03
    2dc4:	4d c0       	rjmp	.+154    	; 0x2e60 <CalcCurvedPath+0x78a>
    2dc6:	8d a8       	ldd	r8, Y+53	; 0x35
    2dc8:	9e a8       	ldd	r9, Y+54	; 0x36
    2dca:	af a8       	ldd	r10, Y+55	; 0x37
    2dcc:	b8 ac       	ldd	r11, Y+56	; 0x38
    2dce:	a9 e6       	ldi	r26, 0x69	; 105
    2dd0:	8a 0e       	add	r8, r26
    2dd2:	91 1c       	adc	r9, r1
    2dd4:	a1 1c       	adc	r10, r1
    2dd6:	b1 1c       	adc	r11, r1
    2dd8:	e9 a1       	ldd	r30, Y+33	; 0x21
    2dda:	fa a1       	ldd	r31, Y+34	; 0x22
    2ddc:	80 82       	st	Z, r8
    2dde:	91 82       	std	Z+1, r9	; 0x01
    2de0:	a2 82       	std	Z+2, r10	; 0x02
    2de2:	b3 82       	std	Z+3, r11	; 0x03
    2de4:	21 ee       	ldi	r18, 0xE1	; 225
    2de6:	30 e0       	ldi	r19, 0x00	; 0
    2de8:	40 e0       	ldi	r20, 0x00	; 0
    2dea:	50 e0       	ldi	r21, 0x00	; 0
    2dec:	2c 19       	sub	r18, r12
    2dee:	3d 09       	sbc	r19, r13
    2df0:	4e 09       	sbc	r20, r14
    2df2:	5f 09       	sbc	r21, r15
    2df4:	ab a1       	ldd	r26, Y+35	; 0x23
    2df6:	bc a1       	ldd	r27, Y+36	; 0x24
    2df8:	2d 93       	st	X+, r18
    2dfa:	3d 93       	st	X+, r19
    2dfc:	4d 93       	st	X+, r20
    2dfe:	5c 93       	st	X, r21
    2e00:	13 97       	sbiw	r26, 0x03	; 3
    2e02:	2c e2       	ldi	r18, 0x2C	; 44
    2e04:	31 e0       	ldi	r19, 0x01	; 1
    2e06:	40 e0       	ldi	r20, 0x00	; 0
    2e08:	50 e0       	ldi	r21, 0x00	; 0
    2e0a:	26 1b       	sub	r18, r22
    2e0c:	37 0b       	sbc	r19, r23
    2e0e:	48 0b       	sbc	r20, r24
    2e10:	59 0b       	sbc	r21, r25
    2e12:	ed a1       	ldd	r30, Y+37	; 0x25
    2e14:	fe a1       	ldd	r31, Y+38	; 0x26
    2e16:	20 83       	st	Z, r18
    2e18:	31 83       	std	Z+1, r19	; 0x01
    2e1a:	42 83       	std	Z+2, r20	; 0x02
    2e1c:	53 83       	std	Z+3, r21	; 0x03
    2e1e:	f8 01       	movw	r30, r16
    2e20:	e0 53       	subi	r30, 0x30	; 48
    2e22:	fd 4f       	sbci	r31, 0xFD	; 253
    2e24:	29 85       	ldd	r18, Y+9	; 0x09
    2e26:	3a 85       	ldd	r19, Y+10	; 0x0a
    2e28:	4b 85       	ldd	r20, Y+11	; 0x0b
    2e2a:	5c 85       	ldd	r21, Y+12	; 0x0c
    2e2c:	20 83       	st	Z, r18
    2e2e:	31 83       	std	Z+1, r19	; 0x01
    2e30:	42 83       	std	Z+2, r20	; 0x02
    2e32:	53 83       	std	Z+3, r21	; 0x03
    2e34:	e0 5b       	subi	r30, 0xB0	; 176
    2e36:	ff 4f       	sbci	r31, 0xFF	; 255
    2e38:	a3 96       	adiw	r28, 0x23	; 35
    2e3a:	8c ad       	ldd	r24, Y+60	; 0x3c
    2e3c:	9d ad       	ldd	r25, Y+61	; 0x3d
    2e3e:	ae ad       	ldd	r26, Y+62	; 0x3e
    2e40:	bf ad       	ldd	r27, Y+63	; 0x3f
    2e42:	a3 97       	sbiw	r28, 0x23	; 35
    2e44:	80 83       	st	Z, r24
    2e46:	91 83       	std	Z+1, r25	; 0x01
    2e48:	a2 83       	std	Z+2, r26	; 0x02
    2e4a:	b3 83       	std	Z+3, r27	; 0x03
    2e4c:	e0 5b       	subi	r30, 0xB0	; 176
    2e4e:	ff 4f       	sbci	r31, 0xFF	; 255
    2e50:	2d 85       	ldd	r18, Y+13	; 0x0d
    2e52:	3e 85       	ldd	r19, Y+14	; 0x0e
    2e54:	4f 85       	ldd	r20, Y+15	; 0x0f
    2e56:	58 89       	ldd	r21, Y+16	; 0x10
    2e58:	20 83       	st	Z, r18
    2e5a:	31 83       	std	Z+1, r19	; 0x01
    2e5c:	42 83       	std	Z+2, r20	; 0x02
    2e5e:	53 83       	std	Z+3, r21	; 0x03
    2e60:	3f ef       	ldi	r19, 0xFF	; 255
    2e62:	23 1a       	sub	r2, r19
    2e64:	33 0a       	sbc	r3, r19
    2e66:	49 a1       	ldd	r20, Y+33	; 0x21
    2e68:	5a a1       	ldd	r21, Y+34	; 0x22
    2e6a:	4c 5f       	subi	r20, 0xFC	; 252
    2e6c:	5f 4f       	sbci	r21, 0xFF	; 255
    2e6e:	5a a3       	std	Y+34, r21	; 0x22
    2e70:	49 a3       	std	Y+33, r20	; 0x21
    2e72:	8b a1       	ldd	r24, Y+35	; 0x23
    2e74:	9c a1       	ldd	r25, Y+36	; 0x24
    2e76:	04 96       	adiw	r24, 0x04	; 4
    2e78:	9c a3       	std	Y+36, r25	; 0x24
    2e7a:	8b a3       	std	Y+35, r24	; 0x23
    2e7c:	ad a1       	ldd	r26, Y+37	; 0x25
    2e7e:	be a1       	ldd	r27, Y+38	; 0x26
    2e80:	14 96       	adiw	r26, 0x04	; 4
    2e82:	be a3       	std	Y+38, r27	; 0x26
    2e84:	ad a3       	std	Y+37, r26	; 0x25
    2e86:	0c 5f       	subi	r16, 0xFC	; 252
    2e88:	1f 4f       	sbci	r17, 0xFF	; 255
    2e8a:	e9 ad       	ldd	r30, Y+57	; 0x39
    2e8c:	fa ad       	ldd	r31, Y+58	; 0x3a
    2e8e:	e2 15       	cp	r30, r2
    2e90:	f3 05       	cpc	r31, r3
    2e92:	0c f0       	brlt	.+2      	; 0x2e96 <CalcCurvedPath+0x7c0>
    2e94:	8a cd       	rjmp	.-1260   	; 0x29aa <CalcCurvedPath+0x2d4>
    2e96:	2d 88       	ldd	r2, Y+21	; 0x15
    2e98:	3e 88       	ldd	r3, Y+22	; 0x16
    2e9a:	a9 84       	ldd	r10, Y+9	; 0x09
    2e9c:	ba 84       	ldd	r11, Y+10	; 0x0a
    2e9e:	cb 84       	ldd	r12, Y+11	; 0x0b
    2ea0:	dc 84       	ldd	r13, Y+12	; 0x0c
    2ea2:	4d 84       	ldd	r4, Y+13	; 0x0d
    2ea4:	5e 84       	ldd	r5, Y+14	; 0x0e
    2ea6:	6f 84       	ldd	r6, Y+15	; 0x0f
    2ea8:	78 88       	ldd	r7, Y+16	; 0x10
    2eaa:	2b a9       	ldd	r18, Y+51	; 0x33
    2eac:	3c a9       	ldd	r19, Y+52	; 0x34
    2eae:	25 96       	adiw	r28, 0x05	; 5
    2eb0:	4e ad       	ldd	r20, Y+62	; 0x3e
    2eb2:	5f ad       	ldd	r21, Y+63	; 0x3f
    2eb4:	25 97       	sbiw	r28, 0x05	; 5
    2eb6:	24 0f       	add	r18, r20
    2eb8:	35 1f       	adc	r19, r21
    2eba:	3c ab       	std	Y+52, r19	; 0x34
    2ebc:	2b ab       	std	Y+51, r18	; 0x33
    2ebe:	89 a5       	ldd	r24, Y+41	; 0x29
    2ec0:	9a a5       	ldd	r25, Y+42	; 0x2a
    2ec2:	82 17       	cp	r24, r18
    2ec4:	93 07       	cpc	r25, r19
    2ec6:	0c f0       	brlt	.+2      	; 0x2eca <CalcCurvedPath+0x7f4>
    2ec8:	cc c2       	rjmp	.+1432   	; 0x3462 <CalcCurvedPath+0xd8c>
    2eca:	24 e1       	ldi	r18, 0x14	; 20
    2ecc:	27 96       	adiw	r28, 0x07	; 7
    2ece:	ae ad       	ldd	r26, Y+62	; 0x3e
    2ed0:	bf ad       	ldd	r27, Y+63	; 0x3f
    2ed2:	27 97       	sbiw	r28, 0x07	; 7
    2ed4:	2a 9f       	mul	r18, r26
    2ed6:	c0 01       	movw	r24, r0
    2ed8:	2b 9f       	mul	r18, r27
    2eda:	90 0d       	add	r25, r0
    2edc:	11 24       	eor	r1, r1
    2ede:	e9 a5       	ldd	r30, Y+41	; 0x29
    2ee0:	fa a5       	ldd	r31, Y+42	; 0x2a
    2ee2:	8e 0f       	add	r24, r30
    2ee4:	9f 1f       	adc	r25, r31
    2ee6:	88 0f       	add	r24, r24
    2ee8:	99 1f       	adc	r25, r25
    2eea:	88 0f       	add	r24, r24
    2eec:	99 1f       	adc	r25, r25
    2eee:	ac 01       	movw	r20, r24
    2ef0:	45 5b       	subi	r20, 0xB5	; 181
    2ef2:	5f 4e       	sbci	r21, 0xEF	; 239
    2ef4:	7a 01       	movw	r14, r20
    2ef6:	29 96       	adiw	r28, 0x09	; 9
    2ef8:	ae ad       	ldd	r26, Y+62	; 0x3e
    2efa:	bf ad       	ldd	r27, Y+63	; 0x3f
    2efc:	29 97       	sbiw	r28, 0x09	; 9
    2efe:	2a 9f       	mul	r18, r26
    2f00:	c0 01       	movw	r24, r0
    2f02:	2b 9f       	mul	r18, r27
    2f04:	90 0d       	add	r25, r0
    2f06:	11 24       	eor	r1, r1
    2f08:	8e 0f       	add	r24, r30
    2f0a:	9f 1f       	adc	r25, r31
    2f0c:	88 0f       	add	r24, r24
    2f0e:	99 1f       	adc	r25, r25
    2f10:	88 0f       	add	r24, r24
    2f12:	99 1f       	adc	r25, r25
    2f14:	fc 01       	movw	r30, r24
    2f16:	e5 5b       	subi	r30, 0xB5	; 181
    2f18:	ff 4e       	sbci	r31, 0xEF	; 239
    2f1a:	fe 8f       	std	Y+30, r31	; 0x1e
    2f1c:	ed 8f       	std	Y+29, r30	; 0x1d
    2f1e:	2b 96       	adiw	r28, 0x0b	; 11
    2f20:	4e ad       	ldd	r20, Y+62	; 0x3e
    2f22:	5f ad       	ldd	r21, Y+63	; 0x3f
    2f24:	2b 97       	sbiw	r28, 0x0b	; 11
    2f26:	24 9f       	mul	r18, r20
    2f28:	c0 01       	movw	r24, r0
    2f2a:	25 9f       	mul	r18, r21
    2f2c:	90 0d       	add	r25, r0
    2f2e:	11 24       	eor	r1, r1
    2f30:	a9 a5       	ldd	r26, Y+41	; 0x29
    2f32:	ba a5       	ldd	r27, Y+42	; 0x2a
    2f34:	8a 0f       	add	r24, r26
    2f36:	9b 1f       	adc	r25, r27
    2f38:	88 0f       	add	r24, r24
    2f3a:	99 1f       	adc	r25, r25
    2f3c:	88 0f       	add	r24, r24
    2f3e:	99 1f       	adc	r25, r25
    2f40:	fc 01       	movw	r30, r24
    2f42:	e5 5b       	subi	r30, 0xB5	; 181
    2f44:	ff 4e       	sbci	r31, 0xEF	; 239
    2f46:	fa a3       	std	Y+34, r31	; 0x22
    2f48:	e9 a3       	std	Y+33, r30	; 0x21
    2f4a:	8d 01       	movw	r16, r26
    2f4c:	00 0f       	add	r16, r16
    2f4e:	11 1f       	adc	r17, r17
    2f50:	00 0f       	add	r16, r16
    2f52:	11 1f       	adc	r17, r17
    2f54:	0b 57       	subi	r16, 0x7B	; 123
    2f56:	13 4f       	sbci	r17, 0xF3	; 243
    2f58:	fc a2       	std	Y+36, r15	; 0x24
    2f5a:	eb a2       	std	Y+35, r14	; 0x23
    2f5c:	a9 86       	std	Y+9, r10	; 0x09
    2f5e:	ba 86       	std	Y+10, r11	; 0x0a
    2f60:	cb 86       	std	Y+11, r12	; 0x0b
    2f62:	dc 86       	std	Y+12, r13	; 0x0c
    2f64:	4d 86       	std	Y+13, r4	; 0x0d
    2f66:	5e 86       	std	Y+14, r5	; 0x0e
    2f68:	6f 86       	std	Y+15, r6	; 0x0f
    2f6a:	78 8a       	std	Y+16, r7	; 0x10
    2f6c:	2b a5       	ldd	r18, Y+43	; 0x2b
    2f6e:	3c a5       	ldd	r19, Y+44	; 0x2c
    2f70:	4d a5       	ldd	r20, Y+45	; 0x2d
    2f72:	5e a5       	ldd	r21, Y+46	; 0x2e
    2f74:	69 85       	ldd	r22, Y+9	; 0x09
    2f76:	7a 85       	ldd	r23, Y+10	; 0x0a
    2f78:	8b 85       	ldd	r24, Y+11	; 0x0b
    2f7a:	9c 85       	ldd	r25, Y+12	; 0x0c
    2f7c:	0e 94 45 4f 	call	0x9e8a	; 0x9e8a <__addsf3>
    2f80:	69 87       	std	Y+9, r22	; 0x09
    2f82:	7a 87       	std	Y+10, r23	; 0x0a
    2f84:	8b 87       	std	Y+11, r24	; 0x0b
    2f86:	9c 87       	std	Y+12, r25	; 0x0c
    2f88:	2f a5       	ldd	r18, Y+47	; 0x2f
    2f8a:	38 a9       	ldd	r19, Y+48	; 0x30
    2f8c:	49 a9       	ldd	r20, Y+49	; 0x31
    2f8e:	5a a9       	ldd	r21, Y+50	; 0x32
    2f90:	a3 96       	adiw	r28, 0x23	; 35
    2f92:	6c ad       	ldd	r22, Y+60	; 0x3c
    2f94:	7d ad       	ldd	r23, Y+61	; 0x3d
    2f96:	8e ad       	ldd	r24, Y+62	; 0x3e
    2f98:	9f ad       	ldd	r25, Y+63	; 0x3f
    2f9a:	a3 97       	sbiw	r28, 0x23	; 35
    2f9c:	0e 94 45 4f 	call	0x9e8a	; 0x9e8a <__addsf3>
    2fa0:	a3 96       	adiw	r28, 0x23	; 35
    2fa2:	6c af       	std	Y+60, r22	; 0x3c
    2fa4:	7d af       	std	Y+61, r23	; 0x3d
    2fa6:	8e af       	std	Y+62, r24	; 0x3e
    2fa8:	9f af       	std	Y+63, r25	; 0x3f
    2faa:	a3 97       	sbiw	r28, 0x23	; 35
    2fac:	23 96       	adiw	r28, 0x03	; 3
    2fae:	2c ad       	ldd	r18, Y+60	; 0x3c
    2fb0:	3d ad       	ldd	r19, Y+61	; 0x3d
    2fb2:	4e ad       	ldd	r20, Y+62	; 0x3e
    2fb4:	5f ad       	ldd	r21, Y+63	; 0x3f
    2fb6:	23 97       	sbiw	r28, 0x03	; 3
    2fb8:	6d 85       	ldd	r22, Y+13	; 0x0d
    2fba:	7e 85       	ldd	r23, Y+14	; 0x0e
    2fbc:	8f 85       	ldd	r24, Y+15	; 0x0f
    2fbe:	98 89       	ldd	r25, Y+16	; 0x10
    2fc0:	0e 94 45 4f 	call	0x9e8a	; 0x9e8a <__addsf3>
    2fc4:	6d 87       	std	Y+13, r22	; 0x0d
    2fc6:	7e 87       	std	Y+14, r23	; 0x0e
    2fc8:	8f 87       	std	Y+15, r24	; 0x0f
    2fca:	98 8b       	std	Y+16, r25	; 0x10
    2fcc:	a3 96       	adiw	r28, 0x23	; 35
    2fce:	2c ad       	ldd	r18, Y+60	; 0x3c
    2fd0:	3d ad       	ldd	r19, Y+61	; 0x3d
    2fd2:	4e ad       	ldd	r20, Y+62	; 0x3e
    2fd4:	5f ad       	ldd	r21, Y+63	; 0x3f
    2fd6:	a3 97       	sbiw	r28, 0x23	; 35
    2fd8:	69 85       	ldd	r22, Y+9	; 0x09
    2fda:	7a 85       	ldd	r23, Y+10	; 0x0a
    2fdc:	8b 85       	ldd	r24, Y+11	; 0x0b
    2fde:	9c 85       	ldd	r25, Y+12	; 0x0c
    2fe0:	0e 94 b8 4f 	call	0x9f70	; 0x9f70 <atan2>
    2fe4:	20 e0       	ldi	r18, 0x00	; 0
    2fe6:	30 e0       	ldi	r19, 0x00	; 0
    2fe8:	44 e3       	ldi	r20, 0x34	; 52
    2fea:	53 e4       	ldi	r21, 0x43	; 67
    2fec:	0e 94 a5 51 	call	0xa34a	; 0xa34a <__mulsf3>
    2ff0:	28 ed       	ldi	r18, 0xD8	; 216
    2ff2:	3f e0       	ldi	r19, 0x0F	; 15
    2ff4:	49 e4       	ldi	r20, 0x49	; 73
    2ff6:	50 e4       	ldi	r21, 0x40	; 64
    2ff8:	0e 94 0f 50 	call	0xa01e	; 0xa01e <__divsf3>
    2ffc:	0e 94 77 50 	call	0xa0ee	; 0xa0ee <__fixsfsi>
    3000:	6d a3       	std	Y+37, r22	; 0x25
    3002:	7e a3       	std	Y+38, r23	; 0x26
    3004:	8f a3       	std	Y+39, r24	; 0x27
    3006:	98 a7       	std	Y+40, r25	; 0x28
    3008:	2d 85       	ldd	r18, Y+13	; 0x0d
    300a:	3e 85       	ldd	r19, Y+14	; 0x0e
    300c:	4f 85       	ldd	r20, Y+15	; 0x0f
    300e:	58 89       	ldd	r21, Y+16	; 0x10
    3010:	ca 01       	movw	r24, r20
    3012:	b9 01       	movw	r22, r18
    3014:	0e 94 a5 51 	call	0xa34a	; 0xa34a <__mulsf3>
    3018:	69 8b       	std	Y+17, r22	; 0x11
    301a:	7a 8b       	std	Y+18, r23	; 0x12
    301c:	8b 8b       	std	Y+19, r24	; 0x13
    301e:	9c 8b       	std	Y+20, r25	; 0x14
    3020:	29 85       	ldd	r18, Y+9	; 0x09
    3022:	3a 85       	ldd	r19, Y+10	; 0x0a
    3024:	4b 85       	ldd	r20, Y+11	; 0x0b
    3026:	5c 85       	ldd	r21, Y+12	; 0x0c
    3028:	ca 01       	movw	r24, r20
    302a:	b9 01       	movw	r22, r18
    302c:	0e 94 a5 51 	call	0xa34a	; 0xa34a <__mulsf3>
    3030:	6b 01       	movw	r12, r22
    3032:	7c 01       	movw	r14, r24
    3034:	a3 96       	adiw	r28, 0x23	; 35
    3036:	2c ad       	ldd	r18, Y+60	; 0x3c
    3038:	3d ad       	ldd	r19, Y+61	; 0x3d
    303a:	4e ad       	ldd	r20, Y+62	; 0x3e
    303c:	5f ad       	ldd	r21, Y+63	; 0x3f
    303e:	a3 97       	sbiw	r28, 0x23	; 35
    3040:	ca 01       	movw	r24, r20
    3042:	b9 01       	movw	r22, r18
    3044:	0e 94 a5 51 	call	0xa34a	; 0xa34a <__mulsf3>
    3048:	9b 01       	movw	r18, r22
    304a:	ac 01       	movw	r20, r24
    304c:	c7 01       	movw	r24, r14
    304e:	b6 01       	movw	r22, r12
    3050:	0e 94 45 4f 	call	0x9e8a	; 0x9e8a <__addsf3>
    3054:	6d 8b       	std	Y+21, r22	; 0x15
    3056:	7e 8b       	std	Y+22, r23	; 0x16
    3058:	8f 8b       	std	Y+23, r24	; 0x17
    305a:	98 8f       	std	Y+24, r25	; 0x18
    305c:	0e 94 0c 52 	call	0xa418	; 0xa418 <sqrt>
    3060:	20 e0       	ldi	r18, 0x00	; 0
    3062:	30 e0       	ldi	r19, 0x00	; 0
    3064:	48 e4       	ldi	r20, 0x48	; 72
    3066:	52 e4       	ldi	r21, 0x42	; 66
    3068:	0e 94 44 4f 	call	0x9e88	; 0x9e88 <__subsf3>
    306c:	6b 01       	movw	r12, r22
    306e:	7c 01       	movw	r14, r24
    3070:	9b 01       	movw	r18, r22
    3072:	ac 01       	movw	r20, r24
    3074:	0e 94 a5 51 	call	0xa34a	; 0xa34a <__mulsf3>
    3078:	69 8f       	std	Y+25, r22	; 0x19
    307a:	7a 8f       	std	Y+26, r23	; 0x1a
    307c:	8b 8f       	std	Y+27, r24	; 0x1b
    307e:	9c 8f       	std	Y+28, r25	; 0x1c
    3080:	9b 01       	movw	r18, r22
    3082:	ac 01       	movw	r20, r24
    3084:	69 89       	ldd	r22, Y+17	; 0x11
    3086:	7a 89       	ldd	r23, Y+18	; 0x12
    3088:	8b 89       	ldd	r24, Y+19	; 0x13
    308a:	9c 89       	ldd	r25, Y+20	; 0x14
    308c:	0e 94 45 4f 	call	0x9e8a	; 0x9e8a <__addsf3>
    3090:	4b 01       	movw	r8, r22
    3092:	5c 01       	movw	r10, r24
    3094:	0e 94 0c 52 	call	0xa418	; 0xa418 <sqrt>
    3098:	9b 01       	movw	r18, r22
    309a:	ac 01       	movw	r20, r24
    309c:	6d 85       	ldd	r22, Y+13	; 0x0d
    309e:	7e 85       	ldd	r23, Y+14	; 0x0e
    30a0:	8f 85       	ldd	r24, Y+15	; 0x0f
    30a2:	98 89       	ldd	r25, Y+16	; 0x10
    30a4:	90 58       	subi	r25, 0x80	; 128
    30a6:	0e 94 0f 50 	call	0xa01e	; 0xa01e <__divsf3>
    30aa:	0e 94 36 4f 	call	0x9e6c	; 0x9e6c <acos>
    30ae:	2b 01       	movw	r4, r22
    30b0:	3c 01       	movw	r6, r24
    30b2:	20 e0       	ldi	r18, 0x00	; 0
    30b4:	30 e0       	ldi	r19, 0x00	; 0
    30b6:	48 e4       	ldi	r20, 0x48	; 72
    30b8:	52 e4       	ldi	r21, 0x42	; 66
    30ba:	6d 89       	ldd	r22, Y+21	; 0x15
    30bc:	7e 89       	ldd	r23, Y+22	; 0x16
    30be:	8f 89       	ldd	r24, Y+23	; 0x17
    30c0:	98 8d       	ldd	r25, Y+24	; 0x18
    30c2:	0e 94 44 4f 	call	0x9e88	; 0x9e88 <__subsf3>
    30c6:	0e 94 0c 52 	call	0xa418	; 0xa418 <sqrt>
    30ca:	9b 01       	movw	r18, r22
    30cc:	ac 01       	movw	r20, r24
    30ce:	c7 01       	movw	r24, r14
    30d0:	b6 01       	movw	r22, r12
    30d2:	0e 94 a5 51 	call	0xa34a	; 0xa34a <__mulsf3>
    30d6:	9b 01       	movw	r18, r22
    30d8:	ac 01       	movw	r20, r24
    30da:	69 89       	ldd	r22, Y+17	; 0x11
    30dc:	7a 89       	ldd	r23, Y+18	; 0x12
    30de:	8b 89       	ldd	r24, Y+19	; 0x13
    30e0:	9c 89       	ldd	r25, Y+20	; 0x14
    30e2:	0e 94 45 4f 	call	0x9e8a	; 0x9e8a <__addsf3>
    30e6:	0e 94 0c 52 	call	0xa418	; 0xa418 <sqrt>
    30ea:	6b 01       	movw	r12, r22
    30ec:	7c 01       	movw	r14, r24
    30ee:	20 e0       	ldi	r18, 0x00	; 0
    30f0:	38 e4       	ldi	r19, 0x48	; 72
    30f2:	4c e8       	ldi	r20, 0x8C	; 140
    30f4:	55 e4       	ldi	r21, 0x45	; 69
    30f6:	c5 01       	movw	r24, r10
    30f8:	b4 01       	movw	r22, r8
    30fa:	0e 94 45 4f 	call	0x9e8a	; 0x9e8a <__addsf3>
    30fe:	20 e0       	ldi	r18, 0x00	; 0
    3100:	38 e0       	ldi	r19, 0x08	; 8
    3102:	44 e8       	ldi	r20, 0x84	; 132
    3104:	56 e4       	ldi	r21, 0x46	; 70
    3106:	0e 94 44 4f 	call	0x9e88	; 0x9e88 <__subsf3>
    310a:	4b 01       	movw	r8, r22
    310c:	5c 01       	movw	r10, r24
    310e:	a7 01       	movw	r20, r14
    3110:	96 01       	movw	r18, r12
    3112:	c7 01       	movw	r24, r14
    3114:	b6 01       	movw	r22, r12
    3116:	0e 94 45 4f 	call	0x9e8a	; 0x9e8a <__addsf3>
    311a:	20 e0       	ldi	r18, 0x00	; 0
    311c:	30 e0       	ldi	r19, 0x00	; 0
    311e:	46 e8       	ldi	r20, 0x86	; 134
    3120:	52 e4       	ldi	r21, 0x42	; 66
    3122:	0e 94 a5 51 	call	0xa34a	; 0xa34a <__mulsf3>
    3126:	9b 01       	movw	r18, r22
    3128:	ac 01       	movw	r20, r24
    312a:	c5 01       	movw	r24, r10
    312c:	b4 01       	movw	r22, r8
    312e:	0e 94 0f 50 	call	0xa01e	; 0xa01e <__divsf3>
    3132:	0e 94 36 4f 	call	0x9e6c	; 0x9e6c <acos>
    3136:	9b 01       	movw	r18, r22
    3138:	ac 01       	movw	r20, r24
    313a:	c3 01       	movw	r24, r6
    313c:	b2 01       	movw	r22, r4
    313e:	0e 94 45 4f 	call	0x9e8a	; 0x9e8a <__addsf3>
    3142:	24 ee       	ldi	r18, 0xE4	; 228
    3144:	3e e2       	ldi	r19, 0x2E	; 46
    3146:	45 e6       	ldi	r20, 0x65	; 101
    3148:	52 e4       	ldi	r21, 0x42	; 66
    314a:	0e 94 a5 51 	call	0xa34a	; 0xa34a <__mulsf3>
    314e:	0e 94 77 50 	call	0xa0ee	; 0xa0ee <__fixsfsi>
    3152:	6b 01       	movw	r12, r22
    3154:	7c 01       	movw	r14, r24
    3156:	29 89       	ldd	r18, Y+17	; 0x11
    3158:	3a 89       	ldd	r19, Y+18	; 0x12
    315a:	4b 89       	ldd	r20, Y+19	; 0x13
    315c:	5c 89       	ldd	r21, Y+20	; 0x14
    315e:	60 e0       	ldi	r22, 0x00	; 0
    3160:	7a e1       	ldi	r23, 0x1A	; 26
    3162:	87 ea       	ldi	r24, 0xA7	; 167
    3164:	96 e4       	ldi	r25, 0x46	; 70
    3166:	0e 94 44 4f 	call	0x9e88	; 0x9e88 <__subsf3>
    316a:	29 8d       	ldd	r18, Y+25	; 0x19
    316c:	3a 8d       	ldd	r19, Y+26	; 0x1a
    316e:	4b 8d       	ldd	r20, Y+27	; 0x1b
    3170:	5c 8d       	ldd	r21, Y+28	; 0x1c
    3172:	0e 94 44 4f 	call	0x9e88	; 0x9e88 <__subsf3>
    3176:	20 e0       	ldi	r18, 0x00	; 0
    3178:	38 e1       	ldi	r19, 0x18	; 24
    317a:	48 e8       	ldi	r20, 0x88	; 136
    317c:	56 e4       	ldi	r21, 0x46	; 70
    317e:	0e 94 0f 50 	call	0xa01e	; 0xa01e <__divsf3>
    3182:	0e 94 36 4f 	call	0x9e6c	; 0x9e6c <acos>
    3186:	20 e0       	ldi	r18, 0x00	; 0
    3188:	30 e0       	ldi	r19, 0x00	; 0
    318a:	44 e3       	ldi	r20, 0x34	; 52
    318c:	53 e4       	ldi	r21, 0x43	; 67
    318e:	0e 94 a5 51 	call	0xa34a	; 0xa34a <__mulsf3>
    3192:	28 ed       	ldi	r18, 0xD8	; 216
    3194:	3f e0       	ldi	r19, 0x0F	; 15
    3196:	49 e4       	ldi	r20, 0x49	; 73
    3198:	50 e4       	ldi	r21, 0x40	; 64
    319a:	0e 94 0f 50 	call	0xa01e	; 0xa01e <__divsf3>
    319e:	0e 94 77 50 	call	0xa0ee	; 0xa0ee <__fixsfsi>
    31a2:	f2 e0       	ldi	r31, 0x02	; 2
    31a4:	2f 16       	cp	r2, r31
    31a6:	31 04       	cpc	r3, r1
    31a8:	09 f4       	brne	.+2      	; 0x31ac <CalcCurvedPath+0xad6>
    31aa:	59 c0       	rjmp	.+178    	; 0x325e <CalcCurvedPath+0xb88>
    31ac:	2c f4       	brge	.+10     	; 0x31b8 <CalcCurvedPath+0xae2>
    31ae:	31 e0       	ldi	r19, 0x01	; 1
    31b0:	23 16       	cp	r2, r19
    31b2:	31 04       	cpc	r3, r1
    31b4:	61 f0       	breq	.+24     	; 0x31ce <CalcCurvedPath+0xaf8>
    31b6:	38 c1       	rjmp	.+624    	; 0x3428 <CalcCurvedPath+0xd52>
    31b8:	43 e0       	ldi	r20, 0x03	; 3
    31ba:	24 16       	cp	r2, r20
    31bc:	31 04       	cpc	r3, r1
    31be:	09 f4       	brne	.+2      	; 0x31c2 <CalcCurvedPath+0xaec>
    31c0:	97 c0       	rjmp	.+302    	; 0x32f0 <CalcCurvedPath+0xc1a>
    31c2:	54 e0       	ldi	r21, 0x04	; 4
    31c4:	25 16       	cp	r2, r21
    31c6:	31 04       	cpc	r3, r1
    31c8:	09 f4       	brne	.+2      	; 0x31cc <CalcCurvedPath+0xaf6>
    31ca:	e1 c0       	rjmp	.+450    	; 0x338e <CalcCurvedPath+0xcb8>
    31cc:	2d c1       	rjmp	.+602    	; 0x3428 <CalcCurvedPath+0xd52>
    31ce:	8d a0       	ldd	r8, Y+37	; 0x25
    31d0:	9e a0       	ldd	r9, Y+38	; 0x26
    31d2:	af a0       	ldd	r10, Y+39	; 0x27
    31d4:	b8 a4       	ldd	r11, Y+40	; 0x28
    31d6:	a9 e6       	ldi	r26, 0x69	; 105
    31d8:	8a 0e       	add	r8, r26
    31da:	91 1c       	adc	r9, r1
    31dc:	a1 1c       	adc	r10, r1
    31de:	b1 1c       	adc	r11, r1
    31e0:	eb a1       	ldd	r30, Y+35	; 0x23
    31e2:	fc a1       	ldd	r31, Y+36	; 0x24
    31e4:	80 82       	st	Z, r8
    31e6:	91 82       	std	Z+1, r9	; 0x01
    31e8:	a2 82       	std	Z+2, r10	; 0x02
    31ea:	b3 82       	std	Z+3, r11	; 0x03
    31ec:	fb e4       	ldi	r31, 0x4B	; 75
    31ee:	cf 0e       	add	r12, r31
    31f0:	d1 1c       	adc	r13, r1
    31f2:	e1 1c       	adc	r14, r1
    31f4:	f1 1c       	adc	r15, r1
    31f6:	ad 8d       	ldd	r26, Y+29	; 0x1d
    31f8:	be 8d       	ldd	r27, Y+30	; 0x1e
    31fa:	cd 92       	st	X+, r12
    31fc:	dd 92       	st	X+, r13
    31fe:	ed 92       	st	X+, r14
    3200:	fc 92       	st	X, r15
    3202:	13 97       	sbiw	r26, 0x03	; 3
    3204:	dc 01       	movw	r26, r24
    3206:	cb 01       	movw	r24, r22
    3208:	01 96       	adiw	r24, 0x01	; 1
    320a:	a1 1d       	adc	r26, r1
    320c:	b1 1d       	adc	r27, r1
    320e:	e9 a1       	ldd	r30, Y+33	; 0x21
    3210:	fa a1       	ldd	r31, Y+34	; 0x22
    3212:	80 83       	st	Z, r24
    3214:	91 83       	std	Z+1, r25	; 0x01
    3216:	a2 83       	std	Z+2, r26	; 0x02
    3218:	b3 83       	std	Z+3, r27	; 0x03
    321a:	29 85       	ldd	r18, Y+9	; 0x09
    321c:	3a 85       	ldd	r19, Y+10	; 0x0a
    321e:	4b 85       	ldd	r20, Y+11	; 0x0b
    3220:	5c 85       	ldd	r21, Y+12	; 0x0c
    3222:	d8 01       	movw	r26, r16
    3224:	2d 93       	st	X+, r18
    3226:	3d 93       	st	X+, r19
    3228:	4d 93       	st	X+, r20
    322a:	5c 93       	st	X, r21
    322c:	13 97       	sbiw	r26, 0x03	; 3
    322e:	f8 01       	movw	r30, r16
    3230:	e0 5b       	subi	r30, 0xB0	; 176
    3232:	ff 4f       	sbci	r31, 0xFF	; 255
    3234:	a3 96       	adiw	r28, 0x23	; 35
    3236:	2c ad       	ldd	r18, Y+60	; 0x3c
    3238:	3d ad       	ldd	r19, Y+61	; 0x3d
    323a:	4e ad       	ldd	r20, Y+62	; 0x3e
    323c:	5f ad       	ldd	r21, Y+63	; 0x3f
    323e:	a3 97       	sbiw	r28, 0x23	; 35
    3240:	20 83       	st	Z, r18
    3242:	31 83       	std	Z+1, r19	; 0x01
    3244:	42 83       	std	Z+2, r20	; 0x02
    3246:	53 83       	std	Z+3, r21	; 0x03
    3248:	e0 5b       	subi	r30, 0xB0	; 176
    324a:	ff 4f       	sbci	r31, 0xFF	; 255
    324c:	8d 85       	ldd	r24, Y+13	; 0x0d
    324e:	9e 85       	ldd	r25, Y+14	; 0x0e
    3250:	af 85       	ldd	r26, Y+15	; 0x0f
    3252:	b8 89       	ldd	r27, Y+16	; 0x10
    3254:	80 83       	st	Z, r24
    3256:	91 83       	std	Z+1, r25	; 0x01
    3258:	a2 83       	std	Z+2, r26	; 0x02
    325a:	b3 83       	std	Z+3, r27	; 0x03
    325c:	e5 c0       	rjmp	.+458    	; 0x3428 <CalcCurvedPath+0xd52>
    325e:	8d a0       	ldd	r8, Y+37	; 0x25
    3260:	9e a0       	ldd	r9, Y+38	; 0x26
    3262:	af a0       	ldd	r10, Y+39	; 0x27
    3264:	b8 a4       	ldd	r11, Y+40	; 0x28
    3266:	a1 ec       	ldi	r26, 0xC1	; 193
    3268:	8a 0e       	add	r8, r26
    326a:	91 1c       	adc	r9, r1
    326c:	a1 1c       	adc	r10, r1
    326e:	b1 1c       	adc	r11, r1
    3270:	eb a1       	ldd	r30, Y+35	; 0x23
    3272:	fc a1       	ldd	r31, Y+36	; 0x24
    3274:	80 82       	st	Z, r8
    3276:	91 82       	std	Z+1, r9	; 0x01
    3278:	a2 82       	std	Z+2, r10	; 0x02
    327a:	b3 82       	std	Z+3, r11	; 0x03
    327c:	fb e4       	ldi	r31, 0x4B	; 75
    327e:	cf 0e       	add	r12, r31
    3280:	d1 1c       	adc	r13, r1
    3282:	e1 1c       	adc	r14, r1
    3284:	f1 1c       	adc	r15, r1
    3286:	ad 8d       	ldd	r26, Y+29	; 0x1d
    3288:	be 8d       	ldd	r27, Y+30	; 0x1e
    328a:	cd 92       	st	X+, r12
    328c:	dd 92       	st	X+, r13
    328e:	ed 92       	st	X+, r14
    3290:	fc 92       	st	X, r15
    3292:	13 97       	sbiw	r26, 0x03	; 3
    3294:	dc 01       	movw	r26, r24
    3296:	cb 01       	movw	r24, r22
    3298:	03 96       	adiw	r24, 0x03	; 3
    329a:	a1 1d       	adc	r26, r1
    329c:	b1 1d       	adc	r27, r1
    329e:	e9 a1       	ldd	r30, Y+33	; 0x21
    32a0:	fa a1       	ldd	r31, Y+34	; 0x22
    32a2:	80 83       	st	Z, r24
    32a4:	91 83       	std	Z+1, r25	; 0x01
    32a6:	a2 83       	std	Z+2, r26	; 0x02
    32a8:	b3 83       	std	Z+3, r27	; 0x03
    32aa:	f8 01       	movw	r30, r16
    32ac:	e0 51       	subi	r30, 0x10	; 16
    32ae:	ff 4f       	sbci	r31, 0xFF	; 255
    32b0:	89 85       	ldd	r24, Y+9	; 0x09
    32b2:	9a 85       	ldd	r25, Y+10	; 0x0a
    32b4:	ab 85       	ldd	r26, Y+11	; 0x0b
    32b6:	bc 85       	ldd	r27, Y+12	; 0x0c
    32b8:	b0 58       	subi	r27, 0x80	; 128
    32ba:	80 83       	st	Z, r24
    32bc:	91 83       	std	Z+1, r25	; 0x01
    32be:	a2 83       	std	Z+2, r26	; 0x02
    32c0:	b3 83       	std	Z+3, r27	; 0x03
    32c2:	e0 5b       	subi	r30, 0xB0	; 176
    32c4:	ff 4f       	sbci	r31, 0xFF	; 255
    32c6:	a3 96       	adiw	r28, 0x23	; 35
    32c8:	2c ad       	ldd	r18, Y+60	; 0x3c
    32ca:	3d ad       	ldd	r19, Y+61	; 0x3d
    32cc:	4e ad       	ldd	r20, Y+62	; 0x3e
    32ce:	5f ad       	ldd	r21, Y+63	; 0x3f
    32d0:	a3 97       	sbiw	r28, 0x23	; 35
    32d2:	20 83       	st	Z, r18
    32d4:	31 83       	std	Z+1, r19	; 0x01
    32d6:	42 83       	std	Z+2, r20	; 0x02
    32d8:	53 83       	std	Z+3, r21	; 0x03
    32da:	e0 5b       	subi	r30, 0xB0	; 176
    32dc:	ff 4f       	sbci	r31, 0xFF	; 255
    32de:	8d 85       	ldd	r24, Y+13	; 0x0d
    32e0:	9e 85       	ldd	r25, Y+14	; 0x0e
    32e2:	af 85       	ldd	r26, Y+15	; 0x0f
    32e4:	b8 89       	ldd	r27, Y+16	; 0x10
    32e6:	80 83       	st	Z, r24
    32e8:	91 83       	std	Z+1, r25	; 0x01
    32ea:	a2 83       	std	Z+2, r26	; 0x02
    32ec:	b3 83       	std	Z+3, r27	; 0x03
    32ee:	9c c0       	rjmp	.+312    	; 0x3428 <CalcCurvedPath+0xd52>
    32f0:	8d a0       	ldd	r8, Y+37	; 0x25
    32f2:	9e a0       	ldd	r9, Y+38	; 0x26
    32f4:	af a0       	ldd	r10, Y+39	; 0x27
    32f6:	b8 a4       	ldd	r11, Y+40	; 0x28
    32f8:	a3 ec       	ldi	r26, 0xC3	; 195
    32fa:	8a 0e       	add	r8, r26
    32fc:	91 1c       	adc	r9, r1
    32fe:	a1 1c       	adc	r10, r1
    3300:	b1 1c       	adc	r11, r1
    3302:	eb a1       	ldd	r30, Y+35	; 0x23
    3304:	fc a1       	ldd	r31, Y+36	; 0x24
    3306:	80 82       	st	Z, r8
    3308:	91 82       	std	Z+1, r9	; 0x01
    330a:	a2 82       	std	Z+2, r10	; 0x02
    330c:	b3 82       	std	Z+3, r11	; 0x03
    330e:	21 ee       	ldi	r18, 0xE1	; 225
    3310:	30 e0       	ldi	r19, 0x00	; 0
    3312:	40 e0       	ldi	r20, 0x00	; 0
    3314:	50 e0       	ldi	r21, 0x00	; 0
    3316:	2c 19       	sub	r18, r12
    3318:	3d 09       	sbc	r19, r13
    331a:	4e 09       	sbc	r20, r14
    331c:	5f 09       	sbc	r21, r15
    331e:	ad 8d       	ldd	r26, Y+29	; 0x1d
    3320:	be 8d       	ldd	r27, Y+30	; 0x1e
    3322:	2d 93       	st	X+, r18
    3324:	3d 93       	st	X+, r19
    3326:	4d 93       	st	X+, r20
    3328:	5c 93       	st	X, r21
    332a:	13 97       	sbiw	r26, 0x03	; 3
    332c:	2c e2       	ldi	r18, 0x2C	; 44
    332e:	31 e0       	ldi	r19, 0x01	; 1
    3330:	40 e0       	ldi	r20, 0x00	; 0
    3332:	50 e0       	ldi	r21, 0x00	; 0
    3334:	26 1b       	sub	r18, r22
    3336:	37 0b       	sbc	r19, r23
    3338:	48 0b       	sbc	r20, r24
    333a:	59 0b       	sbc	r21, r25
    333c:	e9 a1       	ldd	r30, Y+33	; 0x21
    333e:	fa a1       	ldd	r31, Y+34	; 0x22
    3340:	20 83       	st	Z, r18
    3342:	31 83       	std	Z+1, r19	; 0x01
    3344:	42 83       	std	Z+2, r20	; 0x02
    3346:	53 83       	std	Z+3, r21	; 0x03
    3348:	f8 01       	movw	r30, r16
    334a:	e0 52       	subi	r30, 0x20	; 32
    334c:	fe 4f       	sbci	r31, 0xFE	; 254
    334e:	89 85       	ldd	r24, Y+9	; 0x09
    3350:	9a 85       	ldd	r25, Y+10	; 0x0a
    3352:	ab 85       	ldd	r26, Y+11	; 0x0b
    3354:	bc 85       	ldd	r27, Y+12	; 0x0c
    3356:	b0 58       	subi	r27, 0x80	; 128
    3358:	80 83       	st	Z, r24
    335a:	91 83       	std	Z+1, r25	; 0x01
    335c:	a2 83       	std	Z+2, r26	; 0x02
    335e:	b3 83       	std	Z+3, r27	; 0x03
    3360:	e0 5b       	subi	r30, 0xB0	; 176
    3362:	ff 4f       	sbci	r31, 0xFF	; 255
    3364:	a3 96       	adiw	r28, 0x23	; 35
    3366:	2c ad       	ldd	r18, Y+60	; 0x3c
    3368:	3d ad       	ldd	r19, Y+61	; 0x3d
    336a:	4e ad       	ldd	r20, Y+62	; 0x3e
    336c:	5f ad       	ldd	r21, Y+63	; 0x3f
    336e:	a3 97       	sbiw	r28, 0x23	; 35
    3370:	20 83       	st	Z, r18
    3372:	31 83       	std	Z+1, r19	; 0x01
    3374:	42 83       	std	Z+2, r20	; 0x02
    3376:	53 83       	std	Z+3, r21	; 0x03
    3378:	e0 5b       	subi	r30, 0xB0	; 176
    337a:	ff 4f       	sbci	r31, 0xFF	; 255
    337c:	8d 85       	ldd	r24, Y+13	; 0x0d
    337e:	9e 85       	ldd	r25, Y+14	; 0x0e
    3380:	af 85       	ldd	r26, Y+15	; 0x0f
    3382:	b8 89       	ldd	r27, Y+16	; 0x10
    3384:	80 83       	st	Z, r24
    3386:	91 83       	std	Z+1, r25	; 0x01
    3388:	a2 83       	std	Z+2, r26	; 0x02
    338a:	b3 83       	std	Z+3, r27	; 0x03
    338c:	4d c0       	rjmp	.+154    	; 0x3428 <CalcCurvedPath+0xd52>
    338e:	8d a0       	ldd	r8, Y+37	; 0x25
    3390:	9e a0       	ldd	r9, Y+38	; 0x26
    3392:	af a0       	ldd	r10, Y+39	; 0x27
    3394:	b8 a4       	ldd	r11, Y+40	; 0x28
    3396:	a9 e6       	ldi	r26, 0x69	; 105
    3398:	8a 0e       	add	r8, r26
    339a:	91 1c       	adc	r9, r1
    339c:	a1 1c       	adc	r10, r1
    339e:	b1 1c       	adc	r11, r1
    33a0:	eb a1       	ldd	r30, Y+35	; 0x23
    33a2:	fc a1       	ldd	r31, Y+36	; 0x24
    33a4:	80 82       	st	Z, r8
    33a6:	91 82       	std	Z+1, r9	; 0x01
    33a8:	a2 82       	std	Z+2, r10	; 0x02
    33aa:	b3 82       	std	Z+3, r11	; 0x03
    33ac:	21 ee       	ldi	r18, 0xE1	; 225
    33ae:	30 e0       	ldi	r19, 0x00	; 0
    33b0:	40 e0       	ldi	r20, 0x00	; 0
    33b2:	50 e0       	ldi	r21, 0x00	; 0
    33b4:	2c 19       	sub	r18, r12
    33b6:	3d 09       	sbc	r19, r13
    33b8:	4e 09       	sbc	r20, r14
    33ba:	5f 09       	sbc	r21, r15
    33bc:	ad 8d       	ldd	r26, Y+29	; 0x1d
    33be:	be 8d       	ldd	r27, Y+30	; 0x1e
    33c0:	2d 93       	st	X+, r18
    33c2:	3d 93       	st	X+, r19
    33c4:	4d 93       	st	X+, r20
    33c6:	5c 93       	st	X, r21
    33c8:	13 97       	sbiw	r26, 0x03	; 3
    33ca:	2c e2       	ldi	r18, 0x2C	; 44
    33cc:	31 e0       	ldi	r19, 0x01	; 1
    33ce:	40 e0       	ldi	r20, 0x00	; 0
    33d0:	50 e0       	ldi	r21, 0x00	; 0
    33d2:	26 1b       	sub	r18, r22
    33d4:	37 0b       	sbc	r19, r23
    33d6:	48 0b       	sbc	r20, r24
    33d8:	59 0b       	sbc	r21, r25
    33da:	e9 a1       	ldd	r30, Y+33	; 0x21
    33dc:	fa a1       	ldd	r31, Y+34	; 0x22
    33de:	20 83       	st	Z, r18
    33e0:	31 83       	std	Z+1, r19	; 0x01
    33e2:	42 83       	std	Z+2, r20	; 0x02
    33e4:	53 83       	std	Z+3, r21	; 0x03
    33e6:	f8 01       	movw	r30, r16
    33e8:	e0 53       	subi	r30, 0x30	; 48
    33ea:	fd 4f       	sbci	r31, 0xFD	; 253
    33ec:	29 85       	ldd	r18, Y+9	; 0x09
    33ee:	3a 85       	ldd	r19, Y+10	; 0x0a
    33f0:	4b 85       	ldd	r20, Y+11	; 0x0b
    33f2:	5c 85       	ldd	r21, Y+12	; 0x0c
    33f4:	20 83       	st	Z, r18
    33f6:	31 83       	std	Z+1, r19	; 0x01
    33f8:	42 83       	std	Z+2, r20	; 0x02
    33fa:	53 83       	std	Z+3, r21	; 0x03
    33fc:	e0 5b       	subi	r30, 0xB0	; 176
    33fe:	ff 4f       	sbci	r31, 0xFF	; 255
    3400:	a3 96       	adiw	r28, 0x23	; 35
    3402:	8c ad       	ldd	r24, Y+60	; 0x3c
    3404:	9d ad       	ldd	r25, Y+61	; 0x3d
    3406:	ae ad       	ldd	r26, Y+62	; 0x3e
    3408:	bf ad       	ldd	r27, Y+63	; 0x3f
    340a:	a3 97       	sbiw	r28, 0x23	; 35
    340c:	80 83       	st	Z, r24
    340e:	91 83       	std	Z+1, r25	; 0x01
    3410:	a2 83       	std	Z+2, r26	; 0x02
    3412:	b3 83       	std	Z+3, r27	; 0x03
    3414:	e0 5b       	subi	r30, 0xB0	; 176
    3416:	ff 4f       	sbci	r31, 0xFF	; 255
    3418:	2d 85       	ldd	r18, Y+13	; 0x0d
    341a:	3e 85       	ldd	r19, Y+14	; 0x0e
    341c:	4f 85       	ldd	r20, Y+15	; 0x0f
    341e:	58 89       	ldd	r21, Y+16	; 0x10
    3420:	20 83       	st	Z, r18
    3422:	31 83       	std	Z+1, r19	; 0x01
    3424:	42 83       	std	Z+2, r20	; 0x02
    3426:	53 83       	std	Z+3, r21	; 0x03
    3428:	49 a5       	ldd	r20, Y+41	; 0x29
    342a:	5a a5       	ldd	r21, Y+42	; 0x2a
    342c:	4f 5f       	subi	r20, 0xFF	; 255
    342e:	5f 4f       	sbci	r21, 0xFF	; 255
    3430:	5a a7       	std	Y+42, r21	; 0x2a
    3432:	49 a7       	std	Y+41, r20	; 0x29
    3434:	8b a1       	ldd	r24, Y+35	; 0x23
    3436:	9c a1       	ldd	r25, Y+36	; 0x24
    3438:	04 96       	adiw	r24, 0x04	; 4
    343a:	9c a3       	std	Y+36, r25	; 0x24
    343c:	8b a3       	std	Y+35, r24	; 0x23
    343e:	ad 8d       	ldd	r26, Y+29	; 0x1d
    3440:	be 8d       	ldd	r27, Y+30	; 0x1e
    3442:	14 96       	adiw	r26, 0x04	; 4
    3444:	be 8f       	std	Y+30, r27	; 0x1e
    3446:	ad 8f       	std	Y+29, r26	; 0x1d
    3448:	e9 a1       	ldd	r30, Y+33	; 0x21
    344a:	fa a1       	ldd	r31, Y+34	; 0x22
    344c:	34 96       	adiw	r30, 0x04	; 4
    344e:	fa a3       	std	Y+34, r31	; 0x22
    3450:	e9 a3       	std	Y+33, r30	; 0x21
    3452:	0c 5f       	subi	r16, 0xFC	; 252
    3454:	1f 4f       	sbci	r17, 0xFF	; 255
    3456:	2b a9       	ldd	r18, Y+51	; 0x33
    3458:	3c a9       	ldd	r19, Y+52	; 0x34
    345a:	42 17       	cp	r20, r18
    345c:	53 07       	cpc	r21, r19
    345e:	09 f0       	breq	.+2      	; 0x3462 <CalcCurvedPath+0xd8c>
    3460:	85 cd       	rjmp	.-1270   	; 0x2f6c <CalcCurvedPath+0x896>
    3462:	c6 5b       	subi	r28, 0xB6	; 182
    3464:	df 4f       	sbci	r29, 0xFF	; 255
    3466:	0f b6       	in	r0, 0x3f	; 63
    3468:	f8 94       	cli
    346a:	de bf       	out	0x3e, r29	; 62
    346c:	0f be       	out	0x3f, r0	; 63
    346e:	cd bf       	out	0x3d, r28	; 61
    3470:	df 91       	pop	r29
    3472:	cf 91       	pop	r28
    3474:	1f 91       	pop	r17
    3476:	0f 91       	pop	r16
    3478:	ff 90       	pop	r15
    347a:	ef 90       	pop	r14
    347c:	df 90       	pop	r13
    347e:	cf 90       	pop	r12
    3480:	bf 90       	pop	r11
    3482:	af 90       	pop	r10
    3484:	9f 90       	pop	r9
    3486:	8f 90       	pop	r8
    3488:	7f 90       	pop	r7
    348a:	6f 90       	pop	r6
    348c:	5f 90       	pop	r5
    348e:	4f 90       	pop	r4
    3490:	3f 90       	pop	r3
    3492:	2f 90       	pop	r2
    3494:	08 95       	ret

00003496 <MoveLegToNextPosition>:
    3496:	4f 92       	push	r4
    3498:	5f 92       	push	r5
    349a:	6f 92       	push	r6
    349c:	7f 92       	push	r7
    349e:	8f 92       	push	r8
    34a0:	9f 92       	push	r9
    34a2:	af 92       	push	r10
    34a4:	bf 92       	push	r11
    34a6:	cf 92       	push	r12
    34a8:	df 92       	push	r13
    34aa:	ef 92       	push	r14
    34ac:	ff 92       	push	r15
    34ae:	0f 93       	push	r16
    34b0:	1f 93       	push	r17
    34b2:	cf 93       	push	r28
    34b4:	df 93       	push	r29
    34b6:	cd b7       	in	r28, 0x3d	; 61
    34b8:	de b7       	in	r29, 0x3e	; 62
    34ba:	28 97       	sbiw	r28, 0x08	; 8
    34bc:	0f b6       	in	r0, 0x3f	; 63
    34be:	f8 94       	cli
    34c0:	de bf       	out	0x3e, r29	; 62
    34c2:	0f be       	out	0x3f, r0	; 63
    34c4:	cd bf       	out	0x3d, r28	; 61
    34c6:	4b 83       	std	Y+3, r20	; 0x03
    34c8:	5c 83       	std	Y+4, r21	; 0x04
    34ca:	6d 83       	std	Y+5, r22	; 0x05
    34cc:	7e 83       	std	Y+6, r23	; 0x06
    34ce:	8f 83       	std	Y+7, r24	; 0x07
    34d0:	98 87       	std	Y+8, r25	; 0x08
    34d2:	eb 80       	ldd	r14, Y+3	; 0x03
    34d4:	fc 80       	ldd	r15, Y+4	; 0x04
    34d6:	8d 80       	ldd	r8, Y+5	; 0x05
    34d8:	9e 80       	ldd	r9, Y+6	; 0x06
    34da:	af 80       	ldd	r10, Y+7	; 0x07
    34dc:	b8 84       	ldd	r11, Y+8	; 0x08
    34de:	24 e1       	ldi	r18, 0x14	; 20
    34e0:	2e 9d       	mul	r18, r14
    34e2:	c0 01       	movw	r24, r0
    34e4:	2f 9d       	mul	r18, r15
    34e6:	90 0d       	add	r25, r0
    34e8:	11 24       	eor	r1, r1
    34ea:	e0 91 22 01 	lds	r30, 0x0122
    34ee:	f0 91 23 01 	lds	r31, 0x0123
    34f2:	e8 0f       	add	r30, r24
    34f4:	f9 1f       	adc	r31, r25
    34f6:	ee 0f       	add	r30, r30
    34f8:	ff 1f       	adc	r31, r31
    34fa:	ee 0f       	add	r30, r30
    34fc:	ff 1f       	adc	r31, r31
    34fe:	e5 5b       	subi	r30, 0xB5	; 181
    3500:	ff 4e       	sbci	r31, 0xEF	; 239
    3502:	40 80       	ld	r4, Z
    3504:	51 80       	ldd	r5, Z+1	; 0x01
    3506:	62 80       	ldd	r6, Z+2	; 0x02
    3508:	73 80       	ldd	r7, Z+3	; 0x03
    350a:	e0 91 80 01 	lds	r30, 0x0180
    350e:	f0 91 81 01 	lds	r31, 0x0181
    3512:	8e 0f       	add	r24, r30
    3514:	9f 1f       	adc	r25, r31
    3516:	fc 01       	movw	r30, r24
    3518:	ee 0f       	add	r30, r30
    351a:	ff 1f       	adc	r31, r31
    351c:	ee 0f       	add	r30, r30
    351e:	ff 1f       	adc	r31, r31
    3520:	e5 5b       	subi	r30, 0xB5	; 181
    3522:	ff 4e       	sbci	r31, 0xEF	; 239
    3524:	80 81       	ld	r24, Z
    3526:	91 81       	ldd	r25, Z+1	; 0x01
    3528:	84 19       	sub	r24, r4
    352a:	95 09       	sbc	r25, r5
    352c:	bc 01       	movw	r22, r24
    352e:	22 f4       	brpl	.+8      	; 0x3538 <MoveLegToNextPosition+0xa2>
    3530:	66 27       	eor	r22, r22
    3532:	77 27       	eor	r23, r23
    3534:	68 1b       	sub	r22, r24
    3536:	79 0b       	sbc	r23, r25
    3538:	88 27       	eor	r24, r24
    353a:	77 fd       	sbrc	r23, 7
    353c:	80 95       	com	r24
    353e:	98 2f       	mov	r25, r24
    3540:	0e 94 24 09 	call	0x1248	; 0x1248 <calcDynamixelSpeed>
    3544:	8b 01       	movw	r16, r22
    3546:	9c 01       	movw	r18, r24
    3548:	b3 01       	movw	r22, r6
    354a:	a2 01       	movw	r20, r4
    354c:	c7 01       	movw	r24, r14
    354e:	0e 94 4a 09 	call	0x1294	; 0x1294 <MoveDynamixel>
    3552:	24 e1       	ldi	r18, 0x14	; 20
    3554:	28 9d       	mul	r18, r8
    3556:	c0 01       	movw	r24, r0
    3558:	29 9d       	mul	r18, r9
    355a:	90 0d       	add	r25, r0
    355c:	11 24       	eor	r1, r1
    355e:	e0 91 22 01 	lds	r30, 0x0122
    3562:	f0 91 23 01 	lds	r31, 0x0123
    3566:	e8 0f       	add	r30, r24
    3568:	f9 1f       	adc	r31, r25
    356a:	ee 0f       	add	r30, r30
    356c:	ff 1f       	adc	r31, r31
    356e:	ee 0f       	add	r30, r30
    3570:	ff 1f       	adc	r31, r31
    3572:	e5 5b       	subi	r30, 0xB5	; 181
    3574:	ff 4e       	sbci	r31, 0xEF	; 239
    3576:	c0 80       	ld	r12, Z
    3578:	d1 80       	ldd	r13, Z+1	; 0x01
    357a:	e2 80       	ldd	r14, Z+2	; 0x02
    357c:	f3 80       	ldd	r15, Z+3	; 0x03
    357e:	e0 91 80 01 	lds	r30, 0x0180
    3582:	f0 91 81 01 	lds	r31, 0x0181
    3586:	8e 0f       	add	r24, r30
    3588:	9f 1f       	adc	r25, r31
    358a:	fc 01       	movw	r30, r24
    358c:	ee 0f       	add	r30, r30
    358e:	ff 1f       	adc	r31, r31
    3590:	ee 0f       	add	r30, r30
    3592:	ff 1f       	adc	r31, r31
    3594:	e5 5b       	subi	r30, 0xB5	; 181
    3596:	ff 4e       	sbci	r31, 0xEF	; 239
    3598:	80 81       	ld	r24, Z
    359a:	91 81       	ldd	r25, Z+1	; 0x01
    359c:	8c 19       	sub	r24, r12
    359e:	9d 09       	sbc	r25, r13
    35a0:	bc 01       	movw	r22, r24
    35a2:	22 f4       	brpl	.+8      	; 0x35ac <MoveLegToNextPosition+0x116>
    35a4:	66 27       	eor	r22, r22
    35a6:	77 27       	eor	r23, r23
    35a8:	68 1b       	sub	r22, r24
    35aa:	79 0b       	sbc	r23, r25
    35ac:	88 27       	eor	r24, r24
    35ae:	77 fd       	sbrc	r23, 7
    35b0:	80 95       	com	r24
    35b2:	98 2f       	mov	r25, r24
    35b4:	0e 94 24 09 	call	0x1248	; 0x1248 <calcDynamixelSpeed>
    35b8:	8b 01       	movw	r16, r22
    35ba:	9c 01       	movw	r18, r24
    35bc:	b7 01       	movw	r22, r14
    35be:	a6 01       	movw	r20, r12
    35c0:	c4 01       	movw	r24, r8
    35c2:	0e 94 4a 09 	call	0x1294	; 0x1294 <MoveDynamixel>
    35c6:	24 e1       	ldi	r18, 0x14	; 20
    35c8:	2a 9d       	mul	r18, r10
    35ca:	c0 01       	movw	r24, r0
    35cc:	2b 9d       	mul	r18, r11
    35ce:	90 0d       	add	r25, r0
    35d0:	11 24       	eor	r1, r1
    35d2:	e0 91 22 01 	lds	r30, 0x0122
    35d6:	f0 91 23 01 	lds	r31, 0x0123
    35da:	e8 0f       	add	r30, r24
    35dc:	f9 1f       	adc	r31, r25
    35de:	ee 0f       	add	r30, r30
    35e0:	ff 1f       	adc	r31, r31
    35e2:	ee 0f       	add	r30, r30
    35e4:	ff 1f       	adc	r31, r31
    35e6:	e5 5b       	subi	r30, 0xB5	; 181
    35e8:	ff 4e       	sbci	r31, 0xEF	; 239
    35ea:	c0 80       	ld	r12, Z
    35ec:	d1 80       	ldd	r13, Z+1	; 0x01
    35ee:	e2 80       	ldd	r14, Z+2	; 0x02
    35f0:	f3 80       	ldd	r15, Z+3	; 0x03
    35f2:	e0 91 80 01 	lds	r30, 0x0180
    35f6:	f0 91 81 01 	lds	r31, 0x0181
    35fa:	8e 0f       	add	r24, r30
    35fc:	9f 1f       	adc	r25, r31
    35fe:	fc 01       	movw	r30, r24
    3600:	ee 0f       	add	r30, r30
    3602:	ff 1f       	adc	r31, r31
    3604:	ee 0f       	add	r30, r30
    3606:	ff 1f       	adc	r31, r31
    3608:	e5 5b       	subi	r30, 0xB5	; 181
    360a:	ff 4e       	sbci	r31, 0xEF	; 239
    360c:	80 81       	ld	r24, Z
    360e:	91 81       	ldd	r25, Z+1	; 0x01
    3610:	8c 19       	sub	r24, r12
    3612:	9d 09       	sbc	r25, r13
    3614:	bc 01       	movw	r22, r24
    3616:	22 f4       	brpl	.+8      	; 0x3620 <MoveLegToNextPosition+0x18a>
    3618:	66 27       	eor	r22, r22
    361a:	77 27       	eor	r23, r23
    361c:	68 1b       	sub	r22, r24
    361e:	79 0b       	sbc	r23, r25
    3620:	88 27       	eor	r24, r24
    3622:	77 fd       	sbrc	r23, 7
    3624:	80 95       	com	r24
    3626:	98 2f       	mov	r25, r24
    3628:	0e 94 24 09 	call	0x1248	; 0x1248 <calcDynamixelSpeed>
    362c:	8b 01       	movw	r16, r22
    362e:	9c 01       	movw	r18, r24
    3630:	b7 01       	movw	r22, r14
    3632:	a6 01       	movw	r20, r12
    3634:	c5 01       	movw	r24, r10
    3636:	0e 94 4a 09 	call	0x1294	; 0x1294 <MoveDynamixel>
    363a:	28 96       	adiw	r28, 0x08	; 8
    363c:	0f b6       	in	r0, 0x3f	; 63
    363e:	f8 94       	cli
    3640:	de bf       	out	0x3e, r29	; 62
    3642:	0f be       	out	0x3f, r0	; 63
    3644:	cd bf       	out	0x3d, r28	; 61
    3646:	df 91       	pop	r29
    3648:	cf 91       	pop	r28
    364a:	1f 91       	pop	r17
    364c:	0f 91       	pop	r16
    364e:	ff 90       	pop	r15
    3650:	ef 90       	pop	r14
    3652:	df 90       	pop	r13
    3654:	cf 90       	pop	r12
    3656:	bf 90       	pop	r11
    3658:	af 90       	pop	r10
    365a:	9f 90       	pop	r9
    365c:	8f 90       	pop	r8
    365e:	7f 90       	pop	r7
    3660:	6f 90       	pop	r6
    3662:	5f 90       	pop	r5
    3664:	4f 90       	pop	r4
    3666:	08 95       	ret

00003668 <move>:
    3668:	20 91 3e 01 	lds	r18, 0x013E
    366c:	30 91 3f 01 	lds	r19, 0x013F
    3670:	40 91 40 01 	lds	r20, 0x0140
    3674:	50 91 41 01 	lds	r21, 0x0141
    3678:	60 91 42 01 	lds	r22, 0x0142
    367c:	70 91 43 01 	lds	r23, 0x0143
    3680:	80 91 44 01 	lds	r24, 0x0144
    3684:	90 91 45 01 	lds	r25, 0x0145
    3688:	06 df       	rcall	.-500    	; 0x3496 <MoveLegToNextPosition>
    368a:	20 91 36 01 	lds	r18, 0x0136
    368e:	30 91 37 01 	lds	r19, 0x0137
    3692:	40 91 38 01 	lds	r20, 0x0138
    3696:	50 91 39 01 	lds	r21, 0x0139
    369a:	60 91 3a 01 	lds	r22, 0x013A
    369e:	70 91 3b 01 	lds	r23, 0x013B
    36a2:	80 91 3c 01 	lds	r24, 0x013C
    36a6:	90 91 3d 01 	lds	r25, 0x013D
    36aa:	f5 de       	rcall	.-534    	; 0x3496 <MoveLegToNextPosition>
    36ac:	20 91 2e 01 	lds	r18, 0x012E
    36b0:	30 91 2f 01 	lds	r19, 0x012F
    36b4:	40 91 30 01 	lds	r20, 0x0130
    36b8:	50 91 31 01 	lds	r21, 0x0131
    36bc:	60 91 32 01 	lds	r22, 0x0132
    36c0:	70 91 33 01 	lds	r23, 0x0133
    36c4:	80 91 34 01 	lds	r24, 0x0134
    36c8:	90 91 35 01 	lds	r25, 0x0135
    36cc:	e4 de       	rcall	.-568    	; 0x3496 <MoveLegToNextPosition>
    36ce:	20 91 26 01 	lds	r18, 0x0126
    36d2:	30 91 27 01 	lds	r19, 0x0127
    36d6:	40 91 28 01 	lds	r20, 0x0128
    36da:	50 91 29 01 	lds	r21, 0x0129
    36de:	60 91 2a 01 	lds	r22, 0x012A
    36e2:	70 91 2b 01 	lds	r23, 0x012B
    36e6:	80 91 2c 01 	lds	r24, 0x012C
    36ea:	90 91 2d 01 	lds	r25, 0x012D
    36ee:	d3 de       	rcall	.-602    	; 0x3496 <MoveLegToNextPosition>
    36f0:	0c 94 bb 0f 	jmp	0x1f76	; 0x1f76 <increasePositionIndexes>
    36f4:	08 95       	ret

000036f6 <__vector_1>:
    36f6:	1f 92       	push	r1
    36f8:	0f 92       	push	r0
    36fa:	0f b6       	in	r0, 0x3f	; 63
    36fc:	0f 92       	push	r0
    36fe:	11 24       	eor	r1, r1
    3700:	0b b6       	in	r0, 0x3b	; 59
    3702:	0f 92       	push	r0
    3704:	2f 93       	push	r18
    3706:	3f 93       	push	r19
    3708:	4f 93       	push	r20
    370a:	5f 93       	push	r21
    370c:	6f 93       	push	r22
    370e:	7f 93       	push	r23
    3710:	8f 93       	push	r24
    3712:	9f 93       	push	r25
    3714:	af 93       	push	r26
    3716:	bf 93       	push	r27
    3718:	ef 93       	push	r30
    371a:	ff 93       	push	r31
    371c:	88 eb       	ldi	r24, 0xB8	; 184
    371e:	0e 94 41 08 	call	0x1082	; 0x1082 <spiTransmitToCommUnit>
    3722:	80 91 34 0c 	lds	r24, 0x0C34
    3726:	98 2f       	mov	r25, r24
    3728:	90 7c       	andi	r25, 0xC0	; 192
    372a:	e1 f4       	brne	.+56     	; 0x3764 <__vector_1+0x6e>
    372c:	28 2f       	mov	r18, r24
    372e:	2f 70       	andi	r18, 0x0F	; 15
    3730:	30 e0       	ldi	r19, 0x00	; 0
    3732:	30 93 96 01 	sts	0x0196, r19
    3736:	20 93 95 01 	sts	0x0195, r18
    373a:	80 7f       	andi	r24, 0xF0	; 240
    373c:	90 e0       	ldi	r25, 0x00	; 0
    373e:	95 95       	asr	r25
    3740:	87 95       	ror	r24
    3742:	95 95       	asr	r25
    3744:	87 95       	ror	r24
    3746:	95 95       	asr	r25
    3748:	87 95       	ror	r24
    374a:	95 95       	asr	r25
    374c:	87 95       	ror	r24
    374e:	90 93 94 01 	sts	0x0194, r25
    3752:	80 93 93 01 	sts	0x0193, r24
    3756:	81 e0       	ldi	r24, 0x01	; 1
    3758:	90 e0       	ldi	r25, 0x00	; 0
    375a:	90 93 2c 0c 	sts	0x0C2C, r25
    375e:	80 93 2b 0c 	sts	0x0C2B, r24
    3762:	1a c0       	rjmp	.+52     	; 0x3798 <__vector_1+0xa2>
    3764:	90 38       	cpi	r25, 0x80	; 128
    3766:	61 f4       	brne	.+24     	; 0x3780 <__vector_1+0x8a>
    3768:	21 e0       	ldi	r18, 0x01	; 1
    376a:	30 e0       	ldi	r19, 0x00	; 0
    376c:	30 93 92 01 	sts	0x0192, r19
    3770:	20 93 91 01 	sts	0x0191, r18
    3774:	90 e0       	ldi	r25, 0x00	; 0
    3776:	90 93 b0 01 	sts	0x01B0, r25
    377a:	80 93 af 01 	sts	0x01AF, r24
    377e:	0c c0       	rjmp	.+24     	; 0x3798 <__vector_1+0xa2>
    3780:	90 3c       	cpi	r25, 0xC0	; 192
    3782:	51 f4       	brne	.+20     	; 0x3798 <__vector_1+0xa2>
    3784:	88 3c       	cpi	r24, 0xC8	; 200
    3786:	31 f0       	breq	.+12     	; 0x3794 <__vector_1+0x9e>
    3788:	80 3d       	cpi	r24, 0xD0	; 208
    378a:	31 f4       	brne	.+12     	; 0x3798 <__vector_1+0xa2>
    378c:	81 e0       	ldi	r24, 0x01	; 1
    378e:	80 93 97 01 	sts	0x0197, r24
    3792:	02 c0       	rjmp	.+4      	; 0x3798 <__vector_1+0xa2>
    3794:	10 92 97 01 	sts	0x0197, r1
    3798:	ff 91       	pop	r31
    379a:	ef 91       	pop	r30
    379c:	bf 91       	pop	r27
    379e:	af 91       	pop	r26
    37a0:	9f 91       	pop	r25
    37a2:	8f 91       	pop	r24
    37a4:	7f 91       	pop	r23
    37a6:	6f 91       	pop	r22
    37a8:	5f 91       	pop	r21
    37aa:	4f 91       	pop	r20
    37ac:	3f 91       	pop	r19
    37ae:	2f 91       	pop	r18
    37b0:	0f 90       	pop	r0
    37b2:	0b be       	out	0x3b, r0	; 59
    37b4:	0f 90       	pop	r0
    37b6:	0f be       	out	0x3f, r0	; 63
    37b8:	0f 90       	pop	r0
    37ba:	1f 90       	pop	r1
    37bc:	18 95       	reti

000037be <__vector_2>:
    37be:	1f 92       	push	r1
    37c0:	0f 92       	push	r0
    37c2:	0f b6       	in	r0, 0x3f	; 63
    37c4:	0f 92       	push	r0
    37c6:	11 24       	eor	r1, r1
    37c8:	8f 93       	push	r24
    37ca:	9f 93       	push	r25
    37cc:	80 91 7e 01 	lds	r24, 0x017E
    37d0:	90 91 7f 01 	lds	r25, 0x017F
    37d4:	89 2b       	or	r24, r25
    37d6:	69 f0       	breq	.+26     	; 0x37f2 <__vector_2+0x34>
    37d8:	10 92 97 01 	sts	0x0197, r1
    37dc:	81 e0       	ldi	r24, 0x01	; 1
    37de:	90 e0       	ldi	r25, 0x00	; 0
    37e0:	90 93 7d 01 	sts	0x017D, r25
    37e4:	80 93 7c 01 	sts	0x017C, r24
    37e8:	10 92 7f 01 	sts	0x017F, r1
    37ec:	10 92 7e 01 	sts	0x017E, r1
    37f0:	09 c0       	rjmp	.+18     	; 0x3804 <__vector_2+0x46>
    37f2:	81 e0       	ldi	r24, 0x01	; 1
    37f4:	80 93 97 01 	sts	0x0197, r24
    37f8:	81 e0       	ldi	r24, 0x01	; 1
    37fa:	90 e0       	ldi	r25, 0x00	; 0
    37fc:	90 93 7f 01 	sts	0x017F, r25
    3800:	80 93 7e 01 	sts	0x017E, r24
    3804:	9f 91       	pop	r25
    3806:	8f 91       	pop	r24
    3808:	0f 90       	pop	r0
    380a:	0f be       	out	0x3f, r0	; 63
    380c:	0f 90       	pop	r0
    380e:	1f 90       	pop	r1
    3810:	18 95       	reti

00003812 <transmitAllDataToCommUnit>:
    3812:	60 91 23 0c 	lds	r22, 0x0C23
    3816:	70 91 24 0c 	lds	r23, 0x0C24
    381a:	8a ec       	ldi	r24, 0xCA	; 202
    381c:	90 e0       	ldi	r25, 0x00	; 0
    381e:	0e 94 4f 08 	call	0x109e	; 0x109e <transmitDataToCommUnit>
    3822:	60 91 25 0c 	lds	r22, 0x0C25
    3826:	70 91 26 0c 	lds	r23, 0x0C26
    382a:	80 ed       	ldi	r24, 0xD0	; 208
    382c:	90 e0       	ldi	r25, 0x00	; 0
    382e:	0e 94 4f 08 	call	0x109e	; 0x109e <transmitDataToCommUnit>
    3832:	60 91 27 0c 	lds	r22, 0x0C27
    3836:	70 91 28 0c 	lds	r23, 0x0C28
    383a:	88 ed       	ldi	r24, 0xD8	; 216
    383c:	90 e0       	ldi	r25, 0x00	; 0
    383e:	0e 94 4f 08 	call	0x109e	; 0x109e <transmitDataToCommUnit>
    3842:	60 91 29 0c 	lds	r22, 0x0C29
    3846:	70 91 2a 0c 	lds	r23, 0x0C2A
    384a:	80 ee       	ldi	r24, 0xE0	; 224
    384c:	90 e0       	ldi	r25, 0x00	; 0
    384e:	0e 94 4f 08 	call	0x109e	; 0x109e <transmitDataToCommUnit>
    3852:	60 91 17 0c 	lds	r22, 0x0C17
    3856:	70 91 18 0c 	lds	r23, 0x0C18
    385a:	88 ee       	ldi	r24, 0xE8	; 232
    385c:	90 e0       	ldi	r25, 0x00	; 0
    385e:	0e 94 4f 08 	call	0x109e	; 0x109e <transmitDataToCommUnit>
    3862:	60 91 19 0c 	lds	r22, 0x0C19
    3866:	70 91 1a 0c 	lds	r23, 0x0C1A
    386a:	80 ef       	ldi	r24, 0xF0	; 240
    386c:	90 e0       	ldi	r25, 0x00	; 0
    386e:	0e 94 4f 08 	call	0x109e	; 0x109e <transmitDataToCommUnit>
    3872:	60 91 1b 0c 	lds	r22, 0x0C1B
    3876:	70 91 1c 0c 	lds	r23, 0x0C1C
    387a:	88 ef       	ldi	r24, 0xF8	; 248
    387c:	90 e0       	ldi	r25, 0x00	; 0
    387e:	0e 94 4f 08 	call	0x109e	; 0x109e <transmitDataToCommUnit>
    3882:	60 91 1d 0c 	lds	r22, 0x0C1D
    3886:	70 91 1e 0c 	lds	r23, 0x0C1E
    388a:	88 e8       	ldi	r24, 0x88	; 136
    388c:	90 e0       	ldi	r25, 0x00	; 0
    388e:	0e 94 4f 08 	call	0x109e	; 0x109e <transmitDataToCommUnit>
    3892:	88 e9       	ldi	r24, 0x98	; 152
    3894:	90 e0       	ldi	r25, 0x00	; 0
    3896:	0e 94 67 08 	call	0x10ce	; 0x10ce <fetchDataFromSensorUnit>
    389a:	bc 01       	movw	r22, r24
    389c:	88 e9       	ldi	r24, 0x98	; 152
    389e:	90 e0       	ldi	r25, 0x00	; 0
    38a0:	0e 94 4f 08 	call	0x109e	; 0x109e <transmitDataToCommUnit>
    38a4:	80 e9       	ldi	r24, 0x90	; 144
    38a6:	90 e0       	ldi	r25, 0x00	; 0
    38a8:	0e 94 67 08 	call	0x10ce	; 0x10ce <fetchDataFromSensorUnit>
    38ac:	bc 01       	movw	r22, r24
    38ae:	80 e9       	ldi	r24, 0x90	; 144
    38b0:	90 e0       	ldi	r25, 0x00	; 0
    38b2:	0c 94 4f 08 	jmp	0x109e	; 0x109e <transmitDataToCommUnit>
    38b6:	08 95       	ret

000038b8 <updateAllDistanceSensorData>:
    38b8:	8a ec       	ldi	r24, 0xCA	; 202
    38ba:	90 e0       	ldi	r25, 0x00	; 0
    38bc:	0e 94 67 08 	call	0x10ce	; 0x10ce <fetchDataFromSensorUnit>
    38c0:	90 93 24 0c 	sts	0x0C24, r25
    38c4:	80 93 23 0c 	sts	0x0C23, r24
    38c8:	80 ed       	ldi	r24, 0xD0	; 208
    38ca:	90 e0       	ldi	r25, 0x00	; 0
    38cc:	0e 94 67 08 	call	0x10ce	; 0x10ce <fetchDataFromSensorUnit>
    38d0:	90 93 26 0c 	sts	0x0C26, r25
    38d4:	80 93 25 0c 	sts	0x0C25, r24
    38d8:	88 ed       	ldi	r24, 0xD8	; 216
    38da:	90 e0       	ldi	r25, 0x00	; 0
    38dc:	0e 94 67 08 	call	0x10ce	; 0x10ce <fetchDataFromSensorUnit>
    38e0:	90 93 28 0c 	sts	0x0C28, r25
    38e4:	80 93 27 0c 	sts	0x0C27, r24
    38e8:	80 ee       	ldi	r24, 0xE0	; 224
    38ea:	90 e0       	ldi	r25, 0x00	; 0
    38ec:	0e 94 67 08 	call	0x10ce	; 0x10ce <fetchDataFromSensorUnit>
    38f0:	90 93 2a 0c 	sts	0x0C2A, r25
    38f4:	80 93 29 0c 	sts	0x0C29, r24
    38f8:	08 95       	ret

000038fa <updateTotalAngle>:
    38fa:	80 e9       	ldi	r24, 0x90	; 144
    38fc:	90 e0       	ldi	r25, 0x00	; 0
    38fe:	0e 94 67 08 	call	0x10ce	; 0x10ce <fetchDataFromSensorUnit>
    3902:	90 93 20 0c 	sts	0x0C20, r25
    3906:	80 93 1f 0c 	sts	0x0C1F, r24
    390a:	08 95       	ret

0000390c <calcRegulation>:
    390c:	4f 92       	push	r4
    390e:	5f 92       	push	r5
    3910:	6f 92       	push	r6
    3912:	7f 92       	push	r7
    3914:	8f 92       	push	r8
    3916:	9f 92       	push	r9
    3918:	af 92       	push	r10
    391a:	bf 92       	push	r11
    391c:	cf 92       	push	r12
    391e:	df 92       	push	r13
    3920:	ef 92       	push	r14
    3922:	ff 92       	push	r15
    3924:	cf 93       	push	r28
    3926:	df 93       	push	r29
    3928:	9b 01       	movw	r18, r22
    392a:	90 91 98 01 	lds	r25, 0x0198
    392e:	91 30       	cpi	r25, 0x01	; 1
    3930:	31 f1       	breq	.+76     	; 0x397e <calcRegulation+0x72>
    3932:	38 f0       	brcs	.+14     	; 0x3942 <calcRegulation+0x36>
    3934:	92 30       	cpi	r25, 0x02	; 2
    3936:	09 f4       	brne	.+2      	; 0x393a <calcRegulation+0x2e>
    3938:	40 c0       	rjmp	.+128    	; 0x39ba <calcRegulation+0xae>
    393a:	93 30       	cpi	r25, 0x03	; 3
    393c:	09 f4       	brne	.+2      	; 0x3940 <calcRegulation+0x34>
    393e:	5b c0       	rjmp	.+182    	; 0x39f6 <calcRegulation+0xea>
    3940:	78 c0       	rjmp	.+240    	; 0x3a32 <calcRegulation+0x126>
    3942:	81 30       	cpi	r24, 0x01	; 1
    3944:	19 f0       	breq	.+6      	; 0x394c <calcRegulation+0x40>
    3946:	83 30       	cpi	r24, 0x03	; 3
    3948:	71 f0       	breq	.+28     	; 0x3966 <calcRegulation+0x5a>
    394a:	76 c0       	rjmp	.+236    	; 0x3a38 <calcRegulation+0x12c>
    394c:	60 91 25 0c 	lds	r22, 0x0C25
    3950:	70 91 26 0c 	lds	r23, 0x0C26
    3954:	64 5c       	subi	r22, 0xC4	; 196
    3956:	7f 4f       	sbci	r23, 0xFF	; 255
    3958:	80 91 1e 01 	lds	r24, 0x011E
    395c:	90 91 1f 01 	lds	r25, 0x011F
    3960:	68 1b       	sub	r22, r24
    3962:	79 0b       	sbc	r23, r25
    3964:	74 c0       	rjmp	.+232    	; 0x3a4e <calcRegulation+0x142>
    3966:	80 91 29 0c 	lds	r24, 0x0C29
    396a:	90 91 2a 0c 	lds	r25, 0x0C2A
    396e:	cc 96       	adiw	r24, 0x3c	; 60
    3970:	60 91 1e 01 	lds	r22, 0x011E
    3974:	70 91 1f 01 	lds	r23, 0x011F
    3978:	68 1b       	sub	r22, r24
    397a:	79 0b       	sbc	r23, r25
    397c:	68 c0       	rjmp	.+208    	; 0x3a4e <calcRegulation+0x142>
    397e:	88 23       	and	r24, r24
    3980:	81 f0       	breq	.+32     	; 0x39a2 <calcRegulation+0x96>
    3982:	82 30       	cpi	r24, 0x02	; 2
    3984:	09 f0       	breq	.+2      	; 0x3988 <calcRegulation+0x7c>
    3986:	5b c0       	rjmp	.+182    	; 0x3a3e <calcRegulation+0x132>
    3988:	60 91 27 0c 	lds	r22, 0x0C27
    398c:	70 91 28 0c 	lds	r23, 0x0C28
    3990:	64 5c       	subi	r22, 0xC4	; 196
    3992:	7f 4f       	sbci	r23, 0xFF	; 255
    3994:	80 91 1e 01 	lds	r24, 0x011E
    3998:	90 91 1f 01 	lds	r25, 0x011F
    399c:	68 1b       	sub	r22, r24
    399e:	79 0b       	sbc	r23, r25
    39a0:	56 c0       	rjmp	.+172    	; 0x3a4e <calcRegulation+0x142>
    39a2:	80 91 23 0c 	lds	r24, 0x0C23
    39a6:	90 91 24 0c 	lds	r25, 0x0C24
    39aa:	cc 96       	adiw	r24, 0x3c	; 60
    39ac:	60 91 1e 01 	lds	r22, 0x011E
    39b0:	70 91 1f 01 	lds	r23, 0x011F
    39b4:	68 1b       	sub	r22, r24
    39b6:	79 0b       	sbc	r23, r25
    39b8:	4a c0       	rjmp	.+148    	; 0x3a4e <calcRegulation+0x142>
    39ba:	81 30       	cpi	r24, 0x01	; 1
    39bc:	81 f0       	breq	.+32     	; 0x39de <calcRegulation+0xd2>
    39be:	83 30       	cpi	r24, 0x03	; 3
    39c0:	09 f0       	breq	.+2      	; 0x39c4 <calcRegulation+0xb8>
    39c2:	40 c0       	rjmp	.+128    	; 0x3a44 <calcRegulation+0x138>
    39c4:	60 91 29 0c 	lds	r22, 0x0C29
    39c8:	70 91 2a 0c 	lds	r23, 0x0C2A
    39cc:	64 5c       	subi	r22, 0xC4	; 196
    39ce:	7f 4f       	sbci	r23, 0xFF	; 255
    39d0:	80 91 1e 01 	lds	r24, 0x011E
    39d4:	90 91 1f 01 	lds	r25, 0x011F
    39d8:	68 1b       	sub	r22, r24
    39da:	79 0b       	sbc	r23, r25
    39dc:	38 c0       	rjmp	.+112    	; 0x3a4e <calcRegulation+0x142>
    39de:	80 91 25 0c 	lds	r24, 0x0C25
    39e2:	90 91 26 0c 	lds	r25, 0x0C26
    39e6:	cc 96       	adiw	r24, 0x3c	; 60
    39e8:	60 91 1e 01 	lds	r22, 0x011E
    39ec:	70 91 1f 01 	lds	r23, 0x011F
    39f0:	68 1b       	sub	r22, r24
    39f2:	79 0b       	sbc	r23, r25
    39f4:	2c c0       	rjmp	.+88     	; 0x3a4e <calcRegulation+0x142>
    39f6:	88 23       	and	r24, r24
    39f8:	19 f0       	breq	.+6      	; 0x3a00 <calcRegulation+0xf4>
    39fa:	82 30       	cpi	r24, 0x02	; 2
    39fc:	71 f0       	breq	.+28     	; 0x3a1a <calcRegulation+0x10e>
    39fe:	25 c0       	rjmp	.+74     	; 0x3a4a <calcRegulation+0x13e>
    3a00:	60 91 23 0c 	lds	r22, 0x0C23
    3a04:	70 91 24 0c 	lds	r23, 0x0C24
    3a08:	64 5c       	subi	r22, 0xC4	; 196
    3a0a:	7f 4f       	sbci	r23, 0xFF	; 255
    3a0c:	80 91 1e 01 	lds	r24, 0x011E
    3a10:	90 91 1f 01 	lds	r25, 0x011F
    3a14:	68 1b       	sub	r22, r24
    3a16:	79 0b       	sbc	r23, r25
    3a18:	1a c0       	rjmp	.+52     	; 0x3a4e <calcRegulation+0x142>
    3a1a:	80 91 27 0c 	lds	r24, 0x0C27
    3a1e:	90 91 28 0c 	lds	r25, 0x0C28
    3a22:	cc 96       	adiw	r24, 0x3c	; 60
    3a24:	60 91 1e 01 	lds	r22, 0x011E
    3a28:	70 91 1f 01 	lds	r23, 0x011F
    3a2c:	68 1b       	sub	r22, r24
    3a2e:	79 0b       	sbc	r23, r25
    3a30:	0e c0       	rjmp	.+28     	; 0x3a4e <calcRegulation+0x142>
    3a32:	60 e0       	ldi	r22, 0x00	; 0
    3a34:	70 e0       	ldi	r23, 0x00	; 0
    3a36:	0b c0       	rjmp	.+22     	; 0x3a4e <calcRegulation+0x142>
    3a38:	60 e0       	ldi	r22, 0x00	; 0
    3a3a:	70 e0       	ldi	r23, 0x00	; 0
    3a3c:	08 c0       	rjmp	.+16     	; 0x3a4e <calcRegulation+0x142>
    3a3e:	60 e0       	ldi	r22, 0x00	; 0
    3a40:	70 e0       	ldi	r23, 0x00	; 0
    3a42:	05 c0       	rjmp	.+10     	; 0x3a4e <calcRegulation+0x142>
    3a44:	60 e0       	ldi	r22, 0x00	; 0
    3a46:	70 e0       	ldi	r23, 0x00	; 0
    3a48:	02 c0       	rjmp	.+4      	; 0x3a4e <calcRegulation+0x142>
    3a4a:	60 e0       	ldi	r22, 0x00	; 0
    3a4c:	70 e0       	ldi	r23, 0x00	; 0
    3a4e:	23 2b       	or	r18, r19
    3a50:	29 f0       	breq	.+10     	; 0x3a5c <calcRegulation+0x150>
    3a52:	c0 91 1f 0c 	lds	r28, 0x0C1F
    3a56:	d0 91 20 0c 	lds	r29, 0x0C20
    3a5a:	02 c0       	rjmp	.+4      	; 0x3a60 <calcRegulation+0x154>
    3a5c:	c0 e0       	ldi	r28, 0x00	; 0
    3a5e:	d0 e0       	ldi	r29, 0x00	; 0
    3a60:	88 27       	eor	r24, r24
    3a62:	77 fd       	sbrc	r23, 7
    3a64:	80 95       	com	r24
    3a66:	98 2f       	mov	r25, r24
    3a68:	0e 94 aa 50 	call	0xa154	; 0xa154 <__floatsisf>
    3a6c:	20 91 4a 01 	lds	r18, 0x014A
    3a70:	30 91 4b 01 	lds	r19, 0x014B
    3a74:	40 91 4c 01 	lds	r20, 0x014C
    3a78:	50 91 4d 01 	lds	r21, 0x014D
    3a7c:	0e 94 a5 51 	call	0xa34a	; 0xa34a <__mulsf3>
    3a80:	0e 94 77 50 	call	0xa0ee	; 0xa0ee <__fixsfsi>
    3a84:	2b 01       	movw	r4, r22
    3a86:	3c 01       	movw	r6, r24
    3a88:	c0 90 46 01 	lds	r12, 0x0146
    3a8c:	d0 90 47 01 	lds	r13, 0x0147
    3a90:	e0 90 48 01 	lds	r14, 0x0148
    3a94:	f0 90 49 01 	lds	r15, 0x0149
    3a98:	be 01       	movw	r22, r28
    3a9a:	88 27       	eor	r24, r24
    3a9c:	77 fd       	sbrc	r23, 7
    3a9e:	80 95       	com	r24
    3aa0:	98 2f       	mov	r25, r24
    3aa2:	0e 94 aa 50 	call	0xa154	; 0xa154 <__floatsisf>
    3aa6:	a7 01       	movw	r20, r14
    3aa8:	96 01       	movw	r18, r12
    3aaa:	0e 94 a5 51 	call	0xa34a	; 0xa34a <__mulsf3>
    3aae:	20 e0       	ldi	r18, 0x00	; 0
    3ab0:	30 e0       	ldi	r19, 0x00	; 0
    3ab2:	40 e0       	ldi	r20, 0x00	; 0
    3ab4:	5f e3       	ldi	r21, 0x3F	; 63
    3ab6:	0e 94 a5 51 	call	0xa34a	; 0xa34a <__mulsf3>
    3aba:	0e 94 77 50 	call	0xa0ee	; 0xa0ee <__fixsfsi>
    3abe:	4b 01       	movw	r8, r22
    3ac0:	5c 01       	movw	r10, r24
    3ac2:	66 27       	eor	r22, r22
    3ac4:	77 27       	eor	r23, r23
    3ac6:	6c 1b       	sub	r22, r28
    3ac8:	7d 0b       	sbc	r23, r29
    3aca:	88 27       	eor	r24, r24
    3acc:	77 fd       	sbrc	r23, 7
    3ace:	80 95       	com	r24
    3ad0:	98 2f       	mov	r25, r24
    3ad2:	0e 94 aa 50 	call	0xa154	; 0xa154 <__floatsisf>
    3ad6:	9b 01       	movw	r18, r22
    3ad8:	ac 01       	movw	r20, r24
    3ada:	c7 01       	movw	r24, r14
    3adc:	b6 01       	movw	r22, r12
    3ade:	0e 94 a5 51 	call	0xa34a	; 0xa34a <__mulsf3>
    3ae2:	20 e0       	ldi	r18, 0x00	; 0
    3ae4:	30 e0       	ldi	r19, 0x00	; 0
    3ae6:	40 e0       	ldi	r20, 0x00	; 0
    3ae8:	5f e3       	ldi	r21, 0x3F	; 63
    3aea:	0e 94 a5 51 	call	0xa34a	; 0xa34a <__mulsf3>
    3aee:	0e 94 77 50 	call	0xa0ee	; 0xa0ee <__fixsfsi>
    3af2:	a2 01       	movw	r20, r4
    3af4:	4d 33       	cpi	r20, 0x3D	; 61
    3af6:	51 05       	cpc	r21, r1
    3af8:	14 f0       	brlt	.+4      	; 0x3afe <calcRegulation+0x1f2>
    3afa:	4c e3       	ldi	r20, 0x3C	; 60
    3afc:	50 e0       	ldi	r21, 0x00	; 0
    3afe:	94 01       	movw	r18, r8
    3b00:	2d 33       	cpi	r18, 0x3D	; 61
    3b02:	31 05       	cpc	r19, r1
    3b04:	14 f0       	brlt	.+4      	; 0x3b0a <calcRegulation+0x1fe>
    3b06:	2c e3       	ldi	r18, 0x3C	; 60
    3b08:	30 e0       	ldi	r19, 0x00	; 0
    3b0a:	6d 33       	cpi	r22, 0x3D	; 61
    3b0c:	71 05       	cpc	r23, r1
    3b0e:	14 f0       	brlt	.+4      	; 0x3b14 <calcRegulation+0x208>
    3b10:	6c e3       	ldi	r22, 0x3C	; 60
    3b12:	70 e0       	ldi	r23, 0x00	; 0
    3b14:	ca 01       	movw	r24, r20
    3b16:	84 3c       	cpi	r24, 0xC4	; 196
    3b18:	4f ef       	ldi	r20, 0xFF	; 255
    3b1a:	94 07       	cpc	r25, r20
    3b1c:	14 f4       	brge	.+4      	; 0x3b22 <calcRegulation+0x216>
    3b1e:	84 ec       	ldi	r24, 0xC4	; 196
    3b20:	9f ef       	ldi	r25, 0xFF	; 255
    3b22:	90 93 46 10 	sts	0x1046, r25
    3b26:	80 93 45 10 	sts	0x1045, r24
    3b2a:	c9 01       	movw	r24, r18
    3b2c:	84 3c       	cpi	r24, 0xC4	; 196
    3b2e:	2f ef       	ldi	r18, 0xFF	; 255
    3b30:	92 07       	cpc	r25, r18
    3b32:	14 f4       	brge	.+4      	; 0x3b38 <calcRegulation+0x22c>
    3b34:	84 ec       	ldi	r24, 0xC4	; 196
    3b36:	9f ef       	ldi	r25, 0xFF	; 255
    3b38:	90 93 48 10 	sts	0x1048, r25
    3b3c:	80 93 47 10 	sts	0x1047, r24
    3b40:	64 3c       	cpi	r22, 0xC4	; 196
    3b42:	4f ef       	ldi	r20, 0xFF	; 255
    3b44:	74 07       	cpc	r23, r20
    3b46:	14 f4       	brge	.+4      	; 0x3b4c <calcRegulation+0x240>
    3b48:	64 ec       	ldi	r22, 0xC4	; 196
    3b4a:	7f ef       	ldi	r23, 0xFF	; 255
    3b4c:	70 93 4a 10 	sts	0x104A, r23
    3b50:	60 93 49 10 	sts	0x1049, r22
    3b54:	81 e0       	ldi	r24, 0x01	; 1
    3b56:	90 e0       	ldi	r25, 0x00	; 0
    3b58:	90 93 51 01 	sts	0x0151, r25
    3b5c:	80 93 50 01 	sts	0x0150, r24
    3b60:	df 91       	pop	r29
    3b62:	cf 91       	pop	r28
    3b64:	ff 90       	pop	r15
    3b66:	ef 90       	pop	r14
    3b68:	df 90       	pop	r13
    3b6a:	cf 90       	pop	r12
    3b6c:	bf 90       	pop	r11
    3b6e:	af 90       	pop	r10
    3b70:	9f 90       	pop	r9
    3b72:	8f 90       	pop	r8
    3b74:	7f 90       	pop	r7
    3b76:	6f 90       	pop	r6
    3b78:	5f 90       	pop	r5
    3b7a:	4f 90       	pop	r4
    3b7c:	08 95       	ret

00003b7e <decideRegulationDirection>:
    3b7e:	40 91 a3 01 	lds	r20, 0x01A3
    3b82:	50 91 a4 01 	lds	r21, 0x01A4
    3b86:	80 91 a5 01 	lds	r24, 0x01A5
    3b8a:	90 91 a6 01 	lds	r25, 0x01A6
    3b8e:	20 91 a7 01 	lds	r18, 0x01A7
    3b92:	30 91 a8 01 	lds	r19, 0x01A8
    3b96:	60 91 a9 01 	lds	r22, 0x01A9
    3b9a:	70 91 aa 01 	lds	r23, 0x01AA
    3b9e:	e0 91 98 01 	lds	r30, 0x0198
    3ba2:	e1 30       	cpi	r30, 0x01	; 1
    3ba4:	61 f0       	breq	.+24     	; 0x3bbe <decideRegulationDirection+0x40>
    3ba6:	28 f0       	brcs	.+10     	; 0x3bb2 <decideRegulationDirection+0x34>
    3ba8:	e2 30       	cpi	r30, 0x02	; 2
    3baa:	79 f0       	breq	.+30     	; 0x3bca <decideRegulationDirection+0x4c>
    3bac:	e3 30       	cpi	r30, 0x03	; 3
    3bae:	99 f0       	breq	.+38     	; 0x3bd6 <decideRegulationDirection+0x58>
    3bb0:	18 c0       	rjmp	.+48     	; 0x3be2 <decideRegulationDirection+0x64>
    3bb2:	89 2b       	or	r24, r25
    3bb4:	c1 f0       	breq	.+48     	; 0x3be6 <decideRegulationDirection+0x68>
    3bb6:	67 2b       	or	r22, r23
    3bb8:	c1 f0       	breq	.+48     	; 0x3bea <decideRegulationDirection+0x6c>
    3bba:	84 e0       	ldi	r24, 0x04	; 4
    3bbc:	23 c0       	rjmp	.+70     	; 0x3c04 <decideRegulationDirection+0x86>
    3bbe:	23 2b       	or	r18, r19
    3bc0:	b1 f0       	breq	.+44     	; 0x3bee <decideRegulationDirection+0x70>
    3bc2:	45 2b       	or	r20, r21
    3bc4:	b1 f0       	breq	.+44     	; 0x3bf2 <decideRegulationDirection+0x74>
    3bc6:	84 e0       	ldi	r24, 0x04	; 4
    3bc8:	1d c0       	rjmp	.+58     	; 0x3c04 <decideRegulationDirection+0x86>
    3bca:	89 2b       	or	r24, r25
    3bcc:	a1 f0       	breq	.+40     	; 0x3bf6 <decideRegulationDirection+0x78>
    3bce:	67 2b       	or	r22, r23
    3bd0:	a1 f0       	breq	.+40     	; 0x3bfa <decideRegulationDirection+0x7c>
    3bd2:	84 e0       	ldi	r24, 0x04	; 4
    3bd4:	17 c0       	rjmp	.+46     	; 0x3c04 <decideRegulationDirection+0x86>
    3bd6:	45 2b       	or	r20, r21
    3bd8:	91 f0       	breq	.+36     	; 0x3bfe <decideRegulationDirection+0x80>
    3bda:	23 2b       	or	r18, r19
    3bdc:	91 f0       	breq	.+36     	; 0x3c02 <decideRegulationDirection+0x84>
    3bde:	84 e0       	ldi	r24, 0x04	; 4
    3be0:	11 c0       	rjmp	.+34     	; 0x3c04 <decideRegulationDirection+0x86>
    3be2:	84 e0       	ldi	r24, 0x04	; 4
    3be4:	0f c0       	rjmp	.+30     	; 0x3c04 <decideRegulationDirection+0x86>
    3be6:	81 e0       	ldi	r24, 0x01	; 1
    3be8:	0d c0       	rjmp	.+26     	; 0x3c04 <decideRegulationDirection+0x86>
    3bea:	83 e0       	ldi	r24, 0x03	; 3
    3bec:	0b c0       	rjmp	.+22     	; 0x3c04 <decideRegulationDirection+0x86>
    3bee:	82 e0       	ldi	r24, 0x02	; 2
    3bf0:	09 c0       	rjmp	.+18     	; 0x3c04 <decideRegulationDirection+0x86>
    3bf2:	80 e0       	ldi	r24, 0x00	; 0
    3bf4:	07 c0       	rjmp	.+14     	; 0x3c04 <decideRegulationDirection+0x86>
    3bf6:	81 e0       	ldi	r24, 0x01	; 1
    3bf8:	05 c0       	rjmp	.+10     	; 0x3c04 <decideRegulationDirection+0x86>
    3bfa:	83 e0       	ldi	r24, 0x03	; 3
    3bfc:	03 c0       	rjmp	.+6      	; 0x3c04 <decideRegulationDirection+0x86>
    3bfe:	80 e0       	ldi	r24, 0x00	; 0
    3c00:	01 c0       	rjmp	.+2      	; 0x3c04 <decideRegulationDirection+0x86>
    3c02:	82 e0       	ldi	r24, 0x02	; 2
    3c04:	90 e0       	ldi	r25, 0x00	; 0
    3c06:	08 95       	ret

00003c08 <returnToStartPosition>:
    3c08:	2f 92       	push	r2
    3c0a:	3f 92       	push	r3
    3c0c:	4f 92       	push	r4
    3c0e:	5f 92       	push	r5
    3c10:	6f 92       	push	r6
    3c12:	7f 92       	push	r7
    3c14:	8f 92       	push	r8
    3c16:	9f 92       	push	r9
    3c18:	af 92       	push	r10
    3c1a:	bf 92       	push	r11
    3c1c:	cf 92       	push	r12
    3c1e:	df 92       	push	r13
    3c20:	ef 92       	push	r14
    3c22:	ff 92       	push	r15
    3c24:	0f 93       	push	r16
    3c26:	1f 93       	push	r17
    3c28:	cf 93       	push	r28
    3c2a:	df 93       	push	r29
    3c2c:	cd b7       	in	r28, 0x3d	; 61
    3c2e:	de b7       	in	r29, 0x3e	; 62
    3c30:	cc 54       	subi	r28, 0x4C	; 76
    3c32:	d1 09       	sbc	r29, r1
    3c34:	0f b6       	in	r0, 0x3f	; 63
    3c36:	f8 94       	cli
    3c38:	de bf       	out	0x3e, r29	; 62
    3c3a:	0f be       	out	0x3f, r0	; 63
    3c3c:	cd bf       	out	0x3d, r28	; 61
    3c3e:	8b e0       	ldi	r24, 0x0B	; 11
    3c40:	90 e0       	ldi	r25, 0x00	; 0
    3c42:	90 93 21 01 	sts	0x0121, r25
    3c46:	80 93 20 01 	sts	0x0120, r24
    3c4a:	90 93 5c 14 	sts	0x145C, r25
    3c4e:	80 93 5b 14 	sts	0x145B, r24
    3c52:	20 91 80 01 	lds	r18, 0x0180
    3c56:	30 91 81 01 	lds	r19, 0x0181
    3c5a:	22 0f       	add	r18, r18
    3c5c:	33 1f       	adc	r19, r19
    3c5e:	22 0f       	add	r18, r18
    3c60:	33 1f       	adc	r19, r19
    3c62:	2b 5c       	subi	r18, 0xCB	; 203
    3c64:	33 4f       	sbci	r19, 0xF3	; 243
    3c66:	fe 01       	movw	r30, r28
    3c68:	31 96       	adiw	r30, 0x01	; 1
    3c6a:	ae 01       	movw	r20, r28
    3c6c:	4b 5c       	subi	r20, 0xCB	; 203
    3c6e:	5f 4f       	sbci	r21, 0xFF	; 255
    3c70:	b9 01       	movw	r22, r18
    3c72:	9f 01       	movw	r18, r30
    3c74:	fb 01       	movw	r30, r22
    3c76:	80 81       	ld	r24, Z
    3c78:	91 81       	ldd	r25, Z+1	; 0x01
    3c7a:	a2 81       	ldd	r26, Z+2	; 0x02
    3c7c:	b3 81       	ldd	r27, Z+3	; 0x03
    3c7e:	f9 01       	movw	r30, r18
    3c80:	81 93       	st	Z+, r24
    3c82:	91 93       	st	Z+, r25
    3c84:	a1 93       	st	Z+, r26
    3c86:	b1 93       	st	Z+, r27
    3c88:	9f 01       	movw	r18, r30
    3c8a:	60 5b       	subi	r22, 0xB0	; 176
    3c8c:	7f 4f       	sbci	r23, 0xFF	; 255
    3c8e:	e4 17       	cp	r30, r20
    3c90:	f5 07       	cpc	r31, r21
    3c92:	81 f7       	brne	.-32     	; 0x3c74 <returnToStartPosition+0x6c>
    3c94:	f9 85       	ldd	r31, Y+9	; 0x09
    3c96:	26 96       	adiw	r28, 0x06	; 6
    3c98:	ff af       	std	Y+63, r31	; 0x3f
    3c9a:	26 97       	sbiw	r28, 0x06	; 6
    3c9c:	2a 85       	ldd	r18, Y+10	; 0x0a
    3c9e:	27 96       	adiw	r28, 0x07	; 7
    3ca0:	2f af       	std	Y+63, r18	; 0x3f
    3ca2:	27 97       	sbiw	r28, 0x07	; 7
    3ca4:	3b 85       	ldd	r19, Y+11	; 0x0b
    3ca6:	28 96       	adiw	r28, 0x08	; 8
    3ca8:	3f af       	std	Y+63, r19	; 0x3f
    3caa:	28 97       	sbiw	r28, 0x08	; 8
    3cac:	4c 85       	ldd	r20, Y+12	; 0x0c
    3cae:	29 96       	adiw	r28, 0x09	; 9
    3cb0:	4f af       	std	Y+63, r20	; 0x3f
    3cb2:	29 97       	sbiw	r28, 0x09	; 9
    3cb4:	8d 81       	ldd	r24, Y+5	; 0x05
    3cb6:	9e 81       	ldd	r25, Y+6	; 0x06
    3cb8:	af 81       	ldd	r26, Y+7	; 0x07
    3cba:	b8 85       	ldd	r27, Y+8	; 0x08
    3cbc:	9c 01       	movw	r18, r24
    3cbe:	ad 01       	movw	r20, r26
    3cc0:	50 58       	subi	r21, 0x80	; 128
    3cc2:	21 96       	adiw	r28, 0x01	; 1
    3cc4:	2c af       	std	Y+60, r18	; 0x3c
    3cc6:	3d af       	std	Y+61, r19	; 0x3d
    3cc8:	4e af       	std	Y+62, r20	; 0x3e
    3cca:	5f af       	std	Y+63, r21	; 0x3f
    3ccc:	21 97       	sbiw	r28, 0x01	; 1
    3cce:	60 91 5a 01 	lds	r22, 0x015A
    3cd2:	70 91 5b 01 	lds	r23, 0x015B
    3cd6:	88 27       	eor	r24, r24
    3cd8:	77 fd       	sbrc	r23, 7
    3cda:	80 95       	com	r24
    3cdc:	98 2f       	mov	r25, r24
    3cde:	0e 94 aa 50 	call	0xa154	; 0xa154 <__floatsisf>
    3ce2:	9f 93       	push	r25
    3ce4:	8f 93       	push	r24
    3ce6:	7f 93       	push	r23
    3ce8:	6f 93       	push	r22
    3cea:	29 96       	adiw	r28, 0x09	; 9
    3cec:	3f ad       	ldd	r19, Y+63	; 0x3f
    3cee:	29 97       	sbiw	r28, 0x09	; 9
    3cf0:	3f 93       	push	r19
    3cf2:	28 96       	adiw	r28, 0x08	; 8
    3cf4:	4f ad       	ldd	r20, Y+63	; 0x3f
    3cf6:	28 97       	sbiw	r28, 0x08	; 8
    3cf8:	4f 93       	push	r20
    3cfa:	27 96       	adiw	r28, 0x07	; 7
    3cfc:	5f ad       	ldd	r21, Y+63	; 0x3f
    3cfe:	27 97       	sbiw	r28, 0x07	; 7
    3d00:	5f 93       	push	r21
    3d02:	26 96       	adiw	r28, 0x06	; 6
    3d04:	8f ad       	ldd	r24, Y+63	; 0x3f
    3d06:	26 97       	sbiw	r28, 0x06	; 6
    3d08:	8f 93       	push	r24
    3d0a:	21 96       	adiw	r28, 0x01	; 1
    3d0c:	9f ad       	ldd	r25, Y+63	; 0x3f
    3d0e:	21 97       	sbiw	r28, 0x01	; 1
    3d10:	9f 93       	push	r25
    3d12:	ef ad       	ldd	r30, Y+63	; 0x3f
    3d14:	ef 93       	push	r30
    3d16:	fe ad       	ldd	r31, Y+62	; 0x3e
    3d18:	ff 93       	push	r31
    3d1a:	2d ad       	ldd	r18, Y+61	; 0x3d
    3d1c:	2f 93       	push	r18
    3d1e:	88 89       	ldd	r24, Y+16	; 0x10
    3d20:	8f 93       	push	r24
    3d22:	8f 85       	ldd	r24, Y+15	; 0x0f
    3d24:	8f 93       	push	r24
    3d26:	8e 85       	ldd	r24, Y+14	; 0x0e
    3d28:	8f 93       	push	r24
    3d2a:	8d 85       	ldd	r24, Y+13	; 0x0d
    3d2c:	8f 93       	push	r24
    3d2e:	3f 93       	push	r19
    3d30:	4f 93       	push	r20
    3d32:	5f 93       	push	r21
    3d34:	26 96       	adiw	r28, 0x06	; 6
    3d36:	3f ad       	ldd	r19, Y+63	; 0x3f
    3d38:	26 97       	sbiw	r28, 0x06	; 6
    3d3a:	3f 93       	push	r19
    3d3c:	21 96       	adiw	r28, 0x01	; 1
    3d3e:	ac ac       	ldd	r10, Y+60	; 0x3c
    3d40:	bd ac       	ldd	r11, Y+61	; 0x3d
    3d42:	ce ac       	ldd	r12, Y+62	; 0x3e
    3d44:	df ac       	ldd	r13, Y+63	; 0x3f
    3d46:	21 97       	sbiw	r28, 0x01	; 1
    3d48:	e1 2c       	mov	r14, r1
    3d4a:	f1 2c       	mov	r15, r1
    3d4c:	04 e0       	ldi	r16, 0x04	; 4
    3d4e:	10 e0       	ldi	r17, 0x00	; 0
    3d50:	20 91 3e 01 	lds	r18, 0x013E
    3d54:	30 91 3f 01 	lds	r19, 0x013F
    3d58:	40 91 40 01 	lds	r20, 0x0140
    3d5c:	50 91 41 01 	lds	r21, 0x0141
    3d60:	60 91 42 01 	lds	r22, 0x0142
    3d64:	70 91 43 01 	lds	r23, 0x0143
    3d68:	80 91 44 01 	lds	r24, 0x0144
    3d6c:	90 91 45 01 	lds	r25, 0x0145
    3d70:	0e 94 e6 0f 	call	0x1fcc	; 0x1fcc <CalcStraightPath>
    3d74:	2d 88       	ldd	r2, Y+21	; 0x15
    3d76:	3e 88       	ldd	r3, Y+22	; 0x16
    3d78:	8f 88       	ldd	r8, Y+23	; 0x17
    3d7a:	98 8c       	ldd	r9, Y+24	; 0x18
    3d7c:	49 89       	ldd	r20, Y+17	; 0x11
    3d7e:	22 96       	adiw	r28, 0x02	; 2
    3d80:	4f af       	std	Y+63, r20	; 0x3f
    3d82:	22 97       	sbiw	r28, 0x02	; 2
    3d84:	5a 89       	ldd	r21, Y+18	; 0x12
    3d86:	23 96       	adiw	r28, 0x03	; 3
    3d88:	5f af       	std	Y+63, r21	; 0x3f
    3d8a:	23 97       	sbiw	r28, 0x03	; 3
    3d8c:	8b 89       	ldd	r24, Y+19	; 0x13
    3d8e:	24 96       	adiw	r28, 0x04	; 4
    3d90:	8f af       	std	Y+63, r24	; 0x3f
    3d92:	24 97       	sbiw	r28, 0x04	; 4
    3d94:	9c 89       	ldd	r25, Y+20	; 0x14
    3d96:	25 96       	adiw	r28, 0x05	; 5
    3d98:	9f af       	std	Y+63, r25	; 0x3f
    3d9a:	25 97       	sbiw	r28, 0x05	; 5
    3d9c:	60 91 5a 01 	lds	r22, 0x015A
    3da0:	70 91 5b 01 	lds	r23, 0x015B
    3da4:	88 27       	eor	r24, r24
    3da6:	77 fd       	sbrc	r23, 7
    3da8:	80 95       	com	r24
    3daa:	98 2f       	mov	r25, r24
    3dac:	0e 94 aa 50 	call	0xa154	; 0xa154 <__floatsisf>
    3db0:	9f 93       	push	r25
    3db2:	8f 93       	push	r24
    3db4:	7f 93       	push	r23
    3db6:	6f 93       	push	r22
    3db8:	9f 92       	push	r9
    3dba:	8f 92       	push	r8
    3dbc:	3f 92       	push	r3
    3dbe:	2f 92       	push	r2
    3dc0:	25 96       	adiw	r28, 0x05	; 5
    3dc2:	ef ad       	ldd	r30, Y+63	; 0x3f
    3dc4:	25 97       	sbiw	r28, 0x05	; 5
    3dc6:	ef 93       	push	r30
    3dc8:	24 96       	adiw	r28, 0x04	; 4
    3dca:	ff ad       	ldd	r31, Y+63	; 0x3f
    3dcc:	24 97       	sbiw	r28, 0x04	; 4
    3dce:	ff 93       	push	r31
    3dd0:	23 96       	adiw	r28, 0x03	; 3
    3dd2:	2f ad       	ldd	r18, Y+63	; 0x3f
    3dd4:	23 97       	sbiw	r28, 0x03	; 3
    3dd6:	2f 93       	push	r18
    3dd8:	22 96       	adiw	r28, 0x02	; 2
    3dda:	3f ad       	ldd	r19, Y+63	; 0x3f
    3ddc:	22 97       	sbiw	r28, 0x02	; 2
    3dde:	3f 93       	push	r19
    3de0:	8c 8d       	ldd	r24, Y+28	; 0x1c
    3de2:	8f 93       	push	r24
    3de4:	8b 8d       	ldd	r24, Y+27	; 0x1b
    3de6:	8f 93       	push	r24
    3de8:	8a 8d       	ldd	r24, Y+26	; 0x1a
    3dea:	8f 93       	push	r24
    3dec:	89 8d       	ldd	r24, Y+25	; 0x19
    3dee:	8f 93       	push	r24
    3df0:	9f 92       	push	r9
    3df2:	8f 92       	push	r8
    3df4:	3f 92       	push	r3
    3df6:	2f 92       	push	r2
    3df8:	22 96       	adiw	r28, 0x02	; 2
    3dfa:	3f ad       	ldd	r19, Y+63	; 0x3f
    3dfc:	22 97       	sbiw	r28, 0x02	; 2
    3dfe:	23 96       	adiw	r28, 0x03	; 3
    3e00:	2f ad       	ldd	r18, Y+63	; 0x3f
    3e02:	23 97       	sbiw	r28, 0x03	; 3
    3e04:	24 96       	adiw	r28, 0x04	; 4
    3e06:	9f ad       	ldd	r25, Y+63	; 0x3f
    3e08:	24 97       	sbiw	r28, 0x04	; 4
    3e0a:	25 96       	adiw	r28, 0x05	; 5
    3e0c:	8f ad       	ldd	r24, Y+63	; 0x3f
    3e0e:	25 97       	sbiw	r28, 0x05	; 5
    3e10:	a3 2e       	mov	r10, r19
    3e12:	b2 2e       	mov	r11, r18
    3e14:	c9 2e       	mov	r12, r25
    3e16:	d8 2e       	mov	r13, r24
    3e18:	20 91 36 01 	lds	r18, 0x0136
    3e1c:	30 91 37 01 	lds	r19, 0x0137
    3e20:	40 91 38 01 	lds	r20, 0x0138
    3e24:	50 91 39 01 	lds	r21, 0x0139
    3e28:	60 91 3a 01 	lds	r22, 0x013A
    3e2c:	70 91 3b 01 	lds	r23, 0x013B
    3e30:	80 91 3c 01 	lds	r24, 0x013C
    3e34:	90 91 3d 01 	lds	r25, 0x013D
    3e38:	0e 94 e6 0f 	call	0x1fcc	; 0x1fcc <CalcStraightPath>
    3e3c:	89 a1       	ldd	r24, Y+33	; 0x21
    3e3e:	9a a1       	ldd	r25, Y+34	; 0x22
    3e40:	ab a1       	ldd	r26, Y+35	; 0x23
    3e42:	bc a1       	ldd	r27, Y+36	; 0x24
    3e44:	9c 01       	movw	r18, r24
    3e46:	ad 01       	movw	r20, r26
    3e48:	50 58       	subi	r21, 0x80	; 128
    3e4a:	2d ab       	std	Y+53, r18	; 0x35
    3e4c:	3e ab       	std	Y+54, r19	; 0x36
    3e4e:	4f ab       	std	Y+55, r20	; 0x37
    3e50:	58 af       	std	Y+56, r21	; 0x38
    3e52:	4d 8c       	ldd	r4, Y+29	; 0x1d
    3e54:	5e 8c       	ldd	r5, Y+30	; 0x1e
    3e56:	6f 8c       	ldd	r6, Y+31	; 0x1f
    3e58:	78 a0       	ldd	r7, Y+32	; 0x20
    3e5a:	77 fa       	bst	r7, 7
    3e5c:	70 94       	com	r7
    3e5e:	77 f8       	bld	r7, 7
    3e60:	70 94       	com	r7
    3e62:	0f b6       	in	r0, 0x3f	; 63
    3e64:	f8 94       	cli
    3e66:	de bf       	out	0x3e, r29	; 62
    3e68:	0f be       	out	0x3f, r0	; 63
    3e6a:	cd bf       	out	0x3d, r28	; 61
    3e6c:	60 91 5a 01 	lds	r22, 0x015A
    3e70:	70 91 5b 01 	lds	r23, 0x015B
    3e74:	88 27       	eor	r24, r24
    3e76:	77 fd       	sbrc	r23, 7
    3e78:	80 95       	com	r24
    3e7a:	98 2f       	mov	r25, r24
    3e7c:	0e 94 aa 50 	call	0xa154	; 0xa154 <__floatsisf>
    3e80:	9f 93       	push	r25
    3e82:	8f 93       	push	r24
    3e84:	7f 93       	push	r23
    3e86:	6f 93       	push	r22
    3e88:	58 ad       	ldd	r21, Y+56	; 0x38
    3e8a:	5f 93       	push	r21
    3e8c:	8f a9       	ldd	r24, Y+55	; 0x37
    3e8e:	8f 93       	push	r24
    3e90:	9e a9       	ldd	r25, Y+54	; 0x36
    3e92:	9f 93       	push	r25
    3e94:	ed a9       	ldd	r30, Y+53	; 0x35
    3e96:	ef 93       	push	r30
    3e98:	7f 92       	push	r7
    3e9a:	6f 92       	push	r6
    3e9c:	5f 92       	push	r5
    3e9e:	4f 92       	push	r4
    3ea0:	88 a5       	ldd	r24, Y+40	; 0x28
    3ea2:	8f 93       	push	r24
    3ea4:	8f a1       	ldd	r24, Y+39	; 0x27
    3ea6:	8f 93       	push	r24
    3ea8:	8e a1       	ldd	r24, Y+38	; 0x26
    3eaa:	8f 93       	push	r24
    3eac:	8d a1       	ldd	r24, Y+37	; 0x25
    3eae:	8f 93       	push	r24
    3eb0:	5f 93       	push	r21
    3eb2:	ff a9       	ldd	r31, Y+55	; 0x37
    3eb4:	ff 93       	push	r31
    3eb6:	9f 93       	push	r25
    3eb8:	ef 93       	push	r30
    3eba:	63 01       	movw	r12, r6
    3ebc:	52 01       	movw	r10, r4
    3ebe:	20 91 2e 01 	lds	r18, 0x012E
    3ec2:	30 91 2f 01 	lds	r19, 0x012F
    3ec6:	40 91 30 01 	lds	r20, 0x0130
    3eca:	50 91 31 01 	lds	r21, 0x0131
    3ece:	60 91 32 01 	lds	r22, 0x0132
    3ed2:	70 91 33 01 	lds	r23, 0x0133
    3ed6:	80 91 34 01 	lds	r24, 0x0134
    3eda:	90 91 35 01 	lds	r25, 0x0135
    3ede:	0e 94 e6 0f 	call	0x1fcc	; 0x1fcc <CalcStraightPath>
    3ee2:	8d a5       	ldd	r24, Y+45	; 0x2d
    3ee4:	9e a5       	ldd	r25, Y+46	; 0x2e
    3ee6:	af a5       	ldd	r26, Y+47	; 0x2f
    3ee8:	b8 a9       	ldd	r27, Y+48	; 0x30
    3eea:	9c 01       	movw	r18, r24
    3eec:	ad 01       	movw	r20, r26
    3eee:	50 58       	subi	r21, 0x80	; 128
    3ef0:	29 af       	std	Y+57, r18	; 0x39
    3ef2:	3a af       	std	Y+58, r19	; 0x3a
    3ef4:	4b af       	std	Y+59, r20	; 0x3b
    3ef6:	5c af       	std	Y+60, r21	; 0x3c
    3ef8:	39 a5       	ldd	r19, Y+41	; 0x29
    3efa:	2a 96       	adiw	r28, 0x0a	; 10
    3efc:	3f af       	std	Y+63, r19	; 0x3f
    3efe:	2a 97       	sbiw	r28, 0x0a	; 10
    3f00:	4a a5       	ldd	r20, Y+42	; 0x2a
    3f02:	2b 96       	adiw	r28, 0x0b	; 11
    3f04:	4f af       	std	Y+63, r20	; 0x3f
    3f06:	2b 97       	sbiw	r28, 0x0b	; 11
    3f08:	5b a5       	ldd	r21, Y+43	; 0x2b
    3f0a:	2c 96       	adiw	r28, 0x0c	; 12
    3f0c:	5f af       	std	Y+63, r21	; 0x3f
    3f0e:	2c 97       	sbiw	r28, 0x0c	; 12
    3f10:	8c a5       	ldd	r24, Y+44	; 0x2c
    3f12:	2d 96       	adiw	r28, 0x0d	; 13
    3f14:	8f af       	std	Y+63, r24	; 0x3f
    3f16:	2d 97       	sbiw	r28, 0x0d	; 13
    3f18:	60 91 5a 01 	lds	r22, 0x015A
    3f1c:	70 91 5b 01 	lds	r23, 0x015B
    3f20:	88 27       	eor	r24, r24
    3f22:	77 fd       	sbrc	r23, 7
    3f24:	80 95       	com	r24
    3f26:	98 2f       	mov	r25, r24
    3f28:	0e 94 aa 50 	call	0xa154	; 0xa154 <__floatsisf>
    3f2c:	9f 93       	push	r25
    3f2e:	8f 93       	push	r24
    3f30:	7f 93       	push	r23
    3f32:	6f 93       	push	r22
    3f34:	9c ad       	ldd	r25, Y+60	; 0x3c
    3f36:	9f 93       	push	r25
    3f38:	eb ad       	ldd	r30, Y+59	; 0x3b
    3f3a:	ef 93       	push	r30
    3f3c:	fa ad       	ldd	r31, Y+58	; 0x3a
    3f3e:	ff 93       	push	r31
    3f40:	29 ad       	ldd	r18, Y+57	; 0x39
    3f42:	2f 93       	push	r18
    3f44:	2d 96       	adiw	r28, 0x0d	; 13
    3f46:	3f ad       	ldd	r19, Y+63	; 0x3f
    3f48:	2d 97       	sbiw	r28, 0x0d	; 13
    3f4a:	3f 93       	push	r19
    3f4c:	2c 96       	adiw	r28, 0x0c	; 12
    3f4e:	4f ad       	ldd	r20, Y+63	; 0x3f
    3f50:	2c 97       	sbiw	r28, 0x0c	; 12
    3f52:	4f 93       	push	r20
    3f54:	2b 96       	adiw	r28, 0x0b	; 11
    3f56:	5f ad       	ldd	r21, Y+63	; 0x3f
    3f58:	2b 97       	sbiw	r28, 0x0b	; 11
    3f5a:	5f 93       	push	r21
    3f5c:	2a 96       	adiw	r28, 0x0a	; 10
    3f5e:	8f ad       	ldd	r24, Y+63	; 0x3f
    3f60:	2a 97       	sbiw	r28, 0x0a	; 10
    3f62:	8f 93       	push	r24
    3f64:	8c a9       	ldd	r24, Y+52	; 0x34
    3f66:	8f 93       	push	r24
    3f68:	8b a9       	ldd	r24, Y+51	; 0x33
    3f6a:	8f 93       	push	r24
    3f6c:	8a a9       	ldd	r24, Y+50	; 0x32
    3f6e:	8f 93       	push	r24
    3f70:	89 a9       	ldd	r24, Y+49	; 0x31
    3f72:	8f 93       	push	r24
    3f74:	9f 93       	push	r25
    3f76:	ef 93       	push	r30
    3f78:	ff 93       	push	r31
    3f7a:	2f 93       	push	r18
    3f7c:	2a 96       	adiw	r28, 0x0a	; 10
    3f7e:	3f ad       	ldd	r19, Y+63	; 0x3f
    3f80:	2a 97       	sbiw	r28, 0x0a	; 10
    3f82:	2b 96       	adiw	r28, 0x0b	; 11
    3f84:	2f ad       	ldd	r18, Y+63	; 0x3f
    3f86:	2b 97       	sbiw	r28, 0x0b	; 11
    3f88:	2c 96       	adiw	r28, 0x0c	; 12
    3f8a:	9f ad       	ldd	r25, Y+63	; 0x3f
    3f8c:	2c 97       	sbiw	r28, 0x0c	; 12
    3f8e:	2d 96       	adiw	r28, 0x0d	; 13
    3f90:	8f ad       	ldd	r24, Y+63	; 0x3f
    3f92:	2d 97       	sbiw	r28, 0x0d	; 13
    3f94:	a3 2e       	mov	r10, r19
    3f96:	b2 2e       	mov	r11, r18
    3f98:	c9 2e       	mov	r12, r25
    3f9a:	d8 2e       	mov	r13, r24
    3f9c:	20 91 26 01 	lds	r18, 0x0126
    3fa0:	30 91 27 01 	lds	r19, 0x0127
    3fa4:	40 91 28 01 	lds	r20, 0x0128
    3fa8:	50 91 29 01 	lds	r21, 0x0129
    3fac:	60 91 2a 01 	lds	r22, 0x012A
    3fb0:	70 91 2b 01 	lds	r23, 0x012B
    3fb4:	80 91 2c 01 	lds	r24, 0x012C
    3fb8:	90 91 2d 01 	lds	r25, 0x012D
    3fbc:	0e 94 e6 0f 	call	0x1fcc	; 0x1fcc <CalcStraightPath>
    3fc0:	60 91 5a 01 	lds	r22, 0x015A
    3fc4:	70 91 5b 01 	lds	r23, 0x015B
    3fc8:	88 27       	eor	r24, r24
    3fca:	77 fd       	sbrc	r23, 7
    3fcc:	80 95       	com	r24
    3fce:	98 2f       	mov	r25, r24
    3fd0:	0e 94 aa 50 	call	0xa154	; 0xa154 <__floatsisf>
    3fd4:	16 2f       	mov	r17, r22
    3fd6:	07 2f       	mov	r16, r23
    3fd8:	f8 2e       	mov	r15, r24
    3fda:	e9 2e       	mov	r14, r25
    3fdc:	0f b6       	in	r0, 0x3f	; 63
    3fde:	f8 94       	cli
    3fe0:	de bf       	out	0x3e, r29	; 62
    3fe2:	0f be       	out	0x3f, r0	; 63
    3fe4:	cd bf       	out	0x3d, r28	; 61
    3fe6:	9f 93       	push	r25
    3fe8:	8f 93       	push	r24
    3fea:	7f 93       	push	r23
    3fec:	6f 93       	push	r22
    3fee:	60 91 5c 01 	lds	r22, 0x015C
    3ff2:	70 91 5d 01 	lds	r23, 0x015D
    3ff6:	88 27       	eor	r24, r24
    3ff8:	77 fd       	sbrc	r23, 7
    3ffa:	80 95       	com	r24
    3ffc:	98 2f       	mov	r25, r24
    3ffe:	0e 94 aa 50 	call	0xa154	; 0xa154 <__floatsisf>
    4002:	9f 93       	push	r25
    4004:	8f 93       	push	r24
    4006:	7f 93       	push	r23
    4008:	6f 93       	push	r22
    400a:	60 91 5e 01 	lds	r22, 0x015E
    400e:	70 91 5f 01 	lds	r23, 0x015F
    4012:	71 95       	neg	r23
    4014:	61 95       	neg	r22
    4016:	71 09       	sbc	r23, r1
    4018:	88 27       	eor	r24, r24
    401a:	77 fd       	sbrc	r23, 7
    401c:	80 95       	com	r24
    401e:	98 2f       	mov	r25, r24
    4020:	0e 94 aa 50 	call	0xa154	; 0xa154 <__floatsisf>
    4024:	9f 93       	push	r25
    4026:	8f 93       	push	r24
    4028:	7f 93       	push	r23
    402a:	6f 93       	push	r22
    402c:	ef 92       	push	r14
    402e:	ff 92       	push	r15
    4030:	0f 93       	push	r16
    4032:	1f 93       	push	r17
    4034:	29 96       	adiw	r28, 0x09	; 9
    4036:	ff ad       	ldd	r31, Y+63	; 0x3f
    4038:	29 97       	sbiw	r28, 0x09	; 9
    403a:	ff 93       	push	r31
    403c:	28 96       	adiw	r28, 0x08	; 8
    403e:	2f ad       	ldd	r18, Y+63	; 0x3f
    4040:	28 97       	sbiw	r28, 0x08	; 8
    4042:	2f 93       	push	r18
    4044:	27 96       	adiw	r28, 0x07	; 7
    4046:	3f ad       	ldd	r19, Y+63	; 0x3f
    4048:	27 97       	sbiw	r28, 0x07	; 7
    404a:	3f 93       	push	r19
    404c:	26 96       	adiw	r28, 0x06	; 6
    404e:	4f ad       	ldd	r20, Y+63	; 0x3f
    4050:	26 97       	sbiw	r28, 0x06	; 6
    4052:	4f 93       	push	r20
    4054:	21 96       	adiw	r28, 0x01	; 1
    4056:	ac ac       	ldd	r10, Y+60	; 0x3c
    4058:	bd ac       	ldd	r11, Y+61	; 0x3d
    405a:	ce ac       	ldd	r12, Y+62	; 0x3e
    405c:	df ac       	ldd	r13, Y+63	; 0x3f
    405e:	21 97       	sbiw	r28, 0x01	; 1
    4060:	68 94       	set
    4062:	ee 24       	eor	r14, r14
    4064:	e2 f8       	bld	r14, 2
    4066:	f1 2c       	mov	r15, r1
    4068:	04 e0       	ldi	r16, 0x04	; 4
    406a:	10 e0       	ldi	r17, 0x00	; 0
    406c:	20 91 3e 01 	lds	r18, 0x013E
    4070:	30 91 3f 01 	lds	r19, 0x013F
    4074:	40 91 40 01 	lds	r20, 0x0140
    4078:	50 91 41 01 	lds	r21, 0x0141
    407c:	60 91 42 01 	lds	r22, 0x0142
    4080:	70 91 43 01 	lds	r23, 0x0143
    4084:	80 91 44 01 	lds	r24, 0x0144
    4088:	90 91 45 01 	lds	r25, 0x0145
    408c:	0e 94 6b 13 	call	0x26d6	; 0x26d6 <CalcCurvedPath>
    4090:	60 91 5a 01 	lds	r22, 0x015A
    4094:	70 91 5b 01 	lds	r23, 0x015B
    4098:	88 27       	eor	r24, r24
    409a:	77 fd       	sbrc	r23, 7
    409c:	80 95       	com	r24
    409e:	98 2f       	mov	r25, r24
    40a0:	0e 94 aa 50 	call	0xa154	; 0xa154 <__floatsisf>
    40a4:	9f 93       	push	r25
    40a6:	8f 93       	push	r24
    40a8:	7f 93       	push	r23
    40aa:	6f 93       	push	r22
    40ac:	9f 92       	push	r9
    40ae:	8f 92       	push	r8
    40b0:	3f 92       	push	r3
    40b2:	2f 92       	push	r2
    40b4:	25 96       	adiw	r28, 0x05	; 5
    40b6:	5f ad       	ldd	r21, Y+63	; 0x3f
    40b8:	25 97       	sbiw	r28, 0x05	; 5
    40ba:	5f 93       	push	r21
    40bc:	24 96       	adiw	r28, 0x04	; 4
    40be:	ef ad       	ldd	r30, Y+63	; 0x3f
    40c0:	24 97       	sbiw	r28, 0x04	; 4
    40c2:	ef 93       	push	r30
    40c4:	23 96       	adiw	r28, 0x03	; 3
    40c6:	ff ad       	ldd	r31, Y+63	; 0x3f
    40c8:	23 97       	sbiw	r28, 0x03	; 3
    40ca:	ff 93       	push	r31
    40cc:	22 96       	adiw	r28, 0x02	; 2
    40ce:	2f ad       	ldd	r18, Y+63	; 0x3f
    40d0:	22 97       	sbiw	r28, 0x02	; 2
    40d2:	2f 93       	push	r18
    40d4:	9f 93       	push	r25
    40d6:	8f 93       	push	r24
    40d8:	7f 93       	push	r23
    40da:	6f 93       	push	r22
    40dc:	9f 92       	push	r9
    40de:	8f 92       	push	r8
    40e0:	3f 92       	push	r3
    40e2:	2f 92       	push	r2
    40e4:	22 96       	adiw	r28, 0x02	; 2
    40e6:	3f ad       	ldd	r19, Y+63	; 0x3f
    40e8:	22 97       	sbiw	r28, 0x02	; 2
    40ea:	23 96       	adiw	r28, 0x03	; 3
    40ec:	2f ad       	ldd	r18, Y+63	; 0x3f
    40ee:	23 97       	sbiw	r28, 0x03	; 3
    40f0:	24 96       	adiw	r28, 0x04	; 4
    40f2:	9f ad       	ldd	r25, Y+63	; 0x3f
    40f4:	24 97       	sbiw	r28, 0x04	; 4
    40f6:	25 96       	adiw	r28, 0x05	; 5
    40f8:	8f ad       	ldd	r24, Y+63	; 0x3f
    40fa:	25 97       	sbiw	r28, 0x05	; 5
    40fc:	a3 2e       	mov	r10, r19
    40fe:	b2 2e       	mov	r11, r18
    4100:	c9 2e       	mov	r12, r25
    4102:	d8 2e       	mov	r13, r24
    4104:	20 91 36 01 	lds	r18, 0x0136
    4108:	30 91 37 01 	lds	r19, 0x0137
    410c:	40 91 38 01 	lds	r20, 0x0138
    4110:	50 91 39 01 	lds	r21, 0x0139
    4114:	60 91 3a 01 	lds	r22, 0x013A
    4118:	70 91 3b 01 	lds	r23, 0x013B
    411c:	80 91 3c 01 	lds	r24, 0x013C
    4120:	90 91 3d 01 	lds	r25, 0x013D
    4124:	0e 94 e6 0f 	call	0x1fcc	; 0x1fcc <CalcStraightPath>
    4128:	60 91 5a 01 	lds	r22, 0x015A
    412c:	70 91 5b 01 	lds	r23, 0x015B
    4130:	88 27       	eor	r24, r24
    4132:	77 fd       	sbrc	r23, 7
    4134:	80 95       	com	r24
    4136:	98 2f       	mov	r25, r24
    4138:	0e 94 aa 50 	call	0xa154	; 0xa154 <__floatsisf>
    413c:	0f b6       	in	r0, 0x3f	; 63
    413e:	f8 94       	cli
    4140:	de bf       	out	0x3e, r29	; 62
    4142:	0f be       	out	0x3f, r0	; 63
    4144:	cd bf       	out	0x3d, r28	; 61
    4146:	9f 93       	push	r25
    4148:	8f 93       	push	r24
    414a:	7f 93       	push	r23
    414c:	6f 93       	push	r22
    414e:	58 ad       	ldd	r21, Y+56	; 0x38
    4150:	5f 93       	push	r21
    4152:	ef a9       	ldd	r30, Y+55	; 0x37
    4154:	ef 93       	push	r30
    4156:	fe a9       	ldd	r31, Y+54	; 0x36
    4158:	ff 93       	push	r31
    415a:	2d a9       	ldd	r18, Y+53	; 0x35
    415c:	2f 93       	push	r18
    415e:	7f 92       	push	r7
    4160:	6f 92       	push	r6
    4162:	5f 92       	push	r5
    4164:	4f 92       	push	r4
    4166:	9f 93       	push	r25
    4168:	8f 93       	push	r24
    416a:	7f 93       	push	r23
    416c:	6f 93       	push	r22
    416e:	5f 93       	push	r21
    4170:	ef 93       	push	r30
    4172:	ff 93       	push	r31
    4174:	2f 93       	push	r18
    4176:	63 01       	movw	r12, r6
    4178:	52 01       	movw	r10, r4
    417a:	20 91 2e 01 	lds	r18, 0x012E
    417e:	30 91 2f 01 	lds	r19, 0x012F
    4182:	40 91 30 01 	lds	r20, 0x0130
    4186:	50 91 31 01 	lds	r21, 0x0131
    418a:	60 91 32 01 	lds	r22, 0x0132
    418e:	70 91 33 01 	lds	r23, 0x0133
    4192:	80 91 34 01 	lds	r24, 0x0134
    4196:	90 91 35 01 	lds	r25, 0x0135
    419a:	0e 94 e6 0f 	call	0x1fcc	; 0x1fcc <CalcStraightPath>
    419e:	60 91 5a 01 	lds	r22, 0x015A
    41a2:	70 91 5b 01 	lds	r23, 0x015B
    41a6:	88 27       	eor	r24, r24
    41a8:	77 fd       	sbrc	r23, 7
    41aa:	80 95       	com	r24
    41ac:	98 2f       	mov	r25, r24
    41ae:	0e 94 aa 50 	call	0xa154	; 0xa154 <__floatsisf>
    41b2:	16 2f       	mov	r17, r22
    41b4:	07 2f       	mov	r16, r23
    41b6:	f8 2e       	mov	r15, r24
    41b8:	e9 2e       	mov	r14, r25
    41ba:	9f 93       	push	r25
    41bc:	8f 93       	push	r24
    41be:	7f 93       	push	r23
    41c0:	6f 93       	push	r22
    41c2:	60 91 5c 01 	lds	r22, 0x015C
    41c6:	70 91 5d 01 	lds	r23, 0x015D
    41ca:	71 95       	neg	r23
    41cc:	61 95       	neg	r22
    41ce:	71 09       	sbc	r23, r1
    41d0:	88 27       	eor	r24, r24
    41d2:	77 fd       	sbrc	r23, 7
    41d4:	80 95       	com	r24
    41d6:	98 2f       	mov	r25, r24
    41d8:	0e 94 aa 50 	call	0xa154	; 0xa154 <__floatsisf>
    41dc:	9f 93       	push	r25
    41de:	8f 93       	push	r24
    41e0:	7f 93       	push	r23
    41e2:	6f 93       	push	r22
    41e4:	60 91 5e 01 	lds	r22, 0x015E
    41e8:	70 91 5f 01 	lds	r23, 0x015F
    41ec:	88 27       	eor	r24, r24
    41ee:	77 fd       	sbrc	r23, 7
    41f0:	80 95       	com	r24
    41f2:	98 2f       	mov	r25, r24
    41f4:	0e 94 aa 50 	call	0xa154	; 0xa154 <__floatsisf>
    41f8:	9f 93       	push	r25
    41fa:	8f 93       	push	r24
    41fc:	7f 93       	push	r23
    41fe:	6f 93       	push	r22
    4200:	ef 92       	push	r14
    4202:	ff 92       	push	r15
    4204:	0f 93       	push	r16
    4206:	1f 93       	push	r17
    4208:	3c ad       	ldd	r19, Y+60	; 0x3c
    420a:	3f 93       	push	r19
    420c:	4b ad       	ldd	r20, Y+59	; 0x3b
    420e:	4f 93       	push	r20
    4210:	5a ad       	ldd	r21, Y+58	; 0x3a
    4212:	5f 93       	push	r21
    4214:	89 ad       	ldd	r24, Y+57	; 0x39
    4216:	8f 93       	push	r24
    4218:	2a 96       	adiw	r28, 0x0a	; 10
    421a:	3f ad       	ldd	r19, Y+63	; 0x3f
    421c:	2a 97       	sbiw	r28, 0x0a	; 10
    421e:	2b 96       	adiw	r28, 0x0b	; 11
    4220:	2f ad       	ldd	r18, Y+63	; 0x3f
    4222:	2b 97       	sbiw	r28, 0x0b	; 11
    4224:	2c 96       	adiw	r28, 0x0c	; 12
    4226:	9f ad       	ldd	r25, Y+63	; 0x3f
    4228:	2c 97       	sbiw	r28, 0x0c	; 12
    422a:	2d 96       	adiw	r28, 0x0d	; 13
    422c:	8f ad       	ldd	r24, Y+63	; 0x3f
    422e:	2d 97       	sbiw	r28, 0x0d	; 13
    4230:	a3 2e       	mov	r10, r19
    4232:	b2 2e       	mov	r11, r18
    4234:	c9 2e       	mov	r12, r25
    4236:	d8 2e       	mov	r13, r24
    4238:	68 94       	set
    423a:	ee 24       	eor	r14, r14
    423c:	e2 f8       	bld	r14, 2
    423e:	f1 2c       	mov	r15, r1
    4240:	04 e0       	ldi	r16, 0x04	; 4
    4242:	10 e0       	ldi	r17, 0x00	; 0
    4244:	20 91 26 01 	lds	r18, 0x0126
    4248:	30 91 27 01 	lds	r19, 0x0127
    424c:	40 91 28 01 	lds	r20, 0x0128
    4250:	50 91 29 01 	lds	r21, 0x0129
    4254:	60 91 2a 01 	lds	r22, 0x012A
    4258:	70 91 2b 01 	lds	r23, 0x012B
    425c:	80 91 2c 01 	lds	r24, 0x012C
    4260:	90 91 2d 01 	lds	r25, 0x012D
    4264:	0e 94 6b 13 	call	0x26d6	; 0x26d6 <CalcCurvedPath>
    4268:	60 91 5a 01 	lds	r22, 0x015A
    426c:	70 91 5b 01 	lds	r23, 0x015B
    4270:	88 27       	eor	r24, r24
    4272:	77 fd       	sbrc	r23, 7
    4274:	80 95       	com	r24
    4276:	98 2f       	mov	r25, r24
    4278:	0e 94 aa 50 	call	0xa154	; 0xa154 <__floatsisf>
    427c:	16 2f       	mov	r17, r22
    427e:	07 2f       	mov	r16, r23
    4280:	f8 2e       	mov	r15, r24
    4282:	e9 2e       	mov	r14, r25
    4284:	60 91 5c 01 	lds	r22, 0x015C
    4288:	70 91 5d 01 	lds	r23, 0x015D
    428c:	88 27       	eor	r24, r24
    428e:	77 fd       	sbrc	r23, 7
    4290:	80 95       	com	r24
    4292:	98 2f       	mov	r25, r24
    4294:	0e 94 aa 50 	call	0xa154	; 0xa154 <__floatsisf>
    4298:	d6 2e       	mov	r13, r22
    429a:	c7 2e       	mov	r12, r23
    429c:	b8 2e       	mov	r11, r24
    429e:	a9 2e       	mov	r10, r25
    42a0:	60 91 5e 01 	lds	r22, 0x015E
    42a4:	70 91 5f 01 	lds	r23, 0x015F
    42a8:	71 95       	neg	r23
    42aa:	61 95       	neg	r22
    42ac:	71 09       	sbc	r23, r1
    42ae:	88 27       	eor	r24, r24
    42b0:	77 fd       	sbrc	r23, 7
    42b2:	80 95       	com	r24
    42b4:	98 2f       	mov	r25, r24
    42b6:	0e 94 aa 50 	call	0xa154	; 0xa154 <__floatsisf>
    42ba:	0f b6       	in	r0, 0x3f	; 63
    42bc:	f8 94       	cli
    42be:	de bf       	out	0x3e, r29	; 62
    42c0:	0f be       	out	0x3f, r0	; 63
    42c2:	cd bf       	out	0x3d, r28	; 61
    42c4:	ef 92       	push	r14
    42c6:	ff 92       	push	r15
    42c8:	0f 93       	push	r16
    42ca:	1f 93       	push	r17
    42cc:	af 92       	push	r10
    42ce:	bf 92       	push	r11
    42d0:	cf 92       	push	r12
    42d2:	df 92       	push	r13
    42d4:	9f 93       	push	r25
    42d6:	8f 93       	push	r24
    42d8:	7f 93       	push	r23
    42da:	6f 93       	push	r22
    42dc:	ef 92       	push	r14
    42de:	ff 92       	push	r15
    42e0:	0f 93       	push	r16
    42e2:	1f 93       	push	r17
    42e4:	af 92       	push	r10
    42e6:	bf 92       	push	r11
    42e8:	cf 92       	push	r12
    42ea:	df 92       	push	r13
    42ec:	a6 2e       	mov	r10, r22
    42ee:	b7 2e       	mov	r11, r23
    42f0:	c8 2e       	mov	r12, r24
    42f2:	d9 2e       	mov	r13, r25
    42f4:	68 94       	set
    42f6:	ee 24       	eor	r14, r14
    42f8:	e3 f8       	bld	r14, 3
    42fa:	f1 2c       	mov	r15, r1
    42fc:	04 e0       	ldi	r16, 0x04	; 4
    42fe:	10 e0       	ldi	r17, 0x00	; 0
    4300:	20 91 3e 01 	lds	r18, 0x013E
    4304:	30 91 3f 01 	lds	r19, 0x013F
    4308:	40 91 40 01 	lds	r20, 0x0140
    430c:	50 91 41 01 	lds	r21, 0x0141
    4310:	60 91 42 01 	lds	r22, 0x0142
    4314:	70 91 43 01 	lds	r23, 0x0143
    4318:	80 91 44 01 	lds	r24, 0x0144
    431c:	90 91 45 01 	lds	r25, 0x0145
    4320:	0e 94 e6 0f 	call	0x1fcc	; 0x1fcc <CalcStraightPath>
    4324:	60 91 5a 01 	lds	r22, 0x015A
    4328:	70 91 5b 01 	lds	r23, 0x015B
    432c:	88 27       	eor	r24, r24
    432e:	77 fd       	sbrc	r23, 7
    4330:	80 95       	com	r24
    4332:	98 2f       	mov	r25, r24
    4334:	0e 94 aa 50 	call	0xa154	; 0xa154 <__floatsisf>
    4338:	d6 2e       	mov	r13, r22
    433a:	c7 2e       	mov	r12, r23
    433c:	b8 2e       	mov	r11, r24
    433e:	a9 2e       	mov	r10, r25
    4340:	9f 93       	push	r25
    4342:	8f 93       	push	r24
    4344:	7f 93       	push	r23
    4346:	6f 93       	push	r22
    4348:	60 91 5c 01 	lds	r22, 0x015C
    434c:	70 91 5d 01 	lds	r23, 0x015D
    4350:	88 27       	eor	r24, r24
    4352:	77 fd       	sbrc	r23, 7
    4354:	80 95       	com	r24
    4356:	98 2f       	mov	r25, r24
    4358:	0e 94 aa 50 	call	0xa154	; 0xa154 <__floatsisf>
    435c:	9f 93       	push	r25
    435e:	8f 93       	push	r24
    4360:	7f 93       	push	r23
    4362:	6f 93       	push	r22
    4364:	60 91 5e 01 	lds	r22, 0x015E
    4368:	70 91 5f 01 	lds	r23, 0x015F
    436c:	88 27       	eor	r24, r24
    436e:	77 fd       	sbrc	r23, 7
    4370:	80 95       	com	r24
    4372:	98 2f       	mov	r25, r24
    4374:	0e 94 aa 50 	call	0xa154	; 0xa154 <__floatsisf>
    4378:	9f 93       	push	r25
    437a:	8f 93       	push	r24
    437c:	7f 93       	push	r23
    437e:	6f 93       	push	r22
    4380:	af 92       	push	r10
    4382:	bf 92       	push	r11
    4384:	cf 92       	push	r12
    4386:	df 92       	push	r13
    4388:	9f 92       	push	r9
    438a:	8f 92       	push	r8
    438c:	3f 92       	push	r3
    438e:	2f 92       	push	r2
    4390:	22 96       	adiw	r28, 0x02	; 2
    4392:	3f ad       	ldd	r19, Y+63	; 0x3f
    4394:	22 97       	sbiw	r28, 0x02	; 2
    4396:	23 96       	adiw	r28, 0x03	; 3
    4398:	2f ad       	ldd	r18, Y+63	; 0x3f
    439a:	23 97       	sbiw	r28, 0x03	; 3
    439c:	24 96       	adiw	r28, 0x04	; 4
    439e:	9f ad       	ldd	r25, Y+63	; 0x3f
    43a0:	24 97       	sbiw	r28, 0x04	; 4
    43a2:	25 96       	adiw	r28, 0x05	; 5
    43a4:	8f ad       	ldd	r24, Y+63	; 0x3f
    43a6:	25 97       	sbiw	r28, 0x05	; 5
    43a8:	a3 2e       	mov	r10, r19
    43aa:	b2 2e       	mov	r11, r18
    43ac:	c9 2e       	mov	r12, r25
    43ae:	d8 2e       	mov	r13, r24
    43b0:	20 91 36 01 	lds	r18, 0x0136
    43b4:	30 91 37 01 	lds	r19, 0x0137
    43b8:	40 91 38 01 	lds	r20, 0x0138
    43bc:	50 91 39 01 	lds	r21, 0x0139
    43c0:	60 91 3a 01 	lds	r22, 0x013A
    43c4:	70 91 3b 01 	lds	r23, 0x013B
    43c8:	80 91 3c 01 	lds	r24, 0x013C
    43cc:	90 91 3d 01 	lds	r25, 0x013D
    43d0:	0e 94 6b 13 	call	0x26d6	; 0x26d6 <CalcCurvedPath>
    43d4:	60 91 5a 01 	lds	r22, 0x015A
    43d8:	70 91 5b 01 	lds	r23, 0x015B
    43dc:	88 27       	eor	r24, r24
    43de:	77 fd       	sbrc	r23, 7
    43e0:	80 95       	com	r24
    43e2:	98 2f       	mov	r25, r24
    43e4:	0e 94 aa 50 	call	0xa154	; 0xa154 <__floatsisf>
    43e8:	d6 2e       	mov	r13, r22
    43ea:	c7 2e       	mov	r12, r23
    43ec:	b8 2e       	mov	r11, r24
    43ee:	a9 2e       	mov	r10, r25
    43f0:	0f b6       	in	r0, 0x3f	; 63
    43f2:	f8 94       	cli
    43f4:	de bf       	out	0x3e, r29	; 62
    43f6:	0f be       	out	0x3f, r0	; 63
    43f8:	cd bf       	out	0x3d, r28	; 61
    43fa:	9f 93       	push	r25
    43fc:	8f 93       	push	r24
    43fe:	7f 93       	push	r23
    4400:	6f 93       	push	r22
    4402:	60 91 5c 01 	lds	r22, 0x015C
    4406:	70 91 5d 01 	lds	r23, 0x015D
    440a:	71 95       	neg	r23
    440c:	61 95       	neg	r22
    440e:	71 09       	sbc	r23, r1
    4410:	88 27       	eor	r24, r24
    4412:	77 fd       	sbrc	r23, 7
    4414:	80 95       	com	r24
    4416:	98 2f       	mov	r25, r24
    4418:	0e 94 aa 50 	call	0xa154	; 0xa154 <__floatsisf>
    441c:	9f 93       	push	r25
    441e:	8f 93       	push	r24
    4420:	7f 93       	push	r23
    4422:	6f 93       	push	r22
    4424:	60 91 5e 01 	lds	r22, 0x015E
    4428:	70 91 5f 01 	lds	r23, 0x015F
    442c:	71 95       	neg	r23
    442e:	61 95       	neg	r22
    4430:	71 09       	sbc	r23, r1
    4432:	88 27       	eor	r24, r24
    4434:	77 fd       	sbrc	r23, 7
    4436:	80 95       	com	r24
    4438:	98 2f       	mov	r25, r24
    443a:	0e 94 aa 50 	call	0xa154	; 0xa154 <__floatsisf>
    443e:	9f 93       	push	r25
    4440:	8f 93       	push	r24
    4442:	7f 93       	push	r23
    4444:	6f 93       	push	r22
    4446:	af 92       	push	r10
    4448:	bf 92       	push	r11
    444a:	cf 92       	push	r12
    444c:	df 92       	push	r13
    444e:	38 ad       	ldd	r19, Y+56	; 0x38
    4450:	3f 93       	push	r19
    4452:	4f a9       	ldd	r20, Y+55	; 0x37
    4454:	4f 93       	push	r20
    4456:	5e a9       	ldd	r21, Y+54	; 0x36
    4458:	5f 93       	push	r21
    445a:	8d a9       	ldd	r24, Y+53	; 0x35
    445c:	8f 93       	push	r24
    445e:	63 01       	movw	r12, r6
    4460:	52 01       	movw	r10, r4
    4462:	20 91 2e 01 	lds	r18, 0x012E
    4466:	30 91 2f 01 	lds	r19, 0x012F
    446a:	40 91 30 01 	lds	r20, 0x0130
    446e:	50 91 31 01 	lds	r21, 0x0131
    4472:	60 91 32 01 	lds	r22, 0x0132
    4476:	70 91 33 01 	lds	r23, 0x0133
    447a:	80 91 34 01 	lds	r24, 0x0134
    447e:	90 91 35 01 	lds	r25, 0x0135
    4482:	0e 94 6b 13 	call	0x26d6	; 0x26d6 <CalcCurvedPath>
    4486:	60 91 5a 01 	lds	r22, 0x015A
    448a:	70 91 5b 01 	lds	r23, 0x015B
    448e:	88 27       	eor	r24, r24
    4490:	77 fd       	sbrc	r23, 7
    4492:	80 95       	com	r24
    4494:	98 2f       	mov	r25, r24
    4496:	0e 94 aa 50 	call	0xa154	; 0xa154 <__floatsisf>
    449a:	16 2f       	mov	r17, r22
    449c:	07 2f       	mov	r16, r23
    449e:	f8 2e       	mov	r15, r24
    44a0:	e9 2e       	mov	r14, r25
    44a2:	60 91 5c 01 	lds	r22, 0x015C
    44a6:	70 91 5d 01 	lds	r23, 0x015D
    44aa:	71 95       	neg	r23
    44ac:	61 95       	neg	r22
    44ae:	71 09       	sbc	r23, r1
    44b0:	88 27       	eor	r24, r24
    44b2:	77 fd       	sbrc	r23, 7
    44b4:	80 95       	com	r24
    44b6:	98 2f       	mov	r25, r24
    44b8:	0e 94 aa 50 	call	0xa154	; 0xa154 <__floatsisf>
    44bc:	d6 2e       	mov	r13, r22
    44be:	c7 2e       	mov	r12, r23
    44c0:	b8 2e       	mov	r11, r24
    44c2:	a9 2e       	mov	r10, r25
    44c4:	60 91 5e 01 	lds	r22, 0x015E
    44c8:	70 91 5f 01 	lds	r23, 0x015F
    44cc:	88 27       	eor	r24, r24
    44ce:	77 fd       	sbrc	r23, 7
    44d0:	80 95       	com	r24
    44d2:	98 2f       	mov	r25, r24
    44d4:	0e 94 aa 50 	call	0xa154	; 0xa154 <__floatsisf>
    44d8:	ef 92       	push	r14
    44da:	ff 92       	push	r15
    44dc:	0f 93       	push	r16
    44de:	1f 93       	push	r17
    44e0:	af 92       	push	r10
    44e2:	bf 92       	push	r11
    44e4:	cf 92       	push	r12
    44e6:	df 92       	push	r13
    44e8:	9f 93       	push	r25
    44ea:	8f 93       	push	r24
    44ec:	7f 93       	push	r23
    44ee:	6f 93       	push	r22
    44f0:	ef 92       	push	r14
    44f2:	ff 92       	push	r15
    44f4:	0f 93       	push	r16
    44f6:	1f 93       	push	r17
    44f8:	af 92       	push	r10
    44fa:	bf 92       	push	r11
    44fc:	cf 92       	push	r12
    44fe:	df 92       	push	r13
    4500:	a6 2e       	mov	r10, r22
    4502:	b7 2e       	mov	r11, r23
    4504:	c8 2e       	mov	r12, r24
    4506:	d9 2e       	mov	r13, r25
    4508:	68 94       	set
    450a:	ee 24       	eor	r14, r14
    450c:	e3 f8       	bld	r14, 3
    450e:	f1 2c       	mov	r15, r1
    4510:	04 e0       	ldi	r16, 0x04	; 4
    4512:	10 e0       	ldi	r17, 0x00	; 0
    4514:	20 91 26 01 	lds	r18, 0x0126
    4518:	30 91 27 01 	lds	r19, 0x0127
    451c:	40 91 28 01 	lds	r20, 0x0128
    4520:	50 91 29 01 	lds	r21, 0x0129
    4524:	60 91 2a 01 	lds	r22, 0x012A
    4528:	70 91 2b 01 	lds	r23, 0x012B
    452c:	80 91 2c 01 	lds	r24, 0x012C
    4530:	90 91 2d 01 	lds	r25, 0x012D
    4534:	0e 94 e6 0f 	call	0x1fcc	; 0x1fcc <CalcStraightPath>
    4538:	10 92 81 01 	sts	0x0181, r1
    453c:	10 92 80 01 	sts	0x0180, r1
    4540:	81 e0       	ldi	r24, 0x01	; 1
    4542:	90 e0       	ldi	r25, 0x00	; 0
    4544:	90 93 23 01 	sts	0x0123, r25
    4548:	80 93 22 01 	sts	0x0122, r24
    454c:	0f b6       	in	r0, 0x3f	; 63
    454e:	f8 94       	cli
    4550:	de bf       	out	0x3e, r29	; 62
    4552:	0f be       	out	0x3f, r0	; 63
    4554:	cd bf       	out	0x3d, r28	; 61
    4556:	c4 5b       	subi	r28, 0xB4	; 180
    4558:	df 4f       	sbci	r29, 0xFF	; 255
    455a:	0f b6       	in	r0, 0x3f	; 63
    455c:	f8 94       	cli
    455e:	de bf       	out	0x3e, r29	; 62
    4560:	0f be       	out	0x3f, r0	; 63
    4562:	cd bf       	out	0x3d, r28	; 61
    4564:	df 91       	pop	r29
    4566:	cf 91       	pop	r28
    4568:	1f 91       	pop	r17
    456a:	0f 91       	pop	r16
    456c:	ff 90       	pop	r15
    456e:	ef 90       	pop	r14
    4570:	df 90       	pop	r13
    4572:	cf 90       	pop	r12
    4574:	bf 90       	pop	r11
    4576:	af 90       	pop	r10
    4578:	9f 90       	pop	r9
    457a:	8f 90       	pop	r8
    457c:	7f 90       	pop	r7
    457e:	6f 90       	pop	r6
    4580:	5f 90       	pop	r5
    4582:	4f 90       	pop	r4
    4584:	3f 90       	pop	r3
    4586:	2f 90       	pop	r2
    4588:	08 95       	ret

0000458a <transitionStartToTrot>:
    458a:	8f 92       	push	r8
    458c:	9f 92       	push	r9
    458e:	af 92       	push	r10
    4590:	bf 92       	push	r11
    4592:	cf 92       	push	r12
    4594:	df 92       	push	r13
    4596:	ef 92       	push	r14
    4598:	ff 92       	push	r15
    459a:	0f 93       	push	r16
    459c:	1f 93       	push	r17
    459e:	cf 93       	push	r28
    45a0:	df 93       	push	r29
    45a2:	80 91 56 01 	lds	r24, 0x0156
    45a6:	90 91 57 01 	lds	r25, 0x0157
    45aa:	ec 01       	movw	r28, r24
    45ac:	99 23       	and	r25, r25
    45ae:	0c f4       	brge	.+2      	; 0x45b2 <transitionStartToTrot+0x28>
    45b0:	23 96       	adiw	r28, 0x03	; 3
    45b2:	d5 95       	asr	r29
    45b4:	c7 95       	ror	r28
    45b6:	d5 95       	asr	r29
    45b8:	c7 95       	ror	r28
    45ba:	01 97       	sbiw	r24, 0x01	; 1
    45bc:	90 93 21 01 	sts	0x0121, r25
    45c0:	80 93 20 01 	sts	0x0120, r24
    45c4:	ce 01       	movw	r24, r28
    45c6:	01 97       	sbiw	r24, 0x01	; 1
    45c8:	90 93 5c 14 	sts	0x145C, r25
    45cc:	80 93 5b 14 	sts	0x145B, r24
    45d0:	00 91 5a 01 	lds	r16, 0x015A
    45d4:	10 91 5b 01 	lds	r17, 0x015B
    45d8:	60 91 5c 01 	lds	r22, 0x015C
    45dc:	70 91 5d 01 	lds	r23, 0x015D
    45e0:	88 27       	eor	r24, r24
    45e2:	77 fd       	sbrc	r23, 7
    45e4:	80 95       	com	r24
    45e6:	98 2f       	mov	r25, r24
    45e8:	0e 94 aa 50 	call	0xa154	; 0xa154 <__floatsisf>
    45ec:	b6 2e       	mov	r11, r22
    45ee:	a7 2e       	mov	r10, r23
    45f0:	98 2e       	mov	r9, r24
    45f2:	89 2e       	mov	r8, r25
    45f4:	60 91 5e 01 	lds	r22, 0x015E
    45f8:	70 91 5f 01 	lds	r23, 0x015F
    45fc:	71 95       	neg	r23
    45fe:	61 95       	neg	r22
    4600:	71 09       	sbc	r23, r1
    4602:	88 27       	eor	r24, r24
    4604:	77 fd       	sbrc	r23, 7
    4606:	80 95       	com	r24
    4608:	98 2f       	mov	r25, r24
    460a:	0e 94 aa 50 	call	0xa154	; 0xa154 <__floatsisf>
    460e:	c6 2e       	mov	r12, r22
    4610:	d7 2e       	mov	r13, r23
    4612:	e8 2e       	mov	r14, r24
    4614:	f9 2e       	mov	r15, r25
    4616:	60 91 58 01 	lds	r22, 0x0158
    461a:	70 91 59 01 	lds	r23, 0x0159
    461e:	60 0f       	add	r22, r16
    4620:	71 1f       	adc	r23, r17
    4622:	88 27       	eor	r24, r24
    4624:	77 fd       	sbrc	r23, 7
    4626:	80 95       	com	r24
    4628:	98 2f       	mov	r25, r24
    462a:	0e 94 aa 50 	call	0xa154	; 0xa154 <__floatsisf>
    462e:	9f 93       	push	r25
    4630:	8f 93       	push	r24
    4632:	7f 93       	push	r23
    4634:	6f 93       	push	r22
    4636:	8f 92       	push	r8
    4638:	9f 92       	push	r9
    463a:	af 92       	push	r10
    463c:	bf 92       	push	r11
    463e:	ff 92       	push	r15
    4640:	ef 92       	push	r14
    4642:	df 92       	push	r13
    4644:	cf 92       	push	r12
    4646:	b8 01       	movw	r22, r16
    4648:	88 27       	eor	r24, r24
    464a:	77 fd       	sbrc	r23, 7
    464c:	80 95       	com	r24
    464e:	98 2f       	mov	r25, r24
    4650:	0e 94 aa 50 	call	0xa154	; 0xa154 <__floatsisf>
    4654:	9f 93       	push	r25
    4656:	8f 93       	push	r24
    4658:	7f 93       	push	r23
    465a:	6f 93       	push	r22
    465c:	8f 92       	push	r8
    465e:	9f 92       	push	r9
    4660:	af 92       	push	r10
    4662:	bf 92       	push	r11
    4664:	ac 2c       	mov	r10, r12
    4666:	bd 2c       	mov	r11, r13
    4668:	ce 2c       	mov	r12, r14
    466a:	df 2c       	mov	r13, r15
    466c:	e1 2c       	mov	r14, r1
    466e:	f1 2c       	mov	r15, r1
    4670:	8e 01       	movw	r16, r28
    4672:	20 91 3e 01 	lds	r18, 0x013E
    4676:	30 91 3f 01 	lds	r19, 0x013F
    467a:	40 91 40 01 	lds	r20, 0x0140
    467e:	50 91 41 01 	lds	r21, 0x0141
    4682:	60 91 42 01 	lds	r22, 0x0142
    4686:	70 91 43 01 	lds	r23, 0x0143
    468a:	80 91 44 01 	lds	r24, 0x0144
    468e:	90 91 45 01 	lds	r25, 0x0145
    4692:	0e 94 e6 0f 	call	0x1fcc	; 0x1fcc <CalcStraightPath>
    4696:	60 91 5a 01 	lds	r22, 0x015A
    469a:	70 91 5b 01 	lds	r23, 0x015B
    469e:	88 27       	eor	r24, r24
    46a0:	77 fd       	sbrc	r23, 7
    46a2:	80 95       	com	r24
    46a4:	98 2f       	mov	r25, r24
    46a6:	0e 94 aa 50 	call	0xa154	; 0xa154 <__floatsisf>
    46aa:	16 2f       	mov	r17, r22
    46ac:	07 2f       	mov	r16, r23
    46ae:	f8 2e       	mov	r15, r24
    46b0:	e9 2e       	mov	r14, r25
    46b2:	60 91 5c 01 	lds	r22, 0x015C
    46b6:	70 91 5d 01 	lds	r23, 0x015D
    46ba:	88 27       	eor	r24, r24
    46bc:	77 fd       	sbrc	r23, 7
    46be:	80 95       	com	r24
    46c0:	98 2f       	mov	r25, r24
    46c2:	0e 94 aa 50 	call	0xa154	; 0xa154 <__floatsisf>
    46c6:	d6 2e       	mov	r13, r22
    46c8:	c7 2e       	mov	r12, r23
    46ca:	b8 2e       	mov	r11, r24
    46cc:	a9 2e       	mov	r10, r25
    46ce:	60 91 5e 01 	lds	r22, 0x015E
    46d2:	70 91 5f 01 	lds	r23, 0x015F
    46d6:	88 27       	eor	r24, r24
    46d8:	77 fd       	sbrc	r23, 7
    46da:	80 95       	com	r24
    46dc:	98 2f       	mov	r25, r24
    46de:	0e 94 aa 50 	call	0xa154	; 0xa154 <__floatsisf>
    46e2:	ef 92       	push	r14
    46e4:	ff 92       	push	r15
    46e6:	0f 93       	push	r16
    46e8:	1f 93       	push	r17
    46ea:	af 92       	push	r10
    46ec:	bf 92       	push	r11
    46ee:	cf 92       	push	r12
    46f0:	df 92       	push	r13
    46f2:	9f 93       	push	r25
    46f4:	8f 93       	push	r24
    46f6:	7f 93       	push	r23
    46f8:	6f 93       	push	r22
    46fa:	ef 92       	push	r14
    46fc:	ff 92       	push	r15
    46fe:	0f 93       	push	r16
    4700:	1f 93       	push	r17
    4702:	af 92       	push	r10
    4704:	bf 92       	push	r11
    4706:	cf 92       	push	r12
    4708:	df 92       	push	r13
    470a:	a6 2e       	mov	r10, r22
    470c:	b7 2e       	mov	r11, r23
    470e:	c8 2e       	mov	r12, r24
    4710:	d9 2e       	mov	r13, r25
    4712:	e1 2c       	mov	r14, r1
    4714:	f1 2c       	mov	r15, r1
    4716:	8e 01       	movw	r16, r28
    4718:	20 91 36 01 	lds	r18, 0x0136
    471c:	30 91 37 01 	lds	r19, 0x0137
    4720:	40 91 38 01 	lds	r20, 0x0138
    4724:	50 91 39 01 	lds	r21, 0x0139
    4728:	60 91 3a 01 	lds	r22, 0x013A
    472c:	70 91 3b 01 	lds	r23, 0x013B
    4730:	80 91 3c 01 	lds	r24, 0x013C
    4734:	90 91 3d 01 	lds	r25, 0x013D
    4738:	0e 94 e6 0f 	call	0x1fcc	; 0x1fcc <CalcStraightPath>
    473c:	60 91 5a 01 	lds	r22, 0x015A
    4740:	70 91 5b 01 	lds	r23, 0x015B
    4744:	88 27       	eor	r24, r24
    4746:	77 fd       	sbrc	r23, 7
    4748:	80 95       	com	r24
    474a:	98 2f       	mov	r25, r24
    474c:	0e 94 aa 50 	call	0xa154	; 0xa154 <__floatsisf>
    4750:	16 2f       	mov	r17, r22
    4752:	07 2f       	mov	r16, r23
    4754:	f8 2e       	mov	r15, r24
    4756:	e9 2e       	mov	r14, r25
    4758:	60 91 5c 01 	lds	r22, 0x015C
    475c:	70 91 5d 01 	lds	r23, 0x015D
    4760:	71 95       	neg	r23
    4762:	61 95       	neg	r22
    4764:	71 09       	sbc	r23, r1
    4766:	88 27       	eor	r24, r24
    4768:	77 fd       	sbrc	r23, 7
    476a:	80 95       	com	r24
    476c:	98 2f       	mov	r25, r24
    476e:	0e 94 aa 50 	call	0xa154	; 0xa154 <__floatsisf>
    4772:	d6 2e       	mov	r13, r22
    4774:	c7 2e       	mov	r12, r23
    4776:	b8 2e       	mov	r11, r24
    4778:	a9 2e       	mov	r10, r25
    477a:	20 91 5e 01 	lds	r18, 0x015E
    477e:	30 91 5f 01 	lds	r19, 0x015F
    4782:	66 27       	eor	r22, r22
    4784:	77 27       	eor	r23, r23
    4786:	62 1b       	sub	r22, r18
    4788:	73 0b       	sbc	r23, r19
    478a:	88 27       	eor	r24, r24
    478c:	77 fd       	sbrc	r23, 7
    478e:	80 95       	com	r24
    4790:	98 2f       	mov	r25, r24
    4792:	0e 94 aa 50 	call	0xa154	; 0xa154 <__floatsisf>
    4796:	2d b7       	in	r18, 0x3d	; 61
    4798:	3e b7       	in	r19, 0x3e	; 62
    479a:	28 5d       	subi	r18, 0xD8	; 216
    479c:	3f 4f       	sbci	r19, 0xFF	; 255
    479e:	0f b6       	in	r0, 0x3f	; 63
    47a0:	f8 94       	cli
    47a2:	3e bf       	out	0x3e, r19	; 62
    47a4:	0f be       	out	0x3f, r0	; 63
    47a6:	2d bf       	out	0x3d, r18	; 61
    47a8:	ef 92       	push	r14
    47aa:	ff 92       	push	r15
    47ac:	0f 93       	push	r16
    47ae:	1f 93       	push	r17
    47b0:	af 92       	push	r10
    47b2:	bf 92       	push	r11
    47b4:	cf 92       	push	r12
    47b6:	df 92       	push	r13
    47b8:	9f 93       	push	r25
    47ba:	8f 93       	push	r24
    47bc:	7f 93       	push	r23
    47be:	6f 93       	push	r22
    47c0:	ef 92       	push	r14
    47c2:	ff 92       	push	r15
    47c4:	0f 93       	push	r16
    47c6:	1f 93       	push	r17
    47c8:	af 92       	push	r10
    47ca:	bf 92       	push	r11
    47cc:	cf 92       	push	r12
    47ce:	df 92       	push	r13
    47d0:	a6 2e       	mov	r10, r22
    47d2:	b7 2e       	mov	r11, r23
    47d4:	c8 2e       	mov	r12, r24
    47d6:	d9 2e       	mov	r13, r25
    47d8:	e1 2c       	mov	r14, r1
    47da:	f1 2c       	mov	r15, r1
    47dc:	8e 01       	movw	r16, r28
    47de:	20 91 2e 01 	lds	r18, 0x012E
    47e2:	30 91 2f 01 	lds	r19, 0x012F
    47e6:	40 91 30 01 	lds	r20, 0x0130
    47ea:	50 91 31 01 	lds	r21, 0x0131
    47ee:	60 91 32 01 	lds	r22, 0x0132
    47f2:	70 91 33 01 	lds	r23, 0x0133
    47f6:	80 91 34 01 	lds	r24, 0x0134
    47fa:	90 91 35 01 	lds	r25, 0x0135
    47fe:	0e 94 e6 0f 	call	0x1fcc	; 0x1fcc <CalcStraightPath>
    4802:	c0 90 5a 01 	lds	r12, 0x015A
    4806:	d0 90 5b 01 	lds	r13, 0x015B
    480a:	60 91 5c 01 	lds	r22, 0x015C
    480e:	70 91 5d 01 	lds	r23, 0x015D
    4812:	71 95       	neg	r23
    4814:	61 95       	neg	r22
    4816:	71 09       	sbc	r23, r1
    4818:	88 27       	eor	r24, r24
    481a:	77 fd       	sbrc	r23, 7
    481c:	80 95       	com	r24
    481e:	98 2f       	mov	r25, r24
    4820:	0e 94 aa 50 	call	0xa154	; 0xa154 <__floatsisf>
    4824:	f6 2e       	mov	r15, r22
    4826:	e7 2e       	mov	r14, r23
    4828:	98 2e       	mov	r9, r24
    482a:	89 2e       	mov	r8, r25
    482c:	60 91 5e 01 	lds	r22, 0x015E
    4830:	70 91 5f 01 	lds	r23, 0x015F
    4834:	88 27       	eor	r24, r24
    4836:	77 fd       	sbrc	r23, 7
    4838:	80 95       	com	r24
    483a:	98 2f       	mov	r25, r24
    483c:	0e 94 aa 50 	call	0xa154	; 0xa154 <__floatsisf>
    4840:	06 2f       	mov	r16, r22
    4842:	17 2f       	mov	r17, r23
    4844:	a8 2e       	mov	r10, r24
    4846:	b9 2e       	mov	r11, r25
    4848:	60 91 58 01 	lds	r22, 0x0158
    484c:	70 91 59 01 	lds	r23, 0x0159
    4850:	6c 0d       	add	r22, r12
    4852:	7d 1d       	adc	r23, r13
    4854:	88 27       	eor	r24, r24
    4856:	77 fd       	sbrc	r23, 7
    4858:	80 95       	com	r24
    485a:	98 2f       	mov	r25, r24
    485c:	0e 94 aa 50 	call	0xa154	; 0xa154 <__floatsisf>
    4860:	9f 93       	push	r25
    4862:	8f 93       	push	r24
    4864:	7f 93       	push	r23
    4866:	6f 93       	push	r22
    4868:	8f 92       	push	r8
    486a:	9f 92       	push	r9
    486c:	ef 92       	push	r14
    486e:	ff 92       	push	r15
    4870:	bf 92       	push	r11
    4872:	af 92       	push	r10
    4874:	1f 93       	push	r17
    4876:	0f 93       	push	r16
    4878:	b6 01       	movw	r22, r12
    487a:	88 27       	eor	r24, r24
    487c:	77 fd       	sbrc	r23, 7
    487e:	80 95       	com	r24
    4880:	98 2f       	mov	r25, r24
    4882:	0e 94 aa 50 	call	0xa154	; 0xa154 <__floatsisf>
    4886:	9f 93       	push	r25
    4888:	8f 93       	push	r24
    488a:	7f 93       	push	r23
    488c:	6f 93       	push	r22
    488e:	8f 92       	push	r8
    4890:	9f 92       	push	r9
    4892:	ef 92       	push	r14
    4894:	ff 92       	push	r15
    4896:	9a 2d       	mov	r25, r10
    4898:	8b 2d       	mov	r24, r11
    489a:	a0 2e       	mov	r10, r16
    489c:	b1 2e       	mov	r11, r17
    489e:	c9 2e       	mov	r12, r25
    48a0:	d8 2e       	mov	r13, r24
    48a2:	e1 2c       	mov	r14, r1
    48a4:	f1 2c       	mov	r15, r1
    48a6:	8e 01       	movw	r16, r28
    48a8:	20 91 26 01 	lds	r18, 0x0126
    48ac:	30 91 27 01 	lds	r19, 0x0127
    48b0:	40 91 28 01 	lds	r20, 0x0128
    48b4:	50 91 29 01 	lds	r21, 0x0129
    48b8:	60 91 2a 01 	lds	r22, 0x012A
    48bc:	70 91 2b 01 	lds	r23, 0x012B
    48c0:	80 91 2c 01 	lds	r24, 0x012C
    48c4:	90 91 2d 01 	lds	r25, 0x012D
    48c8:	0e 94 e6 0f 	call	0x1fcc	; 0x1fcc <CalcStraightPath>
    48cc:	10 92 81 01 	sts	0x0181, r1
    48d0:	10 92 80 01 	sts	0x0180, r1
    48d4:	81 e0       	ldi	r24, 0x01	; 1
    48d6:	90 e0       	ldi	r25, 0x00	; 0
    48d8:	90 93 23 01 	sts	0x0123, r25
    48dc:	80 93 22 01 	sts	0x0122, r24
    48e0:	8d b7       	in	r24, 0x3d	; 61
    48e2:	9e b7       	in	r25, 0x3e	; 62
    48e4:	88 96       	adiw	r24, 0x28	; 40
    48e6:	0f b6       	in	r0, 0x3f	; 63
    48e8:	f8 94       	cli
    48ea:	9e bf       	out	0x3e, r25	; 62
    48ec:	0f be       	out	0x3f, r0	; 63
    48ee:	8d bf       	out	0x3d, r24	; 61
    48f0:	df 91       	pop	r29
    48f2:	cf 91       	pop	r28
    48f4:	1f 91       	pop	r17
    48f6:	0f 91       	pop	r16
    48f8:	ff 90       	pop	r15
    48fa:	ef 90       	pop	r14
    48fc:	df 90       	pop	r13
    48fe:	cf 90       	pop	r12
    4900:	bf 90       	pop	r11
    4902:	af 90       	pop	r10
    4904:	9f 90       	pop	r9
    4906:	8f 90       	pop	r8
    4908:	08 95       	ret

0000490a <makeCreepGait>:
    490a:	2f 92       	push	r2
    490c:	3f 92       	push	r3
    490e:	4f 92       	push	r4
    4910:	5f 92       	push	r5
    4912:	6f 92       	push	r6
    4914:	7f 92       	push	r7
    4916:	8f 92       	push	r8
    4918:	9f 92       	push	r9
    491a:	af 92       	push	r10
    491c:	bf 92       	push	r11
    491e:	cf 92       	push	r12
    4920:	df 92       	push	r13
    4922:	ef 92       	push	r14
    4924:	ff 92       	push	r15
    4926:	0f 93       	push	r16
    4928:	1f 93       	push	r17
    492a:	cf 93       	push	r28
    492c:	df 93       	push	r29
    492e:	cd b7       	in	r28, 0x3d	; 61
    4930:	de b7       	in	r29, 0x3e	; 62
    4932:	2e 97       	sbiw	r28, 0x0e	; 14
    4934:	0f b6       	in	r0, 0x3f	; 63
    4936:	f8 94       	cli
    4938:	de bf       	out	0x3e, r29	; 62
    493a:	0f be       	out	0x3f, r0	; 63
    493c:	cd bf       	out	0x3d, r28	; 61
    493e:	9c 01       	movw	r18, r24
    4940:	99 23       	and	r25, r25
    4942:	14 f4       	brge	.+4      	; 0x4948 <makeCreepGait+0x3e>
    4944:	2d 5f       	subi	r18, 0xFD	; 253
    4946:	3f 4f       	sbci	r19, 0xFF	; 255
    4948:	a9 01       	movw	r20, r18
    494a:	55 95       	asr	r21
    494c:	47 95       	ror	r20
    494e:	55 95       	asr	r21
    4950:	47 95       	ror	r20
    4952:	5e 87       	std	Y+14, r21	; 0x0e
    4954:	4d 87       	std	Y+13, r20	; 0x0d
    4956:	01 97       	sbiw	r24, 0x01	; 1
    4958:	90 93 21 01 	sts	0x0121, r25
    495c:	80 93 20 01 	sts	0x0120, r24
    4960:	90 93 5c 14 	sts	0x145C, r25
    4964:	80 93 5b 14 	sts	0x145B, r24
    4968:	40 90 60 01 	lds	r4, 0x0160
    496c:	50 90 61 01 	lds	r5, 0x0161
    4970:	c2 01       	movw	r24, r4
    4972:	66 e0       	ldi	r22, 0x06	; 6
    4974:	70 e0       	ldi	r23, 0x00	; 0
    4976:	0e 94 62 52 	call	0xa4c4	; 0xa4c4 <__divmodhi4>
    497a:	cb 01       	movw	r24, r22
    497c:	aa 27       	eor	r26, r26
    497e:	97 fd       	sbrc	r25, 7
    4980:	a0 95       	com	r26
    4982:	ba 2f       	mov	r27, r26
    4984:	88 87       	std	Y+8, r24	; 0x08
    4986:	99 87       	std	Y+9, r25	; 0x09
    4988:	aa 87       	std	Y+10, r26	; 0x0a
    498a:	bb 87       	std	Y+11, r27	; 0x0b
    498c:	c2 01       	movw	r24, r4
    498e:	99 23       	and	r25, r25
    4990:	0c f4       	brge	.+2      	; 0x4994 <makeCreepGait+0x8a>
    4992:	01 96       	adiw	r24, 0x01	; 1
    4994:	2c 01       	movw	r4, r24
    4996:	55 94       	asr	r5
    4998:	47 94       	ror	r4
    499a:	66 24       	eor	r6, r6
    499c:	57 fc       	sbrc	r5, 7
    499e:	60 94       	com	r6
    49a0:	76 2c       	mov	r7, r6
    49a2:	80 91 98 01 	lds	r24, 0x0198
    49a6:	81 30       	cpi	r24, 0x01	; 1
    49a8:	09 f4       	brne	.+2      	; 0x49ac <makeCreepGait+0xa2>
    49aa:	5f c4       	rjmp	.+2238   	; 0x526a <makeCreepGait+0x960>
    49ac:	50 f0       	brcs	.+20     	; 0x49c2 <makeCreepGait+0xb8>
    49ae:	82 30       	cpi	r24, 0x02	; 2
    49b0:	11 f4       	brne	.+4      	; 0x49b6 <makeCreepGait+0xac>
    49b2:	0c 94 d3 2d 	jmp	0x5ba6	; 0x5ba6 <makeCreepGait+0x129c>
    49b6:	83 30       	cpi	r24, 0x03	; 3
    49b8:	11 f4       	brne	.+4      	; 0x49be <makeCreepGait+0xb4>
    49ba:	0c 94 26 32 	jmp	0x644c	; 0x644c <makeCreepGait+0x1b42>
    49be:	0c 94 c2 36 	jmp	0x6d84	; 0x6d84 <makeCreepGait+0x247a>
    49c2:	80 90 5c 01 	lds	r8, 0x015C
    49c6:	90 90 5d 01 	lds	r9, 0x015D
    49ca:	91 94       	neg	r9
    49cc:	81 94       	neg	r8
    49ce:	91 08       	sbc	r9, r1
    49d0:	aa 24       	eor	r10, r10
    49d2:	97 fc       	sbrc	r9, 7
    49d4:	a0 94       	com	r10
    49d6:	ba 2c       	mov	r11, r10
    49d8:	60 91 5a 01 	lds	r22, 0x015A
    49dc:	70 91 5b 01 	lds	r23, 0x015B
    49e0:	88 27       	eor	r24, r24
    49e2:	77 fd       	sbrc	r23, 7
    49e4:	80 95       	com	r24
    49e6:	98 2f       	mov	r25, r24
    49e8:	0e 94 aa 50 	call	0xa154	; 0xa154 <__floatsisf>
    49ec:	f6 2e       	mov	r15, r22
    49ee:	e7 2e       	mov	r14, r23
    49f0:	d8 2e       	mov	r13, r24
    49f2:	c9 2e       	mov	r12, r25
    49f4:	60 91 5e 01 	lds	r22, 0x015E
    49f8:	70 91 5f 01 	lds	r23, 0x015F
    49fc:	88 27       	eor	r24, r24
    49fe:	77 fd       	sbrc	r23, 7
    4a00:	80 95       	com	r24
    4a02:	98 2f       	mov	r25, r24
    4a04:	0e 94 aa 50 	call	0xa154	; 0xa154 <__floatsisf>
    4a08:	36 2e       	mov	r3, r22
    4a0a:	27 2e       	mov	r2, r23
    4a0c:	18 2f       	mov	r17, r24
    4a0e:	09 2f       	mov	r16, r25
    4a10:	cf 92       	push	r12
    4a12:	df 92       	push	r13
    4a14:	ef 92       	push	r14
    4a16:	ff 92       	push	r15
    4a18:	c5 01       	movw	r24, r10
    4a1a:	b4 01       	movw	r22, r8
    4a1c:	64 0d       	add	r22, r4
    4a1e:	75 1d       	adc	r23, r5
    4a20:	86 1d       	adc	r24, r6
    4a22:	97 1d       	adc	r25, r7
    4a24:	0e 94 aa 50 	call	0xa154	; 0xa154 <__floatsisf>
    4a28:	9f 93       	push	r25
    4a2a:	8f 93       	push	r24
    4a2c:	7f 93       	push	r23
    4a2e:	6f 93       	push	r22
    4a30:	0f 93       	push	r16
    4a32:	1f 93       	push	r17
    4a34:	2f 92       	push	r2
    4a36:	3f 92       	push	r3
    4a38:	cf 92       	push	r12
    4a3a:	df 92       	push	r13
    4a3c:	ef 92       	push	r14
    4a3e:	ff 92       	push	r15
    4a40:	c5 01       	movw	r24, r10
    4a42:	b4 01       	movw	r22, r8
    4a44:	64 19       	sub	r22, r4
    4a46:	75 09       	sbc	r23, r5
    4a48:	86 09       	sbc	r24, r6
    4a4a:	97 09       	sbc	r25, r7
    4a4c:	0e 94 aa 50 	call	0xa154	; 0xa154 <__floatsisf>
    4a50:	9f 93       	push	r25
    4a52:	8f 93       	push	r24
    4a54:	7f 93       	push	r23
    4a56:	6f 93       	push	r22
    4a58:	a3 2c       	mov	r10, r3
    4a5a:	b2 2c       	mov	r11, r2
    4a5c:	c1 2e       	mov	r12, r17
    4a5e:	d0 2e       	mov	r13, r16
    4a60:	e1 2c       	mov	r14, r1
    4a62:	f1 2c       	mov	r15, r1
    4a64:	0d 85       	ldd	r16, Y+13	; 0x0d
    4a66:	1e 85       	ldd	r17, Y+14	; 0x0e
    4a68:	20 91 26 01 	lds	r18, 0x0126
    4a6c:	30 91 27 01 	lds	r19, 0x0127
    4a70:	40 91 28 01 	lds	r20, 0x0128
    4a74:	50 91 29 01 	lds	r21, 0x0129
    4a78:	60 91 2a 01 	lds	r22, 0x012A
    4a7c:	70 91 2b 01 	lds	r23, 0x012B
    4a80:	80 91 2c 01 	lds	r24, 0x012C
    4a84:	90 91 2d 01 	lds	r25, 0x012D
    4a88:	0e 94 6b 13 	call	0x26d6	; 0x26d6 <CalcCurvedPath>
    4a8c:	c0 90 5c 01 	lds	r12, 0x015C
    4a90:	d0 90 5d 01 	lds	r13, 0x015D
    4a94:	d1 94       	neg	r13
    4a96:	c1 94       	neg	r12
    4a98:	d1 08       	sbc	r13, r1
    4a9a:	ee 24       	eor	r14, r14
    4a9c:	d7 fc       	sbrc	r13, 7
    4a9e:	e0 94       	com	r14
    4aa0:	fe 2c       	mov	r15, r14
    4aa2:	60 91 5a 01 	lds	r22, 0x015A
    4aa6:	70 91 5b 01 	lds	r23, 0x015B
    4aaa:	88 27       	eor	r24, r24
    4aac:	77 fd       	sbrc	r23, 7
    4aae:	80 95       	com	r24
    4ab0:	98 2f       	mov	r25, r24
    4ab2:	0e 94 aa 50 	call	0xa154	; 0xa154 <__floatsisf>
    4ab6:	a6 2e       	mov	r10, r22
    4ab8:	b7 2e       	mov	r11, r23
    4aba:	08 2f       	mov	r16, r24
    4abc:	19 2f       	mov	r17, r25
    4abe:	60 91 5e 01 	lds	r22, 0x015E
    4ac2:	70 91 5f 01 	lds	r23, 0x015F
    4ac6:	88 27       	eor	r24, r24
    4ac8:	77 fd       	sbrc	r23, 7
    4aca:	80 95       	com	r24
    4acc:	98 2f       	mov	r25, r24
    4ace:	0e 94 aa 50 	call	0xa154	; 0xa154 <__floatsisf>
    4ad2:	69 83       	std	Y+1, r22	; 0x01
    4ad4:	7d 83       	std	Y+5, r23	; 0x05
    4ad6:	8e 83       	std	Y+6, r24	; 0x06
    4ad8:	9f 83       	std	Y+7, r25	; 0x07
    4ada:	8d 84       	ldd	r8, Y+13	; 0x0d
    4adc:	9e 84       	ldd	r9, Y+14	; 0x0e
    4ade:	88 0c       	add	r8, r8
    4ae0:	99 1c       	adc	r9, r9
    4ae2:	2d 84       	ldd	r2, Y+13	; 0x0d
    4ae4:	3e 84       	ldd	r3, Y+14	; 0x0e
    4ae6:	28 0c       	add	r2, r8
    4ae8:	39 1c       	adc	r3, r9
    4aea:	1f 93       	push	r17
    4aec:	0f 93       	push	r16
    4aee:	bf 92       	push	r11
    4af0:	af 92       	push	r10
    4af2:	c7 01       	movw	r24, r14
    4af4:	b6 01       	movw	r22, r12
    4af6:	64 19       	sub	r22, r4
    4af8:	75 09       	sbc	r23, r5
    4afa:	86 09       	sbc	r24, r6
    4afc:	97 09       	sbc	r25, r7
    4afe:	0e 94 aa 50 	call	0xa154	; 0xa154 <__floatsisf>
    4b02:	9f 93       	push	r25
    4b04:	8f 93       	push	r24
    4b06:	7f 93       	push	r23
    4b08:	6f 93       	push	r22
    4b0a:	9f 81       	ldd	r25, Y+7	; 0x07
    4b0c:	9f 93       	push	r25
    4b0e:	ae 81       	ldd	r26, Y+6	; 0x06
    4b10:	af 93       	push	r26
    4b12:	bd 81       	ldd	r27, Y+5	; 0x05
    4b14:	bf 93       	push	r27
    4b16:	e9 81       	ldd	r30, Y+1	; 0x01
    4b18:	ef 93       	push	r30
    4b1a:	1f 93       	push	r17
    4b1c:	0f 93       	push	r16
    4b1e:	bf 92       	push	r11
    4b20:	af 92       	push	r10
    4b22:	c3 01       	movw	r24, r6
    4b24:	b2 01       	movw	r22, r4
    4b26:	6c 0d       	add	r22, r12
    4b28:	7d 1d       	adc	r23, r13
    4b2a:	8e 1d       	adc	r24, r14
    4b2c:	9f 1d       	adc	r25, r15
    4b2e:	0e 94 aa 50 	call	0xa154	; 0xa154 <__floatsisf>
    4b32:	9f 93       	push	r25
    4b34:	8f 93       	push	r24
    4b36:	7f 93       	push	r23
    4b38:	6f 93       	push	r22
    4b3a:	39 81       	ldd	r19, Y+1	; 0x01
    4b3c:	2d 81       	ldd	r18, Y+5	; 0x05
    4b3e:	9e 81       	ldd	r25, Y+6	; 0x06
    4b40:	8f 81       	ldd	r24, Y+7	; 0x07
    4b42:	a3 2e       	mov	r10, r19
    4b44:	b2 2e       	mov	r11, r18
    4b46:	c9 2e       	mov	r12, r25
    4b48:	d8 2e       	mov	r13, r24
    4b4a:	ed 84       	ldd	r14, Y+13	; 0x0d
    4b4c:	fe 84       	ldd	r15, Y+14	; 0x0e
    4b4e:	81 01       	movw	r16, r2
    4b50:	20 91 26 01 	lds	r18, 0x0126
    4b54:	30 91 27 01 	lds	r19, 0x0127
    4b58:	40 91 28 01 	lds	r20, 0x0128
    4b5c:	50 91 29 01 	lds	r21, 0x0129
    4b60:	60 91 2a 01 	lds	r22, 0x012A
    4b64:	70 91 2b 01 	lds	r23, 0x012B
    4b68:	80 91 2c 01 	lds	r24, 0x012C
    4b6c:	90 91 2d 01 	lds	r25, 0x012D
    4b70:	0e 94 e6 0f 	call	0x1fcc	; 0x1fcc <CalcStraightPath>
    4b74:	c0 90 5c 01 	lds	r12, 0x015C
    4b78:	d0 90 5d 01 	lds	r13, 0x015D
    4b7c:	ee 24       	eor	r14, r14
    4b7e:	d7 fc       	sbrc	r13, 7
    4b80:	e0 94       	com	r14
    4b82:	fe 2c       	mov	r15, r14
    4b84:	60 91 5a 01 	lds	r22, 0x015A
    4b88:	70 91 5b 01 	lds	r23, 0x015B
    4b8c:	88 27       	eor	r24, r24
    4b8e:	77 fd       	sbrc	r23, 7
    4b90:	80 95       	com	r24
    4b92:	98 2f       	mov	r25, r24
    4b94:	0e 94 aa 50 	call	0xa154	; 0xa154 <__floatsisf>
    4b98:	a6 2e       	mov	r10, r22
    4b9a:	b7 2e       	mov	r11, r23
    4b9c:	08 2f       	mov	r16, r24
    4b9e:	19 2f       	mov	r17, r25
    4ba0:	60 91 5e 01 	lds	r22, 0x015E
    4ba4:	70 91 5f 01 	lds	r23, 0x015F
    4ba8:	88 27       	eor	r24, r24
    4baa:	77 fd       	sbrc	r23, 7
    4bac:	80 95       	com	r24
    4bae:	98 2f       	mov	r25, r24
    4bb0:	0e 94 aa 50 	call	0xa154	; 0xa154 <__floatsisf>
    4bb4:	69 83       	std	Y+1, r22	; 0x01
    4bb6:	7d 83       	std	Y+5, r23	; 0x05
    4bb8:	8e 83       	std	Y+6, r24	; 0x06
    4bba:	9f 83       	std	Y+7, r25	; 0x07
    4bbc:	0f b6       	in	r0, 0x3f	; 63
    4bbe:	f8 94       	cli
    4bc0:	de bf       	out	0x3e, r29	; 62
    4bc2:	0f be       	out	0x3f, r0	; 63
    4bc4:	cd bf       	out	0x3d, r28	; 61
    4bc6:	1f 93       	push	r17
    4bc8:	0f 93       	push	r16
    4bca:	bf 92       	push	r11
    4bcc:	af 92       	push	r10
    4bce:	c7 01       	movw	r24, r14
    4bd0:	b6 01       	movw	r22, r12
    4bd2:	64 19       	sub	r22, r4
    4bd4:	75 09       	sbc	r23, r5
    4bd6:	86 09       	sbc	r24, r6
    4bd8:	97 09       	sbc	r25, r7
    4bda:	0e 94 aa 50 	call	0xa154	; 0xa154 <__floatsisf>
    4bde:	9f 93       	push	r25
    4be0:	8f 93       	push	r24
    4be2:	7f 93       	push	r23
    4be4:	6f 93       	push	r22
    4be6:	3f 81       	ldd	r19, Y+7	; 0x07
    4be8:	3f 93       	push	r19
    4bea:	4e 81       	ldd	r20, Y+6	; 0x06
    4bec:	4f 93       	push	r20
    4bee:	5d 81       	ldd	r21, Y+5	; 0x05
    4bf0:	5f 93       	push	r21
    4bf2:	89 81       	ldd	r24, Y+1	; 0x01
    4bf4:	8f 93       	push	r24
    4bf6:	1f 93       	push	r17
    4bf8:	0f 93       	push	r16
    4bfa:	bf 92       	push	r11
    4bfc:	af 92       	push	r10
    4bfe:	c7 01       	movw	r24, r14
    4c00:	b6 01       	movw	r22, r12
    4c02:	28 85       	ldd	r18, Y+8	; 0x08
    4c04:	39 85       	ldd	r19, Y+9	; 0x09
    4c06:	4a 85       	ldd	r20, Y+10	; 0x0a
    4c08:	5b 85       	ldd	r21, Y+11	; 0x0b
    4c0a:	62 1b       	sub	r22, r18
    4c0c:	73 0b       	sbc	r23, r19
    4c0e:	84 0b       	sbc	r24, r20
    4c10:	95 0b       	sbc	r25, r21
    4c12:	0e 94 aa 50 	call	0xa154	; 0xa154 <__floatsisf>
    4c16:	9f 93       	push	r25
    4c18:	8f 93       	push	r24
    4c1a:	7f 93       	push	r23
    4c1c:	6f 93       	push	r22
    4c1e:	39 81       	ldd	r19, Y+1	; 0x01
    4c20:	2d 81       	ldd	r18, Y+5	; 0x05
    4c22:	9e 81       	ldd	r25, Y+6	; 0x06
    4c24:	8f 81       	ldd	r24, Y+7	; 0x07
    4c26:	a3 2e       	mov	r10, r19
    4c28:	b2 2e       	mov	r11, r18
    4c2a:	c9 2e       	mov	r12, r25
    4c2c:	d8 2e       	mov	r13, r24
    4c2e:	e1 2c       	mov	r14, r1
    4c30:	f1 2c       	mov	r15, r1
    4c32:	0d 85       	ldd	r16, Y+13	; 0x0d
    4c34:	1e 85       	ldd	r17, Y+14	; 0x0e
    4c36:	20 91 36 01 	lds	r18, 0x0136
    4c3a:	30 91 37 01 	lds	r19, 0x0137
    4c3e:	40 91 38 01 	lds	r20, 0x0138
    4c42:	50 91 39 01 	lds	r21, 0x0139
    4c46:	60 91 3a 01 	lds	r22, 0x013A
    4c4a:	70 91 3b 01 	lds	r23, 0x013B
    4c4e:	80 91 3c 01 	lds	r24, 0x013C
    4c52:	90 91 3d 01 	lds	r25, 0x013D
    4c56:	0e 94 e6 0f 	call	0x1fcc	; 0x1fcc <CalcStraightPath>
    4c5a:	c0 90 5c 01 	lds	r12, 0x015C
    4c5e:	d0 90 5d 01 	lds	r13, 0x015D
    4c62:	ee 24       	eor	r14, r14
    4c64:	d7 fc       	sbrc	r13, 7
    4c66:	e0 94       	com	r14
    4c68:	fe 2c       	mov	r15, r14
    4c6a:	60 91 5a 01 	lds	r22, 0x015A
    4c6e:	70 91 5b 01 	lds	r23, 0x015B
    4c72:	88 27       	eor	r24, r24
    4c74:	77 fd       	sbrc	r23, 7
    4c76:	80 95       	com	r24
    4c78:	98 2f       	mov	r25, r24
    4c7a:	0e 94 aa 50 	call	0xa154	; 0xa154 <__floatsisf>
    4c7e:	a6 2e       	mov	r10, r22
    4c80:	b7 2e       	mov	r11, r23
    4c82:	08 2f       	mov	r16, r24
    4c84:	19 2f       	mov	r17, r25
    4c86:	60 91 5e 01 	lds	r22, 0x015E
    4c8a:	70 91 5f 01 	lds	r23, 0x015F
    4c8e:	88 27       	eor	r24, r24
    4c90:	77 fd       	sbrc	r23, 7
    4c92:	80 95       	com	r24
    4c94:	98 2f       	mov	r25, r24
    4c96:	0e 94 aa 50 	call	0xa154	; 0xa154 <__floatsisf>
    4c9a:	69 83       	std	Y+1, r22	; 0x01
    4c9c:	7d 83       	std	Y+5, r23	; 0x05
    4c9e:	8e 83       	std	Y+6, r24	; 0x06
    4ca0:	9f 83       	std	Y+7, r25	; 0x07
    4ca2:	1f 93       	push	r17
    4ca4:	0f 93       	push	r16
    4ca6:	bf 92       	push	r11
    4ca8:	af 92       	push	r10
    4caa:	c7 01       	movw	r24, r14
    4cac:	b6 01       	movw	r22, r12
    4cae:	64 0d       	add	r22, r4
    4cb0:	75 1d       	adc	r23, r5
    4cb2:	86 1d       	adc	r24, r6
    4cb4:	97 1d       	adc	r25, r7
    4cb6:	0e 94 aa 50 	call	0xa154	; 0xa154 <__floatsisf>
    4cba:	9f 93       	push	r25
    4cbc:	8f 93       	push	r24
    4cbe:	7f 93       	push	r23
    4cc0:	6f 93       	push	r22
    4cc2:	3f 81       	ldd	r19, Y+7	; 0x07
    4cc4:	3f 93       	push	r19
    4cc6:	4e 81       	ldd	r20, Y+6	; 0x06
    4cc8:	4f 93       	push	r20
    4cca:	5d 81       	ldd	r21, Y+5	; 0x05
    4ccc:	5f 93       	push	r21
    4cce:	89 81       	ldd	r24, Y+1	; 0x01
    4cd0:	8f 93       	push	r24
    4cd2:	1f 93       	push	r17
    4cd4:	0f 93       	push	r16
    4cd6:	bf 92       	push	r11
    4cd8:	af 92       	push	r10
    4cda:	c7 01       	movw	r24, r14
    4cdc:	b6 01       	movw	r22, r12
    4cde:	64 19       	sub	r22, r4
    4ce0:	75 09       	sbc	r23, r5
    4ce2:	86 09       	sbc	r24, r6
    4ce4:	97 09       	sbc	r25, r7
    4ce6:	0e 94 aa 50 	call	0xa154	; 0xa154 <__floatsisf>
    4cea:	9f 93       	push	r25
    4cec:	8f 93       	push	r24
    4cee:	7f 93       	push	r23
    4cf0:	6f 93       	push	r22
    4cf2:	39 81       	ldd	r19, Y+1	; 0x01
    4cf4:	2d 81       	ldd	r18, Y+5	; 0x05
    4cf6:	9e 81       	ldd	r25, Y+6	; 0x06
    4cf8:	8f 81       	ldd	r24, Y+7	; 0x07
    4cfa:	a3 2e       	mov	r10, r19
    4cfc:	b2 2e       	mov	r11, r18
    4cfe:	c9 2e       	mov	r12, r25
    4d00:	d8 2e       	mov	r13, r24
    4d02:	ed 84       	ldd	r14, Y+13	; 0x0d
    4d04:	fe 84       	ldd	r15, Y+14	; 0x0e
    4d06:	87 01       	movw	r16, r14
    4d08:	20 91 36 01 	lds	r18, 0x0136
    4d0c:	30 91 37 01 	lds	r19, 0x0137
    4d10:	40 91 38 01 	lds	r20, 0x0138
    4d14:	50 91 39 01 	lds	r21, 0x0139
    4d18:	60 91 3a 01 	lds	r22, 0x013A
    4d1c:	70 91 3b 01 	lds	r23, 0x013B
    4d20:	80 91 3c 01 	lds	r24, 0x013C
    4d24:	90 91 3d 01 	lds	r25, 0x013D
    4d28:	0e 94 6b 13 	call	0x26d6	; 0x26d6 <CalcCurvedPath>
    4d2c:	c0 90 5c 01 	lds	r12, 0x015C
    4d30:	d0 90 5d 01 	lds	r13, 0x015D
    4d34:	ee 24       	eor	r14, r14
    4d36:	d7 fc       	sbrc	r13, 7
    4d38:	e0 94       	com	r14
    4d3a:	fe 2c       	mov	r15, r14
    4d3c:	60 91 5a 01 	lds	r22, 0x015A
    4d40:	70 91 5b 01 	lds	r23, 0x015B
    4d44:	88 27       	eor	r24, r24
    4d46:	77 fd       	sbrc	r23, 7
    4d48:	80 95       	com	r24
    4d4a:	98 2f       	mov	r25, r24
    4d4c:	0e 94 aa 50 	call	0xa154	; 0xa154 <__floatsisf>
    4d50:	a6 2e       	mov	r10, r22
    4d52:	b7 2e       	mov	r11, r23
    4d54:	08 2f       	mov	r16, r24
    4d56:	19 2f       	mov	r17, r25
    4d58:	60 91 5e 01 	lds	r22, 0x015E
    4d5c:	70 91 5f 01 	lds	r23, 0x015F
    4d60:	88 27       	eor	r24, r24
    4d62:	77 fd       	sbrc	r23, 7
    4d64:	80 95       	com	r24
    4d66:	98 2f       	mov	r25, r24
    4d68:	0e 94 aa 50 	call	0xa154	; 0xa154 <__floatsisf>
    4d6c:	69 83       	std	Y+1, r22	; 0x01
    4d6e:	7d 83       	std	Y+5, r23	; 0x05
    4d70:	8e 83       	std	Y+6, r24	; 0x06
    4d72:	9f 83       	std	Y+7, r25	; 0x07
    4d74:	0f b6       	in	r0, 0x3f	; 63
    4d76:	f8 94       	cli
    4d78:	de bf       	out	0x3e, r29	; 62
    4d7a:	0f be       	out	0x3f, r0	; 63
    4d7c:	cd bf       	out	0x3d, r28	; 61
    4d7e:	1f 93       	push	r17
    4d80:	0f 93       	push	r16
    4d82:	bf 92       	push	r11
    4d84:	af 92       	push	r10
    4d86:	c7 01       	movw	r24, r14
    4d88:	b6 01       	movw	r22, r12
    4d8a:	28 85       	ldd	r18, Y+8	; 0x08
    4d8c:	39 85       	ldd	r19, Y+9	; 0x09
    4d8e:	4a 85       	ldd	r20, Y+10	; 0x0a
    4d90:	5b 85       	ldd	r21, Y+11	; 0x0b
    4d92:	62 1b       	sub	r22, r18
    4d94:	73 0b       	sbc	r23, r19
    4d96:	84 0b       	sbc	r24, r20
    4d98:	95 0b       	sbc	r25, r21
    4d9a:	0e 94 aa 50 	call	0xa154	; 0xa154 <__floatsisf>
    4d9e:	9f 93       	push	r25
    4da0:	8f 93       	push	r24
    4da2:	7f 93       	push	r23
    4da4:	6f 93       	push	r22
    4da6:	3f 81       	ldd	r19, Y+7	; 0x07
    4da8:	3f 93       	push	r19
    4daa:	4e 81       	ldd	r20, Y+6	; 0x06
    4dac:	4f 93       	push	r20
    4dae:	5d 81       	ldd	r21, Y+5	; 0x05
    4db0:	5f 93       	push	r21
    4db2:	89 81       	ldd	r24, Y+1	; 0x01
    4db4:	8f 93       	push	r24
    4db6:	1f 93       	push	r17
    4db8:	0f 93       	push	r16
    4dba:	bf 92       	push	r11
    4dbc:	af 92       	push	r10
    4dbe:	c3 01       	movw	r24, r6
    4dc0:	b2 01       	movw	r22, r4
    4dc2:	6c 0d       	add	r22, r12
    4dc4:	7d 1d       	adc	r23, r13
    4dc6:	8e 1d       	adc	r24, r14
    4dc8:	9f 1d       	adc	r25, r15
    4dca:	0e 94 aa 50 	call	0xa154	; 0xa154 <__floatsisf>
    4dce:	9f 93       	push	r25
    4dd0:	8f 93       	push	r24
    4dd2:	7f 93       	push	r23
    4dd4:	6f 93       	push	r22
    4dd6:	39 81       	ldd	r19, Y+1	; 0x01
    4dd8:	2d 81       	ldd	r18, Y+5	; 0x05
    4dda:	9e 81       	ldd	r25, Y+6	; 0x06
    4ddc:	8f 81       	ldd	r24, Y+7	; 0x07
    4dde:	a3 2e       	mov	r10, r19
    4de0:	b2 2e       	mov	r11, r18
    4de2:	c9 2e       	mov	r12, r25
    4de4:	d8 2e       	mov	r13, r24
    4de6:	74 01       	movw	r14, r8
    4de8:	84 01       	movw	r16, r8
    4dea:	20 91 36 01 	lds	r18, 0x0136
    4dee:	30 91 37 01 	lds	r19, 0x0137
    4df2:	40 91 38 01 	lds	r20, 0x0138
    4df6:	50 91 39 01 	lds	r21, 0x0139
    4dfa:	60 91 3a 01 	lds	r22, 0x013A
    4dfe:	70 91 3b 01 	lds	r23, 0x013B
    4e02:	80 91 3c 01 	lds	r24, 0x013C
    4e06:	90 91 3d 01 	lds	r25, 0x013D
    4e0a:	0e 94 e6 0f 	call	0x1fcc	; 0x1fcc <CalcStraightPath>
    4e0e:	c0 90 5c 01 	lds	r12, 0x015C
    4e12:	d0 90 5d 01 	lds	r13, 0x015D
    4e16:	d1 94       	neg	r13
    4e18:	c1 94       	neg	r12
    4e1a:	d1 08       	sbc	r13, r1
    4e1c:	ee 24       	eor	r14, r14
    4e1e:	d7 fc       	sbrc	r13, 7
    4e20:	e0 94       	com	r14
    4e22:	fe 2c       	mov	r15, r14
    4e24:	60 91 5a 01 	lds	r22, 0x015A
    4e28:	70 91 5b 01 	lds	r23, 0x015B
    4e2c:	88 27       	eor	r24, r24
    4e2e:	77 fd       	sbrc	r23, 7
    4e30:	80 95       	com	r24
    4e32:	98 2f       	mov	r25, r24
    4e34:	0e 94 aa 50 	call	0xa154	; 0xa154 <__floatsisf>
    4e38:	a6 2e       	mov	r10, r22
    4e3a:	b7 2e       	mov	r11, r23
    4e3c:	08 2f       	mov	r16, r24
    4e3e:	19 2f       	mov	r17, r25
    4e40:	60 91 5e 01 	lds	r22, 0x015E
    4e44:	70 91 5f 01 	lds	r23, 0x015F
    4e48:	71 95       	neg	r23
    4e4a:	61 95       	neg	r22
    4e4c:	71 09       	sbc	r23, r1
    4e4e:	88 27       	eor	r24, r24
    4e50:	77 fd       	sbrc	r23, 7
    4e52:	80 95       	com	r24
    4e54:	98 2f       	mov	r25, r24
    4e56:	0e 94 aa 50 	call	0xa154	; 0xa154 <__floatsisf>
    4e5a:	69 83       	std	Y+1, r22	; 0x01
    4e5c:	7d 83       	std	Y+5, r23	; 0x05
    4e5e:	8e 83       	std	Y+6, r24	; 0x06
    4e60:	9f 83       	std	Y+7, r25	; 0x07
    4e62:	1f 93       	push	r17
    4e64:	0f 93       	push	r16
    4e66:	bf 92       	push	r11
    4e68:	af 92       	push	r10
    4e6a:	c7 01       	movw	r24, r14
    4e6c:	b6 01       	movw	r22, r12
    4e6e:	64 19       	sub	r22, r4
    4e70:	75 09       	sbc	r23, r5
    4e72:	86 09       	sbc	r24, r6
    4e74:	97 09       	sbc	r25, r7
    4e76:	0e 94 aa 50 	call	0xa154	; 0xa154 <__floatsisf>
    4e7a:	9f 93       	push	r25
    4e7c:	8f 93       	push	r24
    4e7e:	7f 93       	push	r23
    4e80:	6f 93       	push	r22
    4e82:	9f 81       	ldd	r25, Y+7	; 0x07
    4e84:	9f 93       	push	r25
    4e86:	ae 81       	ldd	r26, Y+6	; 0x06
    4e88:	af 93       	push	r26
    4e8a:	bd 81       	ldd	r27, Y+5	; 0x05
    4e8c:	bf 93       	push	r27
    4e8e:	e9 81       	ldd	r30, Y+1	; 0x01
    4e90:	ef 93       	push	r30
    4e92:	1f 93       	push	r17
    4e94:	0f 93       	push	r16
    4e96:	bf 92       	push	r11
    4e98:	af 92       	push	r10
    4e9a:	68 85       	ldd	r22, Y+8	; 0x08
    4e9c:	79 85       	ldd	r23, Y+9	; 0x09
    4e9e:	8a 85       	ldd	r24, Y+10	; 0x0a
    4ea0:	9b 85       	ldd	r25, Y+11	; 0x0b
    4ea2:	6c 0d       	add	r22, r12
    4ea4:	7d 1d       	adc	r23, r13
    4ea6:	8e 1d       	adc	r24, r14
    4ea8:	9f 1d       	adc	r25, r15
    4eaa:	0e 94 aa 50 	call	0xa154	; 0xa154 <__floatsisf>
    4eae:	9f 93       	push	r25
    4eb0:	8f 93       	push	r24
    4eb2:	7f 93       	push	r23
    4eb4:	6f 93       	push	r22
    4eb6:	39 81       	ldd	r19, Y+1	; 0x01
    4eb8:	2d 81       	ldd	r18, Y+5	; 0x05
    4eba:	9e 81       	ldd	r25, Y+6	; 0x06
    4ebc:	8f 81       	ldd	r24, Y+7	; 0x07
    4ebe:	a3 2e       	mov	r10, r19
    4ec0:	b2 2e       	mov	r11, r18
    4ec2:	c9 2e       	mov	r12, r25
    4ec4:	d8 2e       	mov	r13, r24
    4ec6:	e1 2c       	mov	r14, r1
    4ec8:	f1 2c       	mov	r15, r1
    4eca:	84 01       	movw	r16, r8
    4ecc:	20 91 2e 01 	lds	r18, 0x012E
    4ed0:	30 91 2f 01 	lds	r19, 0x012F
    4ed4:	40 91 30 01 	lds	r20, 0x0130
    4ed8:	50 91 31 01 	lds	r21, 0x0131
    4edc:	60 91 32 01 	lds	r22, 0x0132
    4ee0:	70 91 33 01 	lds	r23, 0x0133
    4ee4:	80 91 34 01 	lds	r24, 0x0134
    4ee8:	90 91 35 01 	lds	r25, 0x0135
    4eec:	0e 94 e6 0f 	call	0x1fcc	; 0x1fcc <CalcStraightPath>
    4ef0:	c0 90 5c 01 	lds	r12, 0x015C
    4ef4:	d0 90 5d 01 	lds	r13, 0x015D
    4ef8:	d1 94       	neg	r13
    4efa:	c1 94       	neg	r12
    4efc:	d1 08       	sbc	r13, r1
    4efe:	ee 24       	eor	r14, r14
    4f00:	d7 fc       	sbrc	r13, 7
    4f02:	e0 94       	com	r14
    4f04:	fe 2c       	mov	r15, r14
    4f06:	60 91 5a 01 	lds	r22, 0x015A
    4f0a:	70 91 5b 01 	lds	r23, 0x015B
    4f0e:	88 27       	eor	r24, r24
    4f10:	77 fd       	sbrc	r23, 7
    4f12:	80 95       	com	r24
    4f14:	98 2f       	mov	r25, r24
    4f16:	0e 94 aa 50 	call	0xa154	; 0xa154 <__floatsisf>
    4f1a:	a6 2e       	mov	r10, r22
    4f1c:	b7 2e       	mov	r11, r23
    4f1e:	08 2f       	mov	r16, r24
    4f20:	19 2f       	mov	r17, r25
    4f22:	60 91 5e 01 	lds	r22, 0x015E
    4f26:	70 91 5f 01 	lds	r23, 0x015F
    4f2a:	71 95       	neg	r23
    4f2c:	61 95       	neg	r22
    4f2e:	71 09       	sbc	r23, r1
    4f30:	88 27       	eor	r24, r24
    4f32:	77 fd       	sbrc	r23, 7
    4f34:	80 95       	com	r24
    4f36:	98 2f       	mov	r25, r24
    4f38:	0e 94 aa 50 	call	0xa154	; 0xa154 <__floatsisf>
    4f3c:	69 83       	std	Y+1, r22	; 0x01
    4f3e:	7d 83       	std	Y+5, r23	; 0x05
    4f40:	8e 83       	std	Y+6, r24	; 0x06
    4f42:	9f 83       	std	Y+7, r25	; 0x07
    4f44:	0f b6       	in	r0, 0x3f	; 63
    4f46:	f8 94       	cli
    4f48:	de bf       	out	0x3e, r29	; 62
    4f4a:	0f be       	out	0x3f, r0	; 63
    4f4c:	cd bf       	out	0x3d, r28	; 61
    4f4e:	1f 93       	push	r17
    4f50:	0f 93       	push	r16
    4f52:	bf 92       	push	r11
    4f54:	af 92       	push	r10
    4f56:	c7 01       	movw	r24, r14
    4f58:	b6 01       	movw	r22, r12
    4f5a:	64 0d       	add	r22, r4
    4f5c:	75 1d       	adc	r23, r5
    4f5e:	86 1d       	adc	r24, r6
    4f60:	97 1d       	adc	r25, r7
    4f62:	0e 94 aa 50 	call	0xa154	; 0xa154 <__floatsisf>
    4f66:	9f 93       	push	r25
    4f68:	8f 93       	push	r24
    4f6a:	7f 93       	push	r23
    4f6c:	6f 93       	push	r22
    4f6e:	3f 81       	ldd	r19, Y+7	; 0x07
    4f70:	3f 93       	push	r19
    4f72:	4e 81       	ldd	r20, Y+6	; 0x06
    4f74:	4f 93       	push	r20
    4f76:	5d 81       	ldd	r21, Y+5	; 0x05
    4f78:	5f 93       	push	r21
    4f7a:	89 81       	ldd	r24, Y+1	; 0x01
    4f7c:	8f 93       	push	r24
    4f7e:	1f 93       	push	r17
    4f80:	0f 93       	push	r16
    4f82:	bf 92       	push	r11
    4f84:	af 92       	push	r10
    4f86:	c7 01       	movw	r24, r14
    4f88:	b6 01       	movw	r22, r12
    4f8a:	64 19       	sub	r22, r4
    4f8c:	75 09       	sbc	r23, r5
    4f8e:	86 09       	sbc	r24, r6
    4f90:	97 09       	sbc	r25, r7
    4f92:	0e 94 aa 50 	call	0xa154	; 0xa154 <__floatsisf>
    4f96:	9f 93       	push	r25
    4f98:	8f 93       	push	r24
    4f9a:	7f 93       	push	r23
    4f9c:	6f 93       	push	r22
    4f9e:	39 81       	ldd	r19, Y+1	; 0x01
    4fa0:	2d 81       	ldd	r18, Y+5	; 0x05
    4fa2:	9e 81       	ldd	r25, Y+6	; 0x06
    4fa4:	8f 81       	ldd	r24, Y+7	; 0x07
    4fa6:	a3 2e       	mov	r10, r19
    4fa8:	b2 2e       	mov	r11, r18
    4faa:	c9 2e       	mov	r12, r25
    4fac:	d8 2e       	mov	r13, r24
    4fae:	74 01       	movw	r14, r8
    4fb0:	0d 85       	ldd	r16, Y+13	; 0x0d
    4fb2:	1e 85       	ldd	r17, Y+14	; 0x0e
    4fb4:	20 91 2e 01 	lds	r18, 0x012E
    4fb8:	30 91 2f 01 	lds	r19, 0x012F
    4fbc:	40 91 30 01 	lds	r20, 0x0130
    4fc0:	50 91 31 01 	lds	r21, 0x0131
    4fc4:	60 91 32 01 	lds	r22, 0x0132
    4fc8:	70 91 33 01 	lds	r23, 0x0133
    4fcc:	80 91 34 01 	lds	r24, 0x0134
    4fd0:	90 91 35 01 	lds	r25, 0x0135
    4fd4:	0e 94 6b 13 	call	0x26d6	; 0x26d6 <CalcCurvedPath>
    4fd8:	c0 90 5c 01 	lds	r12, 0x015C
    4fdc:	d0 90 5d 01 	lds	r13, 0x015D
    4fe0:	d1 94       	neg	r13
    4fe2:	c1 94       	neg	r12
    4fe4:	d1 08       	sbc	r13, r1
    4fe6:	ee 24       	eor	r14, r14
    4fe8:	d7 fc       	sbrc	r13, 7
    4fea:	e0 94       	com	r14
    4fec:	fe 2c       	mov	r15, r14
    4fee:	60 91 5a 01 	lds	r22, 0x015A
    4ff2:	70 91 5b 01 	lds	r23, 0x015B
    4ff6:	88 27       	eor	r24, r24
    4ff8:	77 fd       	sbrc	r23, 7
    4ffa:	80 95       	com	r24
    4ffc:	98 2f       	mov	r25, r24
    4ffe:	0e 94 aa 50 	call	0xa154	; 0xa154 <__floatsisf>
    5002:	a6 2e       	mov	r10, r22
    5004:	b7 2e       	mov	r11, r23
    5006:	18 2f       	mov	r17, r24
    5008:	09 2f       	mov	r16, r25
    500a:	60 91 5e 01 	lds	r22, 0x015E
    500e:	70 91 5f 01 	lds	r23, 0x015F
    5012:	71 95       	neg	r23
    5014:	61 95       	neg	r22
    5016:	71 09       	sbc	r23, r1
    5018:	88 27       	eor	r24, r24
    501a:	77 fd       	sbrc	r23, 7
    501c:	80 95       	com	r24
    501e:	98 2f       	mov	r25, r24
    5020:	0e 94 aa 50 	call	0xa154	; 0xa154 <__floatsisf>
    5024:	96 2e       	mov	r9, r22
    5026:	87 2e       	mov	r8, r23
    5028:	89 83       	std	Y+1, r24	; 0x01
    502a:	9d 83       	std	Y+5, r25	; 0x05
    502c:	0f 93       	push	r16
    502e:	1f 93       	push	r17
    5030:	bf 92       	push	r11
    5032:	af 92       	push	r10
    5034:	68 85       	ldd	r22, Y+8	; 0x08
    5036:	79 85       	ldd	r23, Y+9	; 0x09
    5038:	8a 85       	ldd	r24, Y+10	; 0x0a
    503a:	9b 85       	ldd	r25, Y+11	; 0x0b
    503c:	6c 0d       	add	r22, r12
    503e:	7d 1d       	adc	r23, r13
    5040:	8e 1d       	adc	r24, r14
    5042:	9f 1d       	adc	r25, r15
    5044:	0e 94 aa 50 	call	0xa154	; 0xa154 <__floatsisf>
    5048:	9f 93       	push	r25
    504a:	8f 93       	push	r24
    504c:	7f 93       	push	r23
    504e:	6f 93       	push	r22
    5050:	9d 81       	ldd	r25, Y+5	; 0x05
    5052:	9f 93       	push	r25
    5054:	a9 81       	ldd	r26, Y+1	; 0x01
    5056:	af 93       	push	r26
    5058:	8f 92       	push	r8
    505a:	9f 92       	push	r9
    505c:	0f 93       	push	r16
    505e:	1f 93       	push	r17
    5060:	bf 92       	push	r11
    5062:	af 92       	push	r10
    5064:	c3 01       	movw	r24, r6
    5066:	b2 01       	movw	r22, r4
    5068:	6c 0d       	add	r22, r12
    506a:	7d 1d       	adc	r23, r13
    506c:	8e 1d       	adc	r24, r14
    506e:	9f 1d       	adc	r25, r15
    5070:	0e 94 aa 50 	call	0xa154	; 0xa154 <__floatsisf>
    5074:	9f 93       	push	r25
    5076:	8f 93       	push	r24
    5078:	7f 93       	push	r23
    507a:	6f 93       	push	r22
    507c:	99 81       	ldd	r25, Y+1	; 0x01
    507e:	8d 81       	ldd	r24, Y+5	; 0x05
    5080:	a9 2c       	mov	r10, r9
    5082:	b8 2c       	mov	r11, r8
    5084:	c9 2e       	mov	r12, r25
    5086:	d8 2e       	mov	r13, r24
    5088:	71 01       	movw	r14, r2
    508a:	0d 85       	ldd	r16, Y+13	; 0x0d
    508c:	1e 85       	ldd	r17, Y+14	; 0x0e
    508e:	20 91 2e 01 	lds	r18, 0x012E
    5092:	30 91 2f 01 	lds	r19, 0x012F
    5096:	40 91 30 01 	lds	r20, 0x0130
    509a:	50 91 31 01 	lds	r21, 0x0131
    509e:	60 91 32 01 	lds	r22, 0x0132
    50a2:	70 91 33 01 	lds	r23, 0x0133
    50a6:	80 91 34 01 	lds	r24, 0x0134
    50aa:	90 91 35 01 	lds	r25, 0x0135
    50ae:	0e 94 e6 0f 	call	0x1fcc	; 0x1fcc <CalcStraightPath>
    50b2:	c0 90 5c 01 	lds	r12, 0x015C
    50b6:	d0 90 5d 01 	lds	r13, 0x015D
    50ba:	ee 24       	eor	r14, r14
    50bc:	d7 fc       	sbrc	r13, 7
    50be:	e0 94       	com	r14
    50c0:	fe 2c       	mov	r15, r14
    50c2:	60 91 5a 01 	lds	r22, 0x015A
    50c6:	70 91 5b 01 	lds	r23, 0x015B
    50ca:	88 27       	eor	r24, r24
    50cc:	77 fd       	sbrc	r23, 7
    50ce:	80 95       	com	r24
    50d0:	98 2f       	mov	r25, r24
    50d2:	0e 94 aa 50 	call	0xa154	; 0xa154 <__floatsisf>
    50d6:	b6 2e       	mov	r11, r22
    50d8:	a7 2e       	mov	r10, r23
    50da:	98 2e       	mov	r9, r24
    50dc:	89 2e       	mov	r8, r25
    50de:	60 91 5e 01 	lds	r22, 0x015E
    50e2:	70 91 5f 01 	lds	r23, 0x015F
    50e6:	71 95       	neg	r23
    50e8:	61 95       	neg	r22
    50ea:	71 09       	sbc	r23, r1
    50ec:	88 27       	eor	r24, r24
    50ee:	77 fd       	sbrc	r23, 7
    50f0:	80 95       	com	r24
    50f2:	98 2f       	mov	r25, r24
    50f4:	0e 94 aa 50 	call	0xa154	; 0xa154 <__floatsisf>
    50f8:	06 2f       	mov	r16, r22
    50fa:	17 2f       	mov	r17, r23
    50fc:	88 87       	std	Y+8, r24	; 0x08
    50fe:	99 83       	std	Y+1, r25	; 0x01
    5100:	0f b6       	in	r0, 0x3f	; 63
    5102:	f8 94       	cli
    5104:	de bf       	out	0x3e, r29	; 62
    5106:	0f be       	out	0x3f, r0	; 63
    5108:	cd bf       	out	0x3d, r28	; 61
    510a:	8f 92       	push	r8
    510c:	9f 92       	push	r9
    510e:	af 92       	push	r10
    5110:	bf 92       	push	r11
    5112:	c7 01       	movw	r24, r14
    5114:	b6 01       	movw	r22, r12
    5116:	64 19       	sub	r22, r4
    5118:	75 09       	sbc	r23, r5
    511a:	86 09       	sbc	r24, r6
    511c:	97 09       	sbc	r25, r7
    511e:	0e 94 aa 50 	call	0xa154	; 0xa154 <__floatsisf>
    5122:	9f 93       	push	r25
    5124:	8f 93       	push	r24
    5126:	7f 93       	push	r23
    5128:	6f 93       	push	r22
    512a:	f9 81       	ldd	r31, Y+1	; 0x01
    512c:	ff 93       	push	r31
    512e:	28 85       	ldd	r18, Y+8	; 0x08
    5130:	2f 93       	push	r18
    5132:	1f 93       	push	r17
    5134:	0f 93       	push	r16
    5136:	8f 92       	push	r8
    5138:	9f 92       	push	r9
    513a:	af 92       	push	r10
    513c:	bf 92       	push	r11
    513e:	c3 01       	movw	r24, r6
    5140:	b2 01       	movw	r22, r4
    5142:	6c 0d       	add	r22, r12
    5144:	7d 1d       	adc	r23, r13
    5146:	8e 1d       	adc	r24, r14
    5148:	9f 1d       	adc	r25, r15
    514a:	0e 94 aa 50 	call	0xa154	; 0xa154 <__floatsisf>
    514e:	9f 93       	push	r25
    5150:	8f 93       	push	r24
    5152:	7f 93       	push	r23
    5154:	6f 93       	push	r22
    5156:	98 85       	ldd	r25, Y+8	; 0x08
    5158:	89 81       	ldd	r24, Y+1	; 0x01
    515a:	a0 2e       	mov	r10, r16
    515c:	b1 2e       	mov	r11, r17
    515e:	c9 2e       	mov	r12, r25
    5160:	d8 2e       	mov	r13, r24
    5162:	e1 2c       	mov	r14, r1
    5164:	f1 2c       	mov	r15, r1
    5166:	81 01       	movw	r16, r2
    5168:	20 91 3e 01 	lds	r18, 0x013E
    516c:	30 91 3f 01 	lds	r19, 0x013F
    5170:	40 91 40 01 	lds	r20, 0x0140
    5174:	50 91 41 01 	lds	r21, 0x0141
    5178:	60 91 42 01 	lds	r22, 0x0142
    517c:	70 91 43 01 	lds	r23, 0x0143
    5180:	80 91 44 01 	lds	r24, 0x0144
    5184:	90 91 45 01 	lds	r25, 0x0145
    5188:	0e 94 e6 0f 	call	0x1fcc	; 0x1fcc <CalcStraightPath>
    518c:	c0 90 5c 01 	lds	r12, 0x015C
    5190:	d0 90 5d 01 	lds	r13, 0x015D
    5194:	ee 24       	eor	r14, r14
    5196:	d7 fc       	sbrc	r13, 7
    5198:	e0 94       	com	r14
    519a:	fe 2c       	mov	r15, r14
    519c:	60 91 5a 01 	lds	r22, 0x015A
    51a0:	70 91 5b 01 	lds	r23, 0x015B
    51a4:	88 27       	eor	r24, r24
    51a6:	77 fd       	sbrc	r23, 7
    51a8:	80 95       	com	r24
    51aa:	98 2f       	mov	r25, r24
    51ac:	0e 94 aa 50 	call	0xa154	; 0xa154 <__floatsisf>
    51b0:	b6 2e       	mov	r11, r22
    51b2:	a7 2e       	mov	r10, r23
    51b4:	98 2e       	mov	r9, r24
    51b6:	89 2e       	mov	r8, r25
    51b8:	60 91 5e 01 	lds	r22, 0x015E
    51bc:	70 91 5f 01 	lds	r23, 0x015F
    51c0:	71 95       	neg	r23
    51c2:	61 95       	neg	r22
    51c4:	71 09       	sbc	r23, r1
    51c6:	88 27       	eor	r24, r24
    51c8:	77 fd       	sbrc	r23, 7
    51ca:	80 95       	com	r24
    51cc:	98 2f       	mov	r25, r24
    51ce:	0e 94 aa 50 	call	0xa154	; 0xa154 <__floatsisf>
    51d2:	06 2f       	mov	r16, r22
    51d4:	17 2f       	mov	r17, r23
    51d6:	88 87       	std	Y+8, r24	; 0x08
    51d8:	99 83       	std	Y+1, r25	; 0x01
    51da:	8f 92       	push	r8
    51dc:	9f 92       	push	r9
    51de:	af 92       	push	r10
    51e0:	bf 92       	push	r11
    51e2:	c7 01       	movw	r24, r14
    51e4:	b6 01       	movw	r22, r12
    51e6:	64 0d       	add	r22, r4
    51e8:	75 1d       	adc	r23, r5
    51ea:	86 1d       	adc	r24, r6
    51ec:	97 1d       	adc	r25, r7
    51ee:	0e 94 aa 50 	call	0xa154	; 0xa154 <__floatsisf>
    51f2:	9f 93       	push	r25
    51f4:	8f 93       	push	r24
    51f6:	7f 93       	push	r23
    51f8:	6f 93       	push	r22
    51fa:	39 81       	ldd	r19, Y+1	; 0x01
    51fc:	3f 93       	push	r19
    51fe:	48 85       	ldd	r20, Y+8	; 0x08
    5200:	4f 93       	push	r20
    5202:	1f 93       	push	r17
    5204:	0f 93       	push	r16
    5206:	8f 92       	push	r8
    5208:	9f 92       	push	r9
    520a:	af 92       	push	r10
    520c:	bf 92       	push	r11
    520e:	c7 01       	movw	r24, r14
    5210:	b6 01       	movw	r22, r12
    5212:	64 19       	sub	r22, r4
    5214:	75 09       	sbc	r23, r5
    5216:	86 09       	sbc	r24, r6
    5218:	97 09       	sbc	r25, r7
    521a:	0e 94 aa 50 	call	0xa154	; 0xa154 <__floatsisf>
    521e:	9f 93       	push	r25
    5220:	8f 93       	push	r24
    5222:	7f 93       	push	r23
    5224:	6f 93       	push	r22
    5226:	98 85       	ldd	r25, Y+8	; 0x08
    5228:	89 81       	ldd	r24, Y+1	; 0x01
    522a:	a0 2e       	mov	r10, r16
    522c:	b1 2e       	mov	r11, r17
    522e:	c9 2e       	mov	r12, r25
    5230:	d8 2e       	mov	r13, r24
    5232:	71 01       	movw	r14, r2
    5234:	0d 85       	ldd	r16, Y+13	; 0x0d
    5236:	1e 85       	ldd	r17, Y+14	; 0x0e
    5238:	20 91 3e 01 	lds	r18, 0x013E
    523c:	30 91 3f 01 	lds	r19, 0x013F
    5240:	40 91 40 01 	lds	r20, 0x0140
    5244:	50 91 41 01 	lds	r21, 0x0141
    5248:	60 91 42 01 	lds	r22, 0x0142
    524c:	70 91 43 01 	lds	r23, 0x0143
    5250:	80 91 44 01 	lds	r24, 0x0144
    5254:	90 91 45 01 	lds	r25, 0x0145
    5258:	0e 94 6b 13 	call	0x26d6	; 0x26d6 <CalcCurvedPath>
    525c:	0f b6       	in	r0, 0x3f	; 63
    525e:	f8 94       	cli
    5260:	de bf       	out	0x3e, r29	; 62
    5262:	0f be       	out	0x3f, r0	; 63
    5264:	cd bf       	out	0x3d, r28	; 61
    5266:	0c 94 c2 36 	jmp	0x6d84	; 0x6d84 <makeCreepGait+0x247a>
    526a:	80 91 5e 01 	lds	r24, 0x015E
    526e:	90 91 5f 01 	lds	r25, 0x015F
    5272:	91 95       	neg	r25
    5274:	81 95       	neg	r24
    5276:	91 09       	sbc	r25, r1
    5278:	9c 01       	movw	r18, r24
    527a:	44 27       	eor	r20, r20
    527c:	37 fd       	sbrc	r19, 7
    527e:	40 95       	com	r20
    5280:	54 2f       	mov	r21, r20
    5282:	29 83       	std	Y+1, r18	; 0x01
    5284:	3a 83       	std	Y+2, r19	; 0x02
    5286:	4b 83       	std	Y+3, r20	; 0x03
    5288:	5c 83       	std	Y+4, r21	; 0x04
    528a:	60 91 5a 01 	lds	r22, 0x015A
    528e:	70 91 5b 01 	lds	r23, 0x015B
    5292:	88 27       	eor	r24, r24
    5294:	77 fd       	sbrc	r23, 7
    5296:	80 95       	com	r24
    5298:	98 2f       	mov	r25, r24
    529a:	0e 94 aa 50 	call	0xa154	; 0xa154 <__floatsisf>
    529e:	e6 2e       	mov	r14, r22
    52a0:	17 2f       	mov	r17, r23
    52a2:	08 2f       	mov	r16, r24
    52a4:	f9 2e       	mov	r15, r25
    52a6:	60 91 5c 01 	lds	r22, 0x015C
    52aa:	70 91 5d 01 	lds	r23, 0x015D
    52ae:	71 95       	neg	r23
    52b0:	61 95       	neg	r22
    52b2:	71 09       	sbc	r23, r1
    52b4:	88 27       	eor	r24, r24
    52b6:	77 fd       	sbrc	r23, 7
    52b8:	80 95       	com	r24
    52ba:	98 2f       	mov	r25, r24
    52bc:	0e 94 aa 50 	call	0xa154	; 0xa154 <__floatsisf>
    52c0:	26 2e       	mov	r2, r22
    52c2:	37 2e       	mov	r3, r23
    52c4:	88 2e       	mov	r8, r24
    52c6:	99 2e       	mov	r9, r25
    52c8:	69 81       	ldd	r22, Y+1	; 0x01
    52ca:	7a 81       	ldd	r23, Y+2	; 0x02
    52cc:	8b 81       	ldd	r24, Y+3	; 0x03
    52ce:	9c 81       	ldd	r25, Y+4	; 0x04
    52d0:	64 19       	sub	r22, r4
    52d2:	75 09       	sbc	r23, r5
    52d4:	86 09       	sbc	r24, r6
    52d6:	97 09       	sbc	r25, r7
    52d8:	0e 94 aa 50 	call	0xa154	; 0xa154 <__floatsisf>
    52dc:	5b 01       	movw	r10, r22
    52de:	6c 01       	movw	r12, r24
    52e0:	ff 92       	push	r15
    52e2:	0f 93       	push	r16
    52e4:	1f 93       	push	r17
    52e6:	ef 92       	push	r14
    52e8:	9f 92       	push	r9
    52ea:	8f 92       	push	r8
    52ec:	3f 92       	push	r3
    52ee:	2f 92       	push	r2
    52f0:	69 81       	ldd	r22, Y+1	; 0x01
    52f2:	7a 81       	ldd	r23, Y+2	; 0x02
    52f4:	8b 81       	ldd	r24, Y+3	; 0x03
    52f6:	9c 81       	ldd	r25, Y+4	; 0x04
    52f8:	64 0d       	add	r22, r4
    52fa:	75 1d       	adc	r23, r5
    52fc:	86 1d       	adc	r24, r6
    52fe:	97 1d       	adc	r25, r7
    5300:	0e 94 aa 50 	call	0xa154	; 0xa154 <__floatsisf>
    5304:	9f 93       	push	r25
    5306:	8f 93       	push	r24
    5308:	7f 93       	push	r23
    530a:	6f 93       	push	r22
    530c:	ff 92       	push	r15
    530e:	0f 93       	push	r16
    5310:	1f 93       	push	r17
    5312:	ef 92       	push	r14
    5314:	9f 92       	push	r9
    5316:	8f 92       	push	r8
    5318:	3f 92       	push	r3
    531a:	2f 92       	push	r2
    531c:	e1 2c       	mov	r14, r1
    531e:	f1 2c       	mov	r15, r1
    5320:	0d 85       	ldd	r16, Y+13	; 0x0d
    5322:	1e 85       	ldd	r17, Y+14	; 0x0e
    5324:	20 91 2e 01 	lds	r18, 0x012E
    5328:	30 91 2f 01 	lds	r19, 0x012F
    532c:	40 91 30 01 	lds	r20, 0x0130
    5330:	50 91 31 01 	lds	r21, 0x0131
    5334:	60 91 32 01 	lds	r22, 0x0132
    5338:	70 91 33 01 	lds	r23, 0x0133
    533c:	80 91 34 01 	lds	r24, 0x0134
    5340:	90 91 35 01 	lds	r25, 0x0135
    5344:	0e 94 6b 13 	call	0x26d6	; 0x26d6 <CalcCurvedPath>
    5348:	80 91 5e 01 	lds	r24, 0x015E
    534c:	90 91 5f 01 	lds	r25, 0x015F
    5350:	91 95       	neg	r25
    5352:	81 95       	neg	r24
    5354:	91 09       	sbc	r25, r1
    5356:	9c 01       	movw	r18, r24
    5358:	44 27       	eor	r20, r20
    535a:	37 fd       	sbrc	r19, 7
    535c:	40 95       	com	r20
    535e:	54 2f       	mov	r21, r20
    5360:	29 83       	std	Y+1, r18	; 0x01
    5362:	3a 83       	std	Y+2, r19	; 0x02
    5364:	4b 83       	std	Y+3, r20	; 0x03
    5366:	5c 83       	std	Y+4, r21	; 0x04
    5368:	60 91 5a 01 	lds	r22, 0x015A
    536c:	70 91 5b 01 	lds	r23, 0x015B
    5370:	88 27       	eor	r24, r24
    5372:	77 fd       	sbrc	r23, 7
    5374:	80 95       	com	r24
    5376:	98 2f       	mov	r25, r24
    5378:	0e 94 aa 50 	call	0xa154	; 0xa154 <__floatsisf>
    537c:	e6 2e       	mov	r14, r22
    537e:	f7 2e       	mov	r15, r23
    5380:	08 2f       	mov	r16, r24
    5382:	19 2f       	mov	r17, r25
    5384:	60 91 5c 01 	lds	r22, 0x015C
    5388:	70 91 5d 01 	lds	r23, 0x015D
    538c:	71 95       	neg	r23
    538e:	61 95       	neg	r22
    5390:	71 09       	sbc	r23, r1
    5392:	88 27       	eor	r24, r24
    5394:	77 fd       	sbrc	r23, 7
    5396:	80 95       	com	r24
    5398:	98 2f       	mov	r25, r24
    539a:	0e 94 aa 50 	call	0xa154	; 0xa154 <__floatsisf>
    539e:	6d 83       	std	Y+5, r22	; 0x05
    53a0:	7e 83       	std	Y+6, r23	; 0x06
    53a2:	8f 83       	std	Y+7, r24	; 0x07
    53a4:	9c 87       	std	Y+12, r25	; 0x0c
    53a6:	8d 84       	ldd	r8, Y+13	; 0x0d
    53a8:	9e 84       	ldd	r9, Y+14	; 0x0e
    53aa:	88 0c       	add	r8, r8
    53ac:	99 1c       	adc	r9, r9
    53ae:	2d 84       	ldd	r2, Y+13	; 0x0d
    53b0:	3e 84       	ldd	r3, Y+14	; 0x0e
    53b2:	28 0c       	add	r2, r8
    53b4:	39 1c       	adc	r3, r9
    53b6:	69 81       	ldd	r22, Y+1	; 0x01
    53b8:	7a 81       	ldd	r23, Y+2	; 0x02
    53ba:	8b 81       	ldd	r24, Y+3	; 0x03
    53bc:	9c 81       	ldd	r25, Y+4	; 0x04
    53be:	64 0d       	add	r22, r4
    53c0:	75 1d       	adc	r23, r5
    53c2:	86 1d       	adc	r24, r6
    53c4:	97 1d       	adc	r25, r7
    53c6:	0e 94 aa 50 	call	0xa154	; 0xa154 <__floatsisf>
    53ca:	5b 01       	movw	r10, r22
    53cc:	6c 01       	movw	r12, r24
    53ce:	1f 93       	push	r17
    53d0:	0f 93       	push	r16
    53d2:	ff 92       	push	r15
    53d4:	ef 92       	push	r14
    53d6:	3c 85       	ldd	r19, Y+12	; 0x0c
    53d8:	3f 93       	push	r19
    53da:	4f 81       	ldd	r20, Y+7	; 0x07
    53dc:	4f 93       	push	r20
    53de:	5e 81       	ldd	r21, Y+6	; 0x06
    53e0:	5f 93       	push	r21
    53e2:	8d 81       	ldd	r24, Y+5	; 0x05
    53e4:	8f 93       	push	r24
    53e6:	69 81       	ldd	r22, Y+1	; 0x01
    53e8:	7a 81       	ldd	r23, Y+2	; 0x02
    53ea:	8b 81       	ldd	r24, Y+3	; 0x03
    53ec:	9c 81       	ldd	r25, Y+4	; 0x04
    53ee:	64 19       	sub	r22, r4
    53f0:	75 09       	sbc	r23, r5
    53f2:	86 09       	sbc	r24, r6
    53f4:	97 09       	sbc	r25, r7
    53f6:	0e 94 aa 50 	call	0xa154	; 0xa154 <__floatsisf>
    53fa:	9f 93       	push	r25
    53fc:	8f 93       	push	r24
    53fe:	7f 93       	push	r23
    5400:	6f 93       	push	r22
    5402:	1f 93       	push	r17
    5404:	0f 93       	push	r16
    5406:	ff 92       	push	r15
    5408:	ef 92       	push	r14
    540a:	9c 85       	ldd	r25, Y+12	; 0x0c
    540c:	9f 93       	push	r25
    540e:	af 81       	ldd	r26, Y+7	; 0x07
    5410:	af 93       	push	r26
    5412:	be 81       	ldd	r27, Y+6	; 0x06
    5414:	bf 93       	push	r27
    5416:	ed 81       	ldd	r30, Y+5	; 0x05
    5418:	ef 93       	push	r30
    541a:	ed 84       	ldd	r14, Y+13	; 0x0d
    541c:	fe 84       	ldd	r15, Y+14	; 0x0e
    541e:	81 01       	movw	r16, r2
    5420:	20 91 2e 01 	lds	r18, 0x012E
    5424:	30 91 2f 01 	lds	r19, 0x012F
    5428:	40 91 30 01 	lds	r20, 0x0130
    542c:	50 91 31 01 	lds	r21, 0x0131
    5430:	60 91 32 01 	lds	r22, 0x0132
    5434:	70 91 33 01 	lds	r23, 0x0133
    5438:	80 91 34 01 	lds	r24, 0x0134
    543c:	90 91 35 01 	lds	r25, 0x0135
    5440:	0e 94 e6 0f 	call	0x1fcc	; 0x1fcc <CalcStraightPath>
    5444:	80 91 5e 01 	lds	r24, 0x015E
    5448:	90 91 5f 01 	lds	r25, 0x015F
    544c:	9c 01       	movw	r18, r24
    544e:	44 27       	eor	r20, r20
    5450:	37 fd       	sbrc	r19, 7
    5452:	40 95       	com	r20
    5454:	54 2f       	mov	r21, r20
    5456:	29 83       	std	Y+1, r18	; 0x01
    5458:	3a 83       	std	Y+2, r19	; 0x02
    545a:	4b 83       	std	Y+3, r20	; 0x03
    545c:	5c 83       	std	Y+4, r21	; 0x04
    545e:	60 91 5a 01 	lds	r22, 0x015A
    5462:	70 91 5b 01 	lds	r23, 0x015B
    5466:	88 27       	eor	r24, r24
    5468:	77 fd       	sbrc	r23, 7
    546a:	80 95       	com	r24
    546c:	98 2f       	mov	r25, r24
    546e:	0e 94 aa 50 	call	0xa154	; 0xa154 <__floatsisf>
    5472:	e6 2e       	mov	r14, r22
    5474:	f7 2e       	mov	r15, r23
    5476:	08 2f       	mov	r16, r24
    5478:	19 2f       	mov	r17, r25
    547a:	60 91 5c 01 	lds	r22, 0x015C
    547e:	70 91 5d 01 	lds	r23, 0x015D
    5482:	71 95       	neg	r23
    5484:	61 95       	neg	r22
    5486:	71 09       	sbc	r23, r1
    5488:	88 27       	eor	r24, r24
    548a:	77 fd       	sbrc	r23, 7
    548c:	80 95       	com	r24
    548e:	98 2f       	mov	r25, r24
    5490:	0e 94 aa 50 	call	0xa154	; 0xa154 <__floatsisf>
    5494:	6d 83       	std	Y+5, r22	; 0x05
    5496:	7e 83       	std	Y+6, r23	; 0x06
    5498:	8f 83       	std	Y+7, r24	; 0x07
    549a:	9c 87       	std	Y+12, r25	; 0x0c
    549c:	0f b6       	in	r0, 0x3f	; 63
    549e:	f8 94       	cli
    54a0:	de bf       	out	0x3e, r29	; 62
    54a2:	0f be       	out	0x3f, r0	; 63
    54a4:	cd bf       	out	0x3d, r28	; 61
    54a6:	69 81       	ldd	r22, Y+1	; 0x01
    54a8:	7a 81       	ldd	r23, Y+2	; 0x02
    54aa:	8b 81       	ldd	r24, Y+3	; 0x03
    54ac:	9c 81       	ldd	r25, Y+4	; 0x04
    54ae:	28 85       	ldd	r18, Y+8	; 0x08
    54b0:	39 85       	ldd	r19, Y+9	; 0x09
    54b2:	4a 85       	ldd	r20, Y+10	; 0x0a
    54b4:	5b 85       	ldd	r21, Y+11	; 0x0b
    54b6:	62 1b       	sub	r22, r18
    54b8:	73 0b       	sbc	r23, r19
    54ba:	84 0b       	sbc	r24, r20
    54bc:	95 0b       	sbc	r25, r21
    54be:	0e 94 aa 50 	call	0xa154	; 0xa154 <__floatsisf>
    54c2:	5b 01       	movw	r10, r22
    54c4:	6c 01       	movw	r12, r24
    54c6:	1f 93       	push	r17
    54c8:	0f 93       	push	r16
    54ca:	ff 92       	push	r15
    54cc:	ef 92       	push	r14
    54ce:	3c 85       	ldd	r19, Y+12	; 0x0c
    54d0:	3f 93       	push	r19
    54d2:	4f 81       	ldd	r20, Y+7	; 0x07
    54d4:	4f 93       	push	r20
    54d6:	5e 81       	ldd	r21, Y+6	; 0x06
    54d8:	5f 93       	push	r21
    54da:	8d 81       	ldd	r24, Y+5	; 0x05
    54dc:	8f 93       	push	r24
    54de:	69 81       	ldd	r22, Y+1	; 0x01
    54e0:	7a 81       	ldd	r23, Y+2	; 0x02
    54e2:	8b 81       	ldd	r24, Y+3	; 0x03
    54e4:	9c 81       	ldd	r25, Y+4	; 0x04
    54e6:	64 19       	sub	r22, r4
    54e8:	75 09       	sbc	r23, r5
    54ea:	86 09       	sbc	r24, r6
    54ec:	97 09       	sbc	r25, r7
    54ee:	0e 94 aa 50 	call	0xa154	; 0xa154 <__floatsisf>
    54f2:	9f 93       	push	r25
    54f4:	8f 93       	push	r24
    54f6:	7f 93       	push	r23
    54f8:	6f 93       	push	r22
    54fa:	1f 93       	push	r17
    54fc:	0f 93       	push	r16
    54fe:	ff 92       	push	r15
    5500:	ef 92       	push	r14
    5502:	9c 85       	ldd	r25, Y+12	; 0x0c
    5504:	9f 93       	push	r25
    5506:	af 81       	ldd	r26, Y+7	; 0x07
    5508:	af 93       	push	r26
    550a:	be 81       	ldd	r27, Y+6	; 0x06
    550c:	bf 93       	push	r27
    550e:	ed 81       	ldd	r30, Y+5	; 0x05
    5510:	ef 93       	push	r30
    5512:	e1 2c       	mov	r14, r1
    5514:	f1 2c       	mov	r15, r1
    5516:	0d 85       	ldd	r16, Y+13	; 0x0d
    5518:	1e 85       	ldd	r17, Y+14	; 0x0e
    551a:	20 91 26 01 	lds	r18, 0x0126
    551e:	30 91 27 01 	lds	r19, 0x0127
    5522:	40 91 28 01 	lds	r20, 0x0128
    5526:	50 91 29 01 	lds	r21, 0x0129
    552a:	60 91 2a 01 	lds	r22, 0x012A
    552e:	70 91 2b 01 	lds	r23, 0x012B
    5532:	80 91 2c 01 	lds	r24, 0x012C
    5536:	90 91 2d 01 	lds	r25, 0x012D
    553a:	0e 94 e6 0f 	call	0x1fcc	; 0x1fcc <CalcStraightPath>
    553e:	80 91 5e 01 	lds	r24, 0x015E
    5542:	90 91 5f 01 	lds	r25, 0x015F
    5546:	9c 01       	movw	r18, r24
    5548:	44 27       	eor	r20, r20
    554a:	37 fd       	sbrc	r19, 7
    554c:	40 95       	com	r20
    554e:	54 2f       	mov	r21, r20
    5550:	29 83       	std	Y+1, r18	; 0x01
    5552:	3a 83       	std	Y+2, r19	; 0x02
    5554:	4b 83       	std	Y+3, r20	; 0x03
    5556:	5c 83       	std	Y+4, r21	; 0x04
    5558:	60 91 5a 01 	lds	r22, 0x015A
    555c:	70 91 5b 01 	lds	r23, 0x015B
    5560:	88 27       	eor	r24, r24
    5562:	77 fd       	sbrc	r23, 7
    5564:	80 95       	com	r24
    5566:	98 2f       	mov	r25, r24
    5568:	0e 94 aa 50 	call	0xa154	; 0xa154 <__floatsisf>
    556c:	e6 2e       	mov	r14, r22
    556e:	f7 2e       	mov	r15, r23
    5570:	08 2f       	mov	r16, r24
    5572:	19 2f       	mov	r17, r25
    5574:	60 91 5c 01 	lds	r22, 0x015C
    5578:	70 91 5d 01 	lds	r23, 0x015D
    557c:	71 95       	neg	r23
    557e:	61 95       	neg	r22
    5580:	71 09       	sbc	r23, r1
    5582:	88 27       	eor	r24, r24
    5584:	77 fd       	sbrc	r23, 7
    5586:	80 95       	com	r24
    5588:	98 2f       	mov	r25, r24
    558a:	0e 94 aa 50 	call	0xa154	; 0xa154 <__floatsisf>
    558e:	6d 83       	std	Y+5, r22	; 0x05
    5590:	7e 83       	std	Y+6, r23	; 0x06
    5592:	8f 83       	std	Y+7, r24	; 0x07
    5594:	9c 87       	std	Y+12, r25	; 0x0c
    5596:	69 81       	ldd	r22, Y+1	; 0x01
    5598:	7a 81       	ldd	r23, Y+2	; 0x02
    559a:	8b 81       	ldd	r24, Y+3	; 0x03
    559c:	9c 81       	ldd	r25, Y+4	; 0x04
    559e:	64 19       	sub	r22, r4
    55a0:	75 09       	sbc	r23, r5
    55a2:	86 09       	sbc	r24, r6
    55a4:	97 09       	sbc	r25, r7
    55a6:	0e 94 aa 50 	call	0xa154	; 0xa154 <__floatsisf>
    55aa:	5b 01       	movw	r10, r22
    55ac:	6c 01       	movw	r12, r24
    55ae:	1f 93       	push	r17
    55b0:	0f 93       	push	r16
    55b2:	ff 92       	push	r15
    55b4:	ef 92       	push	r14
    55b6:	3c 85       	ldd	r19, Y+12	; 0x0c
    55b8:	3f 93       	push	r19
    55ba:	4f 81       	ldd	r20, Y+7	; 0x07
    55bc:	4f 93       	push	r20
    55be:	5e 81       	ldd	r21, Y+6	; 0x06
    55c0:	5f 93       	push	r21
    55c2:	8d 81       	ldd	r24, Y+5	; 0x05
    55c4:	8f 93       	push	r24
    55c6:	69 81       	ldd	r22, Y+1	; 0x01
    55c8:	7a 81       	ldd	r23, Y+2	; 0x02
    55ca:	8b 81       	ldd	r24, Y+3	; 0x03
    55cc:	9c 81       	ldd	r25, Y+4	; 0x04
    55ce:	64 0d       	add	r22, r4
    55d0:	75 1d       	adc	r23, r5
    55d2:	86 1d       	adc	r24, r6
    55d4:	97 1d       	adc	r25, r7
    55d6:	0e 94 aa 50 	call	0xa154	; 0xa154 <__floatsisf>
    55da:	9f 93       	push	r25
    55dc:	8f 93       	push	r24
    55de:	7f 93       	push	r23
    55e0:	6f 93       	push	r22
    55e2:	1f 93       	push	r17
    55e4:	0f 93       	push	r16
    55e6:	ff 92       	push	r15
    55e8:	ef 92       	push	r14
    55ea:	9c 85       	ldd	r25, Y+12	; 0x0c
    55ec:	9f 93       	push	r25
    55ee:	af 81       	ldd	r26, Y+7	; 0x07
    55f0:	af 93       	push	r26
    55f2:	be 81       	ldd	r27, Y+6	; 0x06
    55f4:	bf 93       	push	r27
    55f6:	ed 81       	ldd	r30, Y+5	; 0x05
    55f8:	ef 93       	push	r30
    55fa:	ed 84       	ldd	r14, Y+13	; 0x0d
    55fc:	fe 84       	ldd	r15, Y+14	; 0x0e
    55fe:	87 01       	movw	r16, r14
    5600:	20 91 26 01 	lds	r18, 0x0126
    5604:	30 91 27 01 	lds	r19, 0x0127
    5608:	40 91 28 01 	lds	r20, 0x0128
    560c:	50 91 29 01 	lds	r21, 0x0129
    5610:	60 91 2a 01 	lds	r22, 0x012A
    5614:	70 91 2b 01 	lds	r23, 0x012B
    5618:	80 91 2c 01 	lds	r24, 0x012C
    561c:	90 91 2d 01 	lds	r25, 0x012D
    5620:	0e 94 6b 13 	call	0x26d6	; 0x26d6 <CalcCurvedPath>
    5624:	80 91 5e 01 	lds	r24, 0x015E
    5628:	90 91 5f 01 	lds	r25, 0x015F
    562c:	9c 01       	movw	r18, r24
    562e:	44 27       	eor	r20, r20
    5630:	37 fd       	sbrc	r19, 7
    5632:	40 95       	com	r20
    5634:	54 2f       	mov	r21, r20
    5636:	29 83       	std	Y+1, r18	; 0x01
    5638:	3a 83       	std	Y+2, r19	; 0x02
    563a:	4b 83       	std	Y+3, r20	; 0x03
    563c:	5c 83       	std	Y+4, r21	; 0x04
    563e:	60 91 5a 01 	lds	r22, 0x015A
    5642:	70 91 5b 01 	lds	r23, 0x015B
    5646:	88 27       	eor	r24, r24
    5648:	77 fd       	sbrc	r23, 7
    564a:	80 95       	com	r24
    564c:	98 2f       	mov	r25, r24
    564e:	0e 94 aa 50 	call	0xa154	; 0xa154 <__floatsisf>
    5652:	e6 2e       	mov	r14, r22
    5654:	f7 2e       	mov	r15, r23
    5656:	08 2f       	mov	r16, r24
    5658:	19 2f       	mov	r17, r25
    565a:	60 91 5c 01 	lds	r22, 0x015C
    565e:	70 91 5d 01 	lds	r23, 0x015D
    5662:	71 95       	neg	r23
    5664:	61 95       	neg	r22
    5666:	71 09       	sbc	r23, r1
    5668:	88 27       	eor	r24, r24
    566a:	77 fd       	sbrc	r23, 7
    566c:	80 95       	com	r24
    566e:	98 2f       	mov	r25, r24
    5670:	0e 94 aa 50 	call	0xa154	; 0xa154 <__floatsisf>
    5674:	6d 83       	std	Y+5, r22	; 0x05
    5676:	7e 83       	std	Y+6, r23	; 0x06
    5678:	8f 83       	std	Y+7, r24	; 0x07
    567a:	9c 87       	std	Y+12, r25	; 0x0c
    567c:	0f b6       	in	r0, 0x3f	; 63
    567e:	f8 94       	cli
    5680:	de bf       	out	0x3e, r29	; 62
    5682:	0f be       	out	0x3f, r0	; 63
    5684:	cd bf       	out	0x3d, r28	; 61
    5686:	69 81       	ldd	r22, Y+1	; 0x01
    5688:	7a 81       	ldd	r23, Y+2	; 0x02
    568a:	8b 81       	ldd	r24, Y+3	; 0x03
    568c:	9c 81       	ldd	r25, Y+4	; 0x04
    568e:	64 0d       	add	r22, r4
    5690:	75 1d       	adc	r23, r5
    5692:	86 1d       	adc	r24, r6
    5694:	97 1d       	adc	r25, r7
    5696:	0e 94 aa 50 	call	0xa154	; 0xa154 <__floatsisf>
    569a:	5b 01       	movw	r10, r22
    569c:	6c 01       	movw	r12, r24
    569e:	1f 93       	push	r17
    56a0:	0f 93       	push	r16
    56a2:	ff 92       	push	r15
    56a4:	ef 92       	push	r14
    56a6:	5c 85       	ldd	r21, Y+12	; 0x0c
    56a8:	5f 93       	push	r21
    56aa:	8f 81       	ldd	r24, Y+7	; 0x07
    56ac:	8f 93       	push	r24
    56ae:	9e 81       	ldd	r25, Y+6	; 0x06
    56b0:	9f 93       	push	r25
    56b2:	ad 81       	ldd	r26, Y+5	; 0x05
    56b4:	af 93       	push	r26
    56b6:	69 81       	ldd	r22, Y+1	; 0x01
    56b8:	7a 81       	ldd	r23, Y+2	; 0x02
    56ba:	8b 81       	ldd	r24, Y+3	; 0x03
    56bc:	9c 81       	ldd	r25, Y+4	; 0x04
    56be:	28 85       	ldd	r18, Y+8	; 0x08
    56c0:	39 85       	ldd	r19, Y+9	; 0x09
    56c2:	4a 85       	ldd	r20, Y+10	; 0x0a
    56c4:	5b 85       	ldd	r21, Y+11	; 0x0b
    56c6:	62 1b       	sub	r22, r18
    56c8:	73 0b       	sbc	r23, r19
    56ca:	84 0b       	sbc	r24, r20
    56cc:	95 0b       	sbc	r25, r21
    56ce:	0e 94 aa 50 	call	0xa154	; 0xa154 <__floatsisf>
    56d2:	9f 93       	push	r25
    56d4:	8f 93       	push	r24
    56d6:	7f 93       	push	r23
    56d8:	6f 93       	push	r22
    56da:	1f 93       	push	r17
    56dc:	0f 93       	push	r16
    56de:	ff 92       	push	r15
    56e0:	ef 92       	push	r14
    56e2:	3c 85       	ldd	r19, Y+12	; 0x0c
    56e4:	3f 93       	push	r19
    56e6:	4f 81       	ldd	r20, Y+7	; 0x07
    56e8:	4f 93       	push	r20
    56ea:	5e 81       	ldd	r21, Y+6	; 0x06
    56ec:	5f 93       	push	r21
    56ee:	8d 81       	ldd	r24, Y+5	; 0x05
    56f0:	8f 93       	push	r24
    56f2:	74 01       	movw	r14, r8
    56f4:	84 01       	movw	r16, r8
    56f6:	20 91 26 01 	lds	r18, 0x0126
    56fa:	30 91 27 01 	lds	r19, 0x0127
    56fe:	40 91 28 01 	lds	r20, 0x0128
    5702:	50 91 29 01 	lds	r21, 0x0129
    5706:	60 91 2a 01 	lds	r22, 0x012A
    570a:	70 91 2b 01 	lds	r23, 0x012B
    570e:	80 91 2c 01 	lds	r24, 0x012C
    5712:	90 91 2d 01 	lds	r25, 0x012D
    5716:	0e 94 e6 0f 	call	0x1fcc	; 0x1fcc <CalcStraightPath>
    571a:	80 91 5e 01 	lds	r24, 0x015E
    571e:	90 91 5f 01 	lds	r25, 0x015F
    5722:	91 95       	neg	r25
    5724:	81 95       	neg	r24
    5726:	91 09       	sbc	r25, r1
    5728:	9c 01       	movw	r18, r24
    572a:	44 27       	eor	r20, r20
    572c:	37 fd       	sbrc	r19, 7
    572e:	40 95       	com	r20
    5730:	54 2f       	mov	r21, r20
    5732:	29 83       	std	Y+1, r18	; 0x01
    5734:	3a 83       	std	Y+2, r19	; 0x02
    5736:	4b 83       	std	Y+3, r20	; 0x03
    5738:	5c 83       	std	Y+4, r21	; 0x04
    573a:	60 91 5a 01 	lds	r22, 0x015A
    573e:	70 91 5b 01 	lds	r23, 0x015B
    5742:	88 27       	eor	r24, r24
    5744:	77 fd       	sbrc	r23, 7
    5746:	80 95       	com	r24
    5748:	98 2f       	mov	r25, r24
    574a:	0e 94 aa 50 	call	0xa154	; 0xa154 <__floatsisf>
    574e:	e6 2e       	mov	r14, r22
    5750:	f7 2e       	mov	r15, r23
    5752:	08 2f       	mov	r16, r24
    5754:	19 2f       	mov	r17, r25
    5756:	60 91 5c 01 	lds	r22, 0x015C
    575a:	70 91 5d 01 	lds	r23, 0x015D
    575e:	88 27       	eor	r24, r24
    5760:	77 fd       	sbrc	r23, 7
    5762:	80 95       	com	r24
    5764:	98 2f       	mov	r25, r24
    5766:	0e 94 aa 50 	call	0xa154	; 0xa154 <__floatsisf>
    576a:	6d 83       	std	Y+5, r22	; 0x05
    576c:	7e 83       	std	Y+6, r23	; 0x06
    576e:	8f 83       	std	Y+7, r24	; 0x07
    5770:	9c 87       	std	Y+12, r25	; 0x0c
    5772:	68 85       	ldd	r22, Y+8	; 0x08
    5774:	79 85       	ldd	r23, Y+9	; 0x09
    5776:	8a 85       	ldd	r24, Y+10	; 0x0a
    5778:	9b 85       	ldd	r25, Y+11	; 0x0b
    577a:	29 81       	ldd	r18, Y+1	; 0x01
    577c:	3a 81       	ldd	r19, Y+2	; 0x02
    577e:	4b 81       	ldd	r20, Y+3	; 0x03
    5780:	5c 81       	ldd	r21, Y+4	; 0x04
    5782:	62 0f       	add	r22, r18
    5784:	73 1f       	adc	r23, r19
    5786:	84 1f       	adc	r24, r20
    5788:	95 1f       	adc	r25, r21
    578a:	0e 94 aa 50 	call	0xa154	; 0xa154 <__floatsisf>
    578e:	5b 01       	movw	r10, r22
    5790:	6c 01       	movw	r12, r24
    5792:	1f 93       	push	r17
    5794:	0f 93       	push	r16
    5796:	ff 92       	push	r15
    5798:	ef 92       	push	r14
    579a:	3c 85       	ldd	r19, Y+12	; 0x0c
    579c:	3f 93       	push	r19
    579e:	4f 81       	ldd	r20, Y+7	; 0x07
    57a0:	4f 93       	push	r20
    57a2:	5e 81       	ldd	r21, Y+6	; 0x06
    57a4:	5f 93       	push	r21
    57a6:	8d 81       	ldd	r24, Y+5	; 0x05
    57a8:	8f 93       	push	r24
    57aa:	69 81       	ldd	r22, Y+1	; 0x01
    57ac:	7a 81       	ldd	r23, Y+2	; 0x02
    57ae:	8b 81       	ldd	r24, Y+3	; 0x03
    57b0:	9c 81       	ldd	r25, Y+4	; 0x04
    57b2:	64 19       	sub	r22, r4
    57b4:	75 09       	sbc	r23, r5
    57b6:	86 09       	sbc	r24, r6
    57b8:	97 09       	sbc	r25, r7
    57ba:	0e 94 aa 50 	call	0xa154	; 0xa154 <__floatsisf>
    57be:	9f 93       	push	r25
    57c0:	8f 93       	push	r24
    57c2:	7f 93       	push	r23
    57c4:	6f 93       	push	r22
    57c6:	1f 93       	push	r17
    57c8:	0f 93       	push	r16
    57ca:	ff 92       	push	r15
    57cc:	ef 92       	push	r14
    57ce:	9c 85       	ldd	r25, Y+12	; 0x0c
    57d0:	9f 93       	push	r25
    57d2:	af 81       	ldd	r26, Y+7	; 0x07
    57d4:	af 93       	push	r26
    57d6:	be 81       	ldd	r27, Y+6	; 0x06
    57d8:	bf 93       	push	r27
    57da:	ed 81       	ldd	r30, Y+5	; 0x05
    57dc:	ef 93       	push	r30
    57de:	e1 2c       	mov	r14, r1
    57e0:	f1 2c       	mov	r15, r1
    57e2:	84 01       	movw	r16, r8
    57e4:	20 91 3e 01 	lds	r18, 0x013E
    57e8:	30 91 3f 01 	lds	r19, 0x013F
    57ec:	40 91 40 01 	lds	r20, 0x0140
    57f0:	50 91 41 01 	lds	r21, 0x0141
    57f4:	60 91 42 01 	lds	r22, 0x0142
    57f8:	70 91 43 01 	lds	r23, 0x0143
    57fc:	80 91 44 01 	lds	r24, 0x0144
    5800:	90 91 45 01 	lds	r25, 0x0145
    5804:	0e 94 e6 0f 	call	0x1fcc	; 0x1fcc <CalcStraightPath>
    5808:	80 91 5e 01 	lds	r24, 0x015E
    580c:	90 91 5f 01 	lds	r25, 0x015F
    5810:	91 95       	neg	r25
    5812:	81 95       	neg	r24
    5814:	91 09       	sbc	r25, r1
    5816:	9c 01       	movw	r18, r24
    5818:	44 27       	eor	r20, r20
    581a:	37 fd       	sbrc	r19, 7
    581c:	40 95       	com	r20
    581e:	54 2f       	mov	r21, r20
    5820:	29 83       	std	Y+1, r18	; 0x01
    5822:	3a 83       	std	Y+2, r19	; 0x02
    5824:	4b 83       	std	Y+3, r20	; 0x03
    5826:	5c 83       	std	Y+4, r21	; 0x04
    5828:	60 91 5a 01 	lds	r22, 0x015A
    582c:	70 91 5b 01 	lds	r23, 0x015B
    5830:	88 27       	eor	r24, r24
    5832:	77 fd       	sbrc	r23, 7
    5834:	80 95       	com	r24
    5836:	98 2f       	mov	r25, r24
    5838:	0e 94 aa 50 	call	0xa154	; 0xa154 <__floatsisf>
    583c:	e6 2e       	mov	r14, r22
    583e:	f7 2e       	mov	r15, r23
    5840:	08 2f       	mov	r16, r24
    5842:	19 2f       	mov	r17, r25
    5844:	60 91 5c 01 	lds	r22, 0x015C
    5848:	70 91 5d 01 	lds	r23, 0x015D
    584c:	88 27       	eor	r24, r24
    584e:	77 fd       	sbrc	r23, 7
    5850:	80 95       	com	r24
    5852:	98 2f       	mov	r25, r24
    5854:	0e 94 aa 50 	call	0xa154	; 0xa154 <__floatsisf>
    5858:	6d 83       	std	Y+5, r22	; 0x05
    585a:	7e 83       	std	Y+6, r23	; 0x06
    585c:	8f 83       	std	Y+7, r24	; 0x07
    585e:	9c 87       	std	Y+12, r25	; 0x0c
    5860:	0f b6       	in	r0, 0x3f	; 63
    5862:	f8 94       	cli
    5864:	de bf       	out	0x3e, r29	; 62
    5866:	0f be       	out	0x3f, r0	; 63
    5868:	cd bf       	out	0x3d, r28	; 61
    586a:	69 81       	ldd	r22, Y+1	; 0x01
    586c:	7a 81       	ldd	r23, Y+2	; 0x02
    586e:	8b 81       	ldd	r24, Y+3	; 0x03
    5870:	9c 81       	ldd	r25, Y+4	; 0x04
    5872:	64 19       	sub	r22, r4
    5874:	75 09       	sbc	r23, r5
    5876:	86 09       	sbc	r24, r6
    5878:	97 09       	sbc	r25, r7
    587a:	0e 94 aa 50 	call	0xa154	; 0xa154 <__floatsisf>
    587e:	5b 01       	movw	r10, r22
    5880:	6c 01       	movw	r12, r24
    5882:	1f 93       	push	r17
    5884:	0f 93       	push	r16
    5886:	ff 92       	push	r15
    5888:	ef 92       	push	r14
    588a:	5c 85       	ldd	r21, Y+12	; 0x0c
    588c:	5f 93       	push	r21
    588e:	8f 81       	ldd	r24, Y+7	; 0x07
    5890:	8f 93       	push	r24
    5892:	9e 81       	ldd	r25, Y+6	; 0x06
    5894:	9f 93       	push	r25
    5896:	ad 81       	ldd	r26, Y+5	; 0x05
    5898:	af 93       	push	r26
    589a:	69 81       	ldd	r22, Y+1	; 0x01
    589c:	7a 81       	ldd	r23, Y+2	; 0x02
    589e:	8b 81       	ldd	r24, Y+3	; 0x03
    58a0:	9c 81       	ldd	r25, Y+4	; 0x04
    58a2:	64 0d       	add	r22, r4
    58a4:	75 1d       	adc	r23, r5
    58a6:	86 1d       	adc	r24, r6
    58a8:	97 1d       	adc	r25, r7
    58aa:	0e 94 aa 50 	call	0xa154	; 0xa154 <__floatsisf>
    58ae:	9f 93       	push	r25
    58b0:	8f 93       	push	r24
    58b2:	7f 93       	push	r23
    58b4:	6f 93       	push	r22
    58b6:	1f 93       	push	r17
    58b8:	0f 93       	push	r16
    58ba:	ff 92       	push	r15
    58bc:	ef 92       	push	r14
    58be:	bc 85       	ldd	r27, Y+12	; 0x0c
    58c0:	bf 93       	push	r27
    58c2:	ef 81       	ldd	r30, Y+7	; 0x07
    58c4:	ef 93       	push	r30
    58c6:	fe 81       	ldd	r31, Y+6	; 0x06
    58c8:	ff 93       	push	r31
    58ca:	2d 81       	ldd	r18, Y+5	; 0x05
    58cc:	2f 93       	push	r18
    58ce:	74 01       	movw	r14, r8
    58d0:	0d 85       	ldd	r16, Y+13	; 0x0d
    58d2:	1e 85       	ldd	r17, Y+14	; 0x0e
    58d4:	20 91 3e 01 	lds	r18, 0x013E
    58d8:	30 91 3f 01 	lds	r19, 0x013F
    58dc:	40 91 40 01 	lds	r20, 0x0140
    58e0:	50 91 41 01 	lds	r21, 0x0141
    58e4:	60 91 42 01 	lds	r22, 0x0142
    58e8:	70 91 43 01 	lds	r23, 0x0143
    58ec:	80 91 44 01 	lds	r24, 0x0144
    58f0:	90 91 45 01 	lds	r25, 0x0145
    58f4:	0e 94 6b 13 	call	0x26d6	; 0x26d6 <CalcCurvedPath>
    58f8:	80 91 5e 01 	lds	r24, 0x015E
    58fc:	90 91 5f 01 	lds	r25, 0x015F
    5900:	91 95       	neg	r25
    5902:	81 95       	neg	r24
    5904:	91 09       	sbc	r25, r1
    5906:	9c 01       	movw	r18, r24
    5908:	44 27       	eor	r20, r20
    590a:	37 fd       	sbrc	r19, 7
    590c:	40 95       	com	r20
    590e:	54 2f       	mov	r21, r20
    5910:	29 83       	std	Y+1, r18	; 0x01
    5912:	3a 83       	std	Y+2, r19	; 0x02
    5914:	4b 83       	std	Y+3, r20	; 0x03
    5916:	5c 83       	std	Y+4, r21	; 0x04
    5918:	60 91 5a 01 	lds	r22, 0x015A
    591c:	70 91 5b 01 	lds	r23, 0x015B
    5920:	88 27       	eor	r24, r24
    5922:	77 fd       	sbrc	r23, 7
    5924:	80 95       	com	r24
    5926:	98 2f       	mov	r25, r24
    5928:	0e 94 aa 50 	call	0xa154	; 0xa154 <__floatsisf>
    592c:	e6 2e       	mov	r14, r22
    592e:	f7 2e       	mov	r15, r23
    5930:	08 2f       	mov	r16, r24
    5932:	19 2f       	mov	r17, r25
    5934:	60 91 5c 01 	lds	r22, 0x015C
    5938:	70 91 5d 01 	lds	r23, 0x015D
    593c:	88 27       	eor	r24, r24
    593e:	77 fd       	sbrc	r23, 7
    5940:	80 95       	com	r24
    5942:	98 2f       	mov	r25, r24
    5944:	0e 94 aa 50 	call	0xa154	; 0xa154 <__floatsisf>
    5948:	6d 83       	std	Y+5, r22	; 0x05
    594a:	7e 83       	std	Y+6, r23	; 0x06
    594c:	88 2e       	mov	r8, r24
    594e:	99 2e       	mov	r9, r25
    5950:	69 81       	ldd	r22, Y+1	; 0x01
    5952:	7a 81       	ldd	r23, Y+2	; 0x02
    5954:	8b 81       	ldd	r24, Y+3	; 0x03
    5956:	9c 81       	ldd	r25, Y+4	; 0x04
    5958:	64 0d       	add	r22, r4
    595a:	75 1d       	adc	r23, r5
    595c:	86 1d       	adc	r24, r6
    595e:	97 1d       	adc	r25, r7
    5960:	0e 94 aa 50 	call	0xa154	; 0xa154 <__floatsisf>
    5964:	5b 01       	movw	r10, r22
    5966:	6c 01       	movw	r12, r24
    5968:	1f 93       	push	r17
    596a:	0f 93       	push	r16
    596c:	ff 92       	push	r15
    596e:	ef 92       	push	r14
    5970:	9f 92       	push	r9
    5972:	8f 92       	push	r8
    5974:	3e 81       	ldd	r19, Y+6	; 0x06
    5976:	3f 93       	push	r19
    5978:	4d 81       	ldd	r20, Y+5	; 0x05
    597a:	4f 93       	push	r20
    597c:	69 81       	ldd	r22, Y+1	; 0x01
    597e:	7a 81       	ldd	r23, Y+2	; 0x02
    5980:	8b 81       	ldd	r24, Y+3	; 0x03
    5982:	9c 81       	ldd	r25, Y+4	; 0x04
    5984:	28 85       	ldd	r18, Y+8	; 0x08
    5986:	39 85       	ldd	r19, Y+9	; 0x09
    5988:	4a 85       	ldd	r20, Y+10	; 0x0a
    598a:	5b 85       	ldd	r21, Y+11	; 0x0b
    598c:	62 0f       	add	r22, r18
    598e:	73 1f       	adc	r23, r19
    5990:	84 1f       	adc	r24, r20
    5992:	95 1f       	adc	r25, r21
    5994:	0e 94 aa 50 	call	0xa154	; 0xa154 <__floatsisf>
    5998:	9f 93       	push	r25
    599a:	8f 93       	push	r24
    599c:	7f 93       	push	r23
    599e:	6f 93       	push	r22
    59a0:	1f 93       	push	r17
    59a2:	0f 93       	push	r16
    59a4:	ff 92       	push	r15
    59a6:	ef 92       	push	r14
    59a8:	9f 92       	push	r9
    59aa:	8f 92       	push	r8
    59ac:	3e 81       	ldd	r19, Y+6	; 0x06
    59ae:	3f 93       	push	r19
    59b0:	4d 81       	ldd	r20, Y+5	; 0x05
    59b2:	4f 93       	push	r20
    59b4:	71 01       	movw	r14, r2
    59b6:	0d 85       	ldd	r16, Y+13	; 0x0d
    59b8:	1e 85       	ldd	r17, Y+14	; 0x0e
    59ba:	20 91 3e 01 	lds	r18, 0x013E
    59be:	30 91 3f 01 	lds	r19, 0x013F
    59c2:	40 91 40 01 	lds	r20, 0x0140
    59c6:	50 91 41 01 	lds	r21, 0x0141
    59ca:	60 91 42 01 	lds	r22, 0x0142
    59ce:	70 91 43 01 	lds	r23, 0x0143
    59d2:	80 91 44 01 	lds	r24, 0x0144
    59d6:	90 91 45 01 	lds	r25, 0x0145
    59da:	0e 94 e6 0f 	call	0x1fcc	; 0x1fcc <CalcStraightPath>
    59de:	80 91 5e 01 	lds	r24, 0x015E
    59e2:	90 91 5f 01 	lds	r25, 0x015F
    59e6:	9c 01       	movw	r18, r24
    59e8:	44 27       	eor	r20, r20
    59ea:	37 fd       	sbrc	r19, 7
    59ec:	40 95       	com	r20
    59ee:	54 2f       	mov	r21, r20
    59f0:	28 87       	std	Y+8, r18	; 0x08
    59f2:	39 87       	std	Y+9, r19	; 0x09
    59f4:	4a 87       	std	Y+10, r20	; 0x0a
    59f6:	5b 87       	std	Y+11, r21	; 0x0b
    59f8:	60 91 5a 01 	lds	r22, 0x015A
    59fc:	70 91 5b 01 	lds	r23, 0x015B
    5a00:	88 27       	eor	r24, r24
    5a02:	77 fd       	sbrc	r23, 7
    5a04:	80 95       	com	r24
    5a06:	98 2f       	mov	r25, r24
    5a08:	0e 94 aa 50 	call	0xa154	; 0xa154 <__floatsisf>
    5a0c:	e6 2e       	mov	r14, r22
    5a0e:	f7 2e       	mov	r15, r23
    5a10:	18 2f       	mov	r17, r24
    5a12:	09 2f       	mov	r16, r25
    5a14:	60 91 5c 01 	lds	r22, 0x015C
    5a18:	70 91 5d 01 	lds	r23, 0x015D
    5a1c:	88 27       	eor	r24, r24
    5a1e:	77 fd       	sbrc	r23, 7
    5a20:	80 95       	com	r24
    5a22:	98 2f       	mov	r25, r24
    5a24:	0e 94 aa 50 	call	0xa154	; 0xa154 <__floatsisf>
    5a28:	69 83       	std	Y+1, r22	; 0x01
    5a2a:	7d 83       	std	Y+5, r23	; 0x05
    5a2c:	88 2e       	mov	r8, r24
    5a2e:	99 2e       	mov	r9, r25
    5a30:	0f b6       	in	r0, 0x3f	; 63
    5a32:	f8 94       	cli
    5a34:	de bf       	out	0x3e, r29	; 62
    5a36:	0f be       	out	0x3f, r0	; 63
    5a38:	cd bf       	out	0x3d, r28	; 61
    5a3a:	68 85       	ldd	r22, Y+8	; 0x08
    5a3c:	79 85       	ldd	r23, Y+9	; 0x09
    5a3e:	8a 85       	ldd	r24, Y+10	; 0x0a
    5a40:	9b 85       	ldd	r25, Y+11	; 0x0b
    5a42:	64 0d       	add	r22, r4
    5a44:	75 1d       	adc	r23, r5
    5a46:	86 1d       	adc	r24, r6
    5a48:	97 1d       	adc	r25, r7
    5a4a:	0e 94 aa 50 	call	0xa154	; 0xa154 <__floatsisf>
    5a4e:	5b 01       	movw	r10, r22
    5a50:	6c 01       	movw	r12, r24
    5a52:	0f 93       	push	r16
    5a54:	1f 93       	push	r17
    5a56:	ff 92       	push	r15
    5a58:	ef 92       	push	r14
    5a5a:	9f 92       	push	r9
    5a5c:	8f 92       	push	r8
    5a5e:	5d 81       	ldd	r21, Y+5	; 0x05
    5a60:	5f 93       	push	r21
    5a62:	89 81       	ldd	r24, Y+1	; 0x01
    5a64:	8f 93       	push	r24
    5a66:	68 85       	ldd	r22, Y+8	; 0x08
    5a68:	79 85       	ldd	r23, Y+9	; 0x09
    5a6a:	8a 85       	ldd	r24, Y+10	; 0x0a
    5a6c:	9b 85       	ldd	r25, Y+11	; 0x0b
    5a6e:	64 19       	sub	r22, r4
    5a70:	75 09       	sbc	r23, r5
    5a72:	86 09       	sbc	r24, r6
    5a74:	97 09       	sbc	r25, r7
    5a76:	0e 94 aa 50 	call	0xa154	; 0xa154 <__floatsisf>
    5a7a:	9f 93       	push	r25
    5a7c:	8f 93       	push	r24
    5a7e:	7f 93       	push	r23
    5a80:	6f 93       	push	r22
    5a82:	0f 93       	push	r16
    5a84:	1f 93       	push	r17
    5a86:	ff 92       	push	r15
    5a88:	ef 92       	push	r14
    5a8a:	9f 92       	push	r9
    5a8c:	8f 92       	push	r8
    5a8e:	9d 81       	ldd	r25, Y+5	; 0x05
    5a90:	9f 93       	push	r25
    5a92:	a9 81       	ldd	r26, Y+1	; 0x01
    5a94:	af 93       	push	r26
    5a96:	e1 2c       	mov	r14, r1
    5a98:	f1 2c       	mov	r15, r1
    5a9a:	81 01       	movw	r16, r2
    5a9c:	20 91 36 01 	lds	r18, 0x0136
    5aa0:	30 91 37 01 	lds	r19, 0x0137
    5aa4:	40 91 38 01 	lds	r20, 0x0138
    5aa8:	50 91 39 01 	lds	r21, 0x0139
    5aac:	60 91 3a 01 	lds	r22, 0x013A
    5ab0:	70 91 3b 01 	lds	r23, 0x013B
    5ab4:	80 91 3c 01 	lds	r24, 0x013C
    5ab8:	90 91 3d 01 	lds	r25, 0x013D
    5abc:	0e 94 e6 0f 	call	0x1fcc	; 0x1fcc <CalcStraightPath>
    5ac0:	80 91 5e 01 	lds	r24, 0x015E
    5ac4:	90 91 5f 01 	lds	r25, 0x015F
    5ac8:	9c 01       	movw	r18, r24
    5aca:	44 27       	eor	r20, r20
    5acc:	37 fd       	sbrc	r19, 7
    5ace:	40 95       	com	r20
    5ad0:	54 2f       	mov	r21, r20
    5ad2:	28 87       	std	Y+8, r18	; 0x08
    5ad4:	39 87       	std	Y+9, r19	; 0x09
    5ad6:	4a 87       	std	Y+10, r20	; 0x0a
    5ad8:	5b 87       	std	Y+11, r21	; 0x0b
    5ada:	60 91 5a 01 	lds	r22, 0x015A
    5ade:	70 91 5b 01 	lds	r23, 0x015B
    5ae2:	88 27       	eor	r24, r24
    5ae4:	77 fd       	sbrc	r23, 7
    5ae6:	80 95       	com	r24
    5ae8:	98 2f       	mov	r25, r24
    5aea:	0e 94 aa 50 	call	0xa154	; 0xa154 <__floatsisf>
    5aee:	e6 2e       	mov	r14, r22
    5af0:	f7 2e       	mov	r15, r23
    5af2:	18 2f       	mov	r17, r24
    5af4:	09 2f       	mov	r16, r25
    5af6:	60 91 5c 01 	lds	r22, 0x015C
    5afa:	70 91 5d 01 	lds	r23, 0x015D
    5afe:	88 27       	eor	r24, r24
    5b00:	77 fd       	sbrc	r23, 7
    5b02:	80 95       	com	r24
    5b04:	98 2f       	mov	r25, r24
    5b06:	0e 94 aa 50 	call	0xa154	; 0xa154 <__floatsisf>
    5b0a:	69 83       	std	Y+1, r22	; 0x01
    5b0c:	7d 83       	std	Y+5, r23	; 0x05
    5b0e:	88 2e       	mov	r8, r24
    5b10:	99 2e       	mov	r9, r25
    5b12:	68 85       	ldd	r22, Y+8	; 0x08
    5b14:	79 85       	ldd	r23, Y+9	; 0x09
    5b16:	8a 85       	ldd	r24, Y+10	; 0x0a
    5b18:	9b 85       	ldd	r25, Y+11	; 0x0b
    5b1a:	64 19       	sub	r22, r4
    5b1c:	75 09       	sbc	r23, r5
    5b1e:	86 09       	sbc	r24, r6
    5b20:	97 09       	sbc	r25, r7
    5b22:	0e 94 aa 50 	call	0xa154	; 0xa154 <__floatsisf>
    5b26:	5b 01       	movw	r10, r22
    5b28:	6c 01       	movw	r12, r24
    5b2a:	0f 93       	push	r16
    5b2c:	1f 93       	push	r17
    5b2e:	ff 92       	push	r15
    5b30:	ef 92       	push	r14
    5b32:	9f 92       	push	r9
    5b34:	8f 92       	push	r8
    5b36:	3d 81       	ldd	r19, Y+5	; 0x05
    5b38:	3f 93       	push	r19
    5b3a:	49 81       	ldd	r20, Y+1	; 0x01
    5b3c:	4f 93       	push	r20
    5b3e:	68 85       	ldd	r22, Y+8	; 0x08
    5b40:	79 85       	ldd	r23, Y+9	; 0x09
    5b42:	8a 85       	ldd	r24, Y+10	; 0x0a
    5b44:	9b 85       	ldd	r25, Y+11	; 0x0b
    5b46:	64 0d       	add	r22, r4
    5b48:	75 1d       	adc	r23, r5
    5b4a:	86 1d       	adc	r24, r6
    5b4c:	97 1d       	adc	r25, r7
    5b4e:	0e 94 aa 50 	call	0xa154	; 0xa154 <__floatsisf>
    5b52:	9f 93       	push	r25
    5b54:	8f 93       	push	r24
    5b56:	7f 93       	push	r23
    5b58:	6f 93       	push	r22
    5b5a:	0f 93       	push	r16
    5b5c:	1f 93       	push	r17
    5b5e:	ff 92       	push	r15
    5b60:	ef 92       	push	r14
    5b62:	9f 92       	push	r9
    5b64:	8f 92       	push	r8
    5b66:	5d 81       	ldd	r21, Y+5	; 0x05
    5b68:	5f 93       	push	r21
    5b6a:	89 81       	ldd	r24, Y+1	; 0x01
    5b6c:	8f 93       	push	r24
    5b6e:	71 01       	movw	r14, r2
    5b70:	0d 85       	ldd	r16, Y+13	; 0x0d
    5b72:	1e 85       	ldd	r17, Y+14	; 0x0e
    5b74:	20 91 36 01 	lds	r18, 0x0136
    5b78:	30 91 37 01 	lds	r19, 0x0137
    5b7c:	40 91 38 01 	lds	r20, 0x0138
    5b80:	50 91 39 01 	lds	r21, 0x0139
    5b84:	60 91 3a 01 	lds	r22, 0x013A
    5b88:	70 91 3b 01 	lds	r23, 0x013B
    5b8c:	80 91 3c 01 	lds	r24, 0x013C
    5b90:	90 91 3d 01 	lds	r25, 0x013D
    5b94:	0e 94 6b 13 	call	0x26d6	; 0x26d6 <CalcCurvedPath>
    5b98:	0f b6       	in	r0, 0x3f	; 63
    5b9a:	f8 94       	cli
    5b9c:	de bf       	out	0x3e, r29	; 62
    5b9e:	0f be       	out	0x3f, r0	; 63
    5ba0:	cd bf       	out	0x3d, r28	; 61
    5ba2:	0c 94 c2 36 	jmp	0x6d84	; 0x6d84 <makeCreepGait+0x247a>
    5ba6:	c0 90 5c 01 	lds	r12, 0x015C
    5baa:	d0 90 5d 01 	lds	r13, 0x015D
    5bae:	ee 24       	eor	r14, r14
    5bb0:	d7 fc       	sbrc	r13, 7
    5bb2:	e0 94       	com	r14
    5bb4:	fe 2c       	mov	r15, r14
    5bb6:	60 91 5a 01 	lds	r22, 0x015A
    5bba:	70 91 5b 01 	lds	r23, 0x015B
    5bbe:	88 27       	eor	r24, r24
    5bc0:	77 fd       	sbrc	r23, 7
    5bc2:	80 95       	com	r24
    5bc4:	98 2f       	mov	r25, r24
    5bc6:	0e 94 aa 50 	call	0xa154	; 0xa154 <__floatsisf>
    5bca:	16 2f       	mov	r17, r22
    5bcc:	07 2f       	mov	r16, r23
    5bce:	b8 2e       	mov	r11, r24
    5bd0:	a9 2e       	mov	r10, r25
    5bd2:	60 91 5e 01 	lds	r22, 0x015E
    5bd6:	70 91 5f 01 	lds	r23, 0x015F
    5bda:	71 95       	neg	r23
    5bdc:	61 95       	neg	r22
    5bde:	71 09       	sbc	r23, r1
    5be0:	88 27       	eor	r24, r24
    5be2:	77 fd       	sbrc	r23, 7
    5be4:	80 95       	com	r24
    5be6:	98 2f       	mov	r25, r24
    5be8:	0e 94 aa 50 	call	0xa154	; 0xa154 <__floatsisf>
    5bec:	96 2e       	mov	r9, r22
    5bee:	87 2e       	mov	r8, r23
    5bf0:	38 2e       	mov	r3, r24
    5bf2:	29 2e       	mov	r2, r25
    5bf4:	af 92       	push	r10
    5bf6:	bf 92       	push	r11
    5bf8:	0f 93       	push	r16
    5bfa:	1f 93       	push	r17
    5bfc:	c7 01       	movw	r24, r14
    5bfe:	b6 01       	movw	r22, r12
    5c00:	64 19       	sub	r22, r4
    5c02:	75 09       	sbc	r23, r5
    5c04:	86 09       	sbc	r24, r6
    5c06:	97 09       	sbc	r25, r7
    5c08:	0e 94 aa 50 	call	0xa154	; 0xa154 <__floatsisf>
    5c0c:	9f 93       	push	r25
    5c0e:	8f 93       	push	r24
    5c10:	7f 93       	push	r23
    5c12:	6f 93       	push	r22
    5c14:	2f 92       	push	r2
    5c16:	3f 92       	push	r3
    5c18:	8f 92       	push	r8
    5c1a:	9f 92       	push	r9
    5c1c:	af 92       	push	r10
    5c1e:	bf 92       	push	r11
    5c20:	0f 93       	push	r16
    5c22:	1f 93       	push	r17
    5c24:	c3 01       	movw	r24, r6
    5c26:	b2 01       	movw	r22, r4
    5c28:	6c 0d       	add	r22, r12
    5c2a:	7d 1d       	adc	r23, r13
    5c2c:	8e 1d       	adc	r24, r14
    5c2e:	9f 1d       	adc	r25, r15
    5c30:	0e 94 aa 50 	call	0xa154	; 0xa154 <__floatsisf>
    5c34:	9f 93       	push	r25
    5c36:	8f 93       	push	r24
    5c38:	7f 93       	push	r23
    5c3a:	6f 93       	push	r22
    5c3c:	a9 2c       	mov	r10, r9
    5c3e:	b8 2c       	mov	r11, r8
    5c40:	c3 2c       	mov	r12, r3
    5c42:	d2 2c       	mov	r13, r2
    5c44:	e1 2c       	mov	r14, r1
    5c46:	f1 2c       	mov	r15, r1
    5c48:	0d 85       	ldd	r16, Y+13	; 0x0d
    5c4a:	1e 85       	ldd	r17, Y+14	; 0x0e
    5c4c:	20 91 3e 01 	lds	r18, 0x013E
    5c50:	30 91 3f 01 	lds	r19, 0x013F
    5c54:	40 91 40 01 	lds	r20, 0x0140
    5c58:	50 91 41 01 	lds	r21, 0x0141
    5c5c:	60 91 42 01 	lds	r22, 0x0142
    5c60:	70 91 43 01 	lds	r23, 0x0143
    5c64:	80 91 44 01 	lds	r24, 0x0144
    5c68:	90 91 45 01 	lds	r25, 0x0145
    5c6c:	0e 94 6b 13 	call	0x26d6	; 0x26d6 <CalcCurvedPath>
    5c70:	c0 90 5c 01 	lds	r12, 0x015C
    5c74:	d0 90 5d 01 	lds	r13, 0x015D
    5c78:	ee 24       	eor	r14, r14
    5c7a:	d7 fc       	sbrc	r13, 7
    5c7c:	e0 94       	com	r14
    5c7e:	fe 2c       	mov	r15, r14
    5c80:	60 91 5a 01 	lds	r22, 0x015A
    5c84:	70 91 5b 01 	lds	r23, 0x015B
    5c88:	88 27       	eor	r24, r24
    5c8a:	77 fd       	sbrc	r23, 7
    5c8c:	80 95       	com	r24
    5c8e:	98 2f       	mov	r25, r24
    5c90:	0e 94 aa 50 	call	0xa154	; 0xa154 <__floatsisf>
    5c94:	a6 2e       	mov	r10, r22
    5c96:	b7 2e       	mov	r11, r23
    5c98:	08 2f       	mov	r16, r24
    5c9a:	19 2f       	mov	r17, r25
    5c9c:	60 91 5e 01 	lds	r22, 0x015E
    5ca0:	70 91 5f 01 	lds	r23, 0x015F
    5ca4:	71 95       	neg	r23
    5ca6:	61 95       	neg	r22
    5ca8:	71 09       	sbc	r23, r1
    5caa:	88 27       	eor	r24, r24
    5cac:	77 fd       	sbrc	r23, 7
    5cae:	80 95       	com	r24
    5cb0:	98 2f       	mov	r25, r24
    5cb2:	0e 94 aa 50 	call	0xa154	; 0xa154 <__floatsisf>
    5cb6:	69 83       	std	Y+1, r22	; 0x01
    5cb8:	7d 83       	std	Y+5, r23	; 0x05
    5cba:	8e 83       	std	Y+6, r24	; 0x06
    5cbc:	9f 83       	std	Y+7, r25	; 0x07
    5cbe:	8d 84       	ldd	r8, Y+13	; 0x0d
    5cc0:	9e 84       	ldd	r9, Y+14	; 0x0e
    5cc2:	88 0c       	add	r8, r8
    5cc4:	99 1c       	adc	r9, r9
    5cc6:	2d 84       	ldd	r2, Y+13	; 0x0d
    5cc8:	3e 84       	ldd	r3, Y+14	; 0x0e
    5cca:	28 0c       	add	r2, r8
    5ccc:	39 1c       	adc	r3, r9
    5cce:	1f 93       	push	r17
    5cd0:	0f 93       	push	r16
    5cd2:	bf 92       	push	r11
    5cd4:	af 92       	push	r10
    5cd6:	c7 01       	movw	r24, r14
    5cd8:	b6 01       	movw	r22, r12
    5cda:	64 0d       	add	r22, r4
    5cdc:	75 1d       	adc	r23, r5
    5cde:	86 1d       	adc	r24, r6
    5ce0:	97 1d       	adc	r25, r7
    5ce2:	0e 94 aa 50 	call	0xa154	; 0xa154 <__floatsisf>
    5ce6:	9f 93       	push	r25
    5ce8:	8f 93       	push	r24
    5cea:	7f 93       	push	r23
    5cec:	6f 93       	push	r22
    5cee:	bf 81       	ldd	r27, Y+7	; 0x07
    5cf0:	bf 93       	push	r27
    5cf2:	ee 81       	ldd	r30, Y+6	; 0x06
    5cf4:	ef 93       	push	r30
    5cf6:	fd 81       	ldd	r31, Y+5	; 0x05
    5cf8:	ff 93       	push	r31
    5cfa:	29 81       	ldd	r18, Y+1	; 0x01
    5cfc:	2f 93       	push	r18
    5cfe:	1f 93       	push	r17
    5d00:	0f 93       	push	r16
    5d02:	bf 92       	push	r11
    5d04:	af 92       	push	r10
    5d06:	c7 01       	movw	r24, r14
    5d08:	b6 01       	movw	r22, r12
    5d0a:	64 19       	sub	r22, r4
    5d0c:	75 09       	sbc	r23, r5
    5d0e:	86 09       	sbc	r24, r6
    5d10:	97 09       	sbc	r25, r7
    5d12:	0e 94 aa 50 	call	0xa154	; 0xa154 <__floatsisf>
    5d16:	9f 93       	push	r25
    5d18:	8f 93       	push	r24
    5d1a:	7f 93       	push	r23
    5d1c:	6f 93       	push	r22
    5d1e:	39 81       	ldd	r19, Y+1	; 0x01
    5d20:	2d 81       	ldd	r18, Y+5	; 0x05
    5d22:	9e 81       	ldd	r25, Y+6	; 0x06
    5d24:	8f 81       	ldd	r24, Y+7	; 0x07
    5d26:	a3 2e       	mov	r10, r19
    5d28:	b2 2e       	mov	r11, r18
    5d2a:	c9 2e       	mov	r12, r25
    5d2c:	d8 2e       	mov	r13, r24
    5d2e:	ed 84       	ldd	r14, Y+13	; 0x0d
    5d30:	fe 84       	ldd	r15, Y+14	; 0x0e
    5d32:	81 01       	movw	r16, r2
    5d34:	20 91 3e 01 	lds	r18, 0x013E
    5d38:	30 91 3f 01 	lds	r19, 0x013F
    5d3c:	40 91 40 01 	lds	r20, 0x0140
    5d40:	50 91 41 01 	lds	r21, 0x0141
    5d44:	60 91 42 01 	lds	r22, 0x0142
    5d48:	70 91 43 01 	lds	r23, 0x0143
    5d4c:	80 91 44 01 	lds	r24, 0x0144
    5d50:	90 91 45 01 	lds	r25, 0x0145
    5d54:	0e 94 e6 0f 	call	0x1fcc	; 0x1fcc <CalcStraightPath>
    5d58:	c0 90 5c 01 	lds	r12, 0x015C
    5d5c:	d0 90 5d 01 	lds	r13, 0x015D
    5d60:	d1 94       	neg	r13
    5d62:	c1 94       	neg	r12
    5d64:	d1 08       	sbc	r13, r1
    5d66:	ee 24       	eor	r14, r14
    5d68:	d7 fc       	sbrc	r13, 7
    5d6a:	e0 94       	com	r14
    5d6c:	fe 2c       	mov	r15, r14
    5d6e:	60 91 5a 01 	lds	r22, 0x015A
    5d72:	70 91 5b 01 	lds	r23, 0x015B
    5d76:	88 27       	eor	r24, r24
    5d78:	77 fd       	sbrc	r23, 7
    5d7a:	80 95       	com	r24
    5d7c:	98 2f       	mov	r25, r24
    5d7e:	0e 94 aa 50 	call	0xa154	; 0xa154 <__floatsisf>
    5d82:	a6 2e       	mov	r10, r22
    5d84:	b7 2e       	mov	r11, r23
    5d86:	08 2f       	mov	r16, r24
    5d88:	19 2f       	mov	r17, r25
    5d8a:	60 91 5e 01 	lds	r22, 0x015E
    5d8e:	70 91 5f 01 	lds	r23, 0x015F
    5d92:	71 95       	neg	r23
    5d94:	61 95       	neg	r22
    5d96:	71 09       	sbc	r23, r1
    5d98:	88 27       	eor	r24, r24
    5d9a:	77 fd       	sbrc	r23, 7
    5d9c:	80 95       	com	r24
    5d9e:	98 2f       	mov	r25, r24
    5da0:	0e 94 aa 50 	call	0xa154	; 0xa154 <__floatsisf>
    5da4:	69 83       	std	Y+1, r22	; 0x01
    5da6:	7d 83       	std	Y+5, r23	; 0x05
    5da8:	8e 83       	std	Y+6, r24	; 0x06
    5daa:	9f 83       	std	Y+7, r25	; 0x07
    5dac:	0f b6       	in	r0, 0x3f	; 63
    5dae:	f8 94       	cli
    5db0:	de bf       	out	0x3e, r29	; 62
    5db2:	0f be       	out	0x3f, r0	; 63
    5db4:	cd bf       	out	0x3d, r28	; 61
    5db6:	1f 93       	push	r17
    5db8:	0f 93       	push	r16
    5dba:	bf 92       	push	r11
    5dbc:	af 92       	push	r10
    5dbe:	c7 01       	movw	r24, r14
    5dc0:	b6 01       	movw	r22, r12
    5dc2:	64 0d       	add	r22, r4
    5dc4:	75 1d       	adc	r23, r5
    5dc6:	86 1d       	adc	r24, r6
    5dc8:	97 1d       	adc	r25, r7
    5dca:	0e 94 aa 50 	call	0xa154	; 0xa154 <__floatsisf>
    5dce:	9f 93       	push	r25
    5dd0:	8f 93       	push	r24
    5dd2:	7f 93       	push	r23
    5dd4:	6f 93       	push	r22
    5dd6:	5f 81       	ldd	r21, Y+7	; 0x07
    5dd8:	5f 93       	push	r21
    5dda:	8e 81       	ldd	r24, Y+6	; 0x06
    5ddc:	8f 93       	push	r24
    5dde:	9d 81       	ldd	r25, Y+5	; 0x05
    5de0:	9f 93       	push	r25
    5de2:	a9 81       	ldd	r26, Y+1	; 0x01
    5de4:	af 93       	push	r26
    5de6:	1f 93       	push	r17
    5de8:	0f 93       	push	r16
    5dea:	bf 92       	push	r11
    5dec:	af 92       	push	r10
    5dee:	68 85       	ldd	r22, Y+8	; 0x08
    5df0:	79 85       	ldd	r23, Y+9	; 0x09
    5df2:	8a 85       	ldd	r24, Y+10	; 0x0a
    5df4:	9b 85       	ldd	r25, Y+11	; 0x0b
    5df6:	6c 0d       	add	r22, r12
    5df8:	7d 1d       	adc	r23, r13
    5dfa:	8e 1d       	adc	r24, r14
    5dfc:	9f 1d       	adc	r25, r15
    5dfe:	0e 94 aa 50 	call	0xa154	; 0xa154 <__floatsisf>
    5e02:	9f 93       	push	r25
    5e04:	8f 93       	push	r24
    5e06:	7f 93       	push	r23
    5e08:	6f 93       	push	r22
    5e0a:	39 81       	ldd	r19, Y+1	; 0x01
    5e0c:	2d 81       	ldd	r18, Y+5	; 0x05
    5e0e:	9e 81       	ldd	r25, Y+6	; 0x06
    5e10:	8f 81       	ldd	r24, Y+7	; 0x07
    5e12:	a3 2e       	mov	r10, r19
    5e14:	b2 2e       	mov	r11, r18
    5e16:	c9 2e       	mov	r12, r25
    5e18:	d8 2e       	mov	r13, r24
    5e1a:	e1 2c       	mov	r14, r1
    5e1c:	f1 2c       	mov	r15, r1
    5e1e:	0d 85       	ldd	r16, Y+13	; 0x0d
    5e20:	1e 85       	ldd	r17, Y+14	; 0x0e
    5e22:	20 91 2e 01 	lds	r18, 0x012E
    5e26:	30 91 2f 01 	lds	r19, 0x012F
    5e2a:	40 91 30 01 	lds	r20, 0x0130
    5e2e:	50 91 31 01 	lds	r21, 0x0131
    5e32:	60 91 32 01 	lds	r22, 0x0132
    5e36:	70 91 33 01 	lds	r23, 0x0133
    5e3a:	80 91 34 01 	lds	r24, 0x0134
    5e3e:	90 91 35 01 	lds	r25, 0x0135
    5e42:	0e 94 e6 0f 	call	0x1fcc	; 0x1fcc <CalcStraightPath>
    5e46:	c0 90 5c 01 	lds	r12, 0x015C
    5e4a:	d0 90 5d 01 	lds	r13, 0x015D
    5e4e:	d1 94       	neg	r13
    5e50:	c1 94       	neg	r12
    5e52:	d1 08       	sbc	r13, r1
    5e54:	ee 24       	eor	r14, r14
    5e56:	d7 fc       	sbrc	r13, 7
    5e58:	e0 94       	com	r14
    5e5a:	fe 2c       	mov	r15, r14
    5e5c:	60 91 5a 01 	lds	r22, 0x015A
    5e60:	70 91 5b 01 	lds	r23, 0x015B
    5e64:	88 27       	eor	r24, r24
    5e66:	77 fd       	sbrc	r23, 7
    5e68:	80 95       	com	r24
    5e6a:	98 2f       	mov	r25, r24
    5e6c:	0e 94 aa 50 	call	0xa154	; 0xa154 <__floatsisf>
    5e70:	a6 2e       	mov	r10, r22
    5e72:	b7 2e       	mov	r11, r23
    5e74:	08 2f       	mov	r16, r24
    5e76:	19 2f       	mov	r17, r25
    5e78:	60 91 5e 01 	lds	r22, 0x015E
    5e7c:	70 91 5f 01 	lds	r23, 0x015F
    5e80:	71 95       	neg	r23
    5e82:	61 95       	neg	r22
    5e84:	71 09       	sbc	r23, r1
    5e86:	88 27       	eor	r24, r24
    5e88:	77 fd       	sbrc	r23, 7
    5e8a:	80 95       	com	r24
    5e8c:	98 2f       	mov	r25, r24
    5e8e:	0e 94 aa 50 	call	0xa154	; 0xa154 <__floatsisf>
    5e92:	69 83       	std	Y+1, r22	; 0x01
    5e94:	7d 83       	std	Y+5, r23	; 0x05
    5e96:	8e 83       	std	Y+6, r24	; 0x06
    5e98:	9f 83       	std	Y+7, r25	; 0x07
    5e9a:	1f 93       	push	r17
    5e9c:	0f 93       	push	r16
    5e9e:	bf 92       	push	r11
    5ea0:	af 92       	push	r10
    5ea2:	c7 01       	movw	r24, r14
    5ea4:	b6 01       	movw	r22, r12
    5ea6:	64 19       	sub	r22, r4
    5ea8:	75 09       	sbc	r23, r5
    5eaa:	86 09       	sbc	r24, r6
    5eac:	97 09       	sbc	r25, r7
    5eae:	0e 94 aa 50 	call	0xa154	; 0xa154 <__floatsisf>
    5eb2:	9f 93       	push	r25
    5eb4:	8f 93       	push	r24
    5eb6:	7f 93       	push	r23
    5eb8:	6f 93       	push	r22
    5eba:	bf 81       	ldd	r27, Y+7	; 0x07
    5ebc:	bf 93       	push	r27
    5ebe:	ee 81       	ldd	r30, Y+6	; 0x06
    5ec0:	ef 93       	push	r30
    5ec2:	fd 81       	ldd	r31, Y+5	; 0x05
    5ec4:	ff 93       	push	r31
    5ec6:	29 81       	ldd	r18, Y+1	; 0x01
    5ec8:	2f 93       	push	r18
    5eca:	1f 93       	push	r17
    5ecc:	0f 93       	push	r16
    5ece:	bf 92       	push	r11
    5ed0:	af 92       	push	r10
    5ed2:	c3 01       	movw	r24, r6
    5ed4:	b2 01       	movw	r22, r4
    5ed6:	6c 0d       	add	r22, r12
    5ed8:	7d 1d       	adc	r23, r13
    5eda:	8e 1d       	adc	r24, r14
    5edc:	9f 1d       	adc	r25, r15
    5ede:	0e 94 aa 50 	call	0xa154	; 0xa154 <__floatsisf>
    5ee2:	9f 93       	push	r25
    5ee4:	8f 93       	push	r24
    5ee6:	7f 93       	push	r23
    5ee8:	6f 93       	push	r22
    5eea:	39 81       	ldd	r19, Y+1	; 0x01
    5eec:	2d 81       	ldd	r18, Y+5	; 0x05
    5eee:	9e 81       	ldd	r25, Y+6	; 0x06
    5ef0:	8f 81       	ldd	r24, Y+7	; 0x07
    5ef2:	a3 2e       	mov	r10, r19
    5ef4:	b2 2e       	mov	r11, r18
    5ef6:	c9 2e       	mov	r12, r25
    5ef8:	d8 2e       	mov	r13, r24
    5efa:	ed 84       	ldd	r14, Y+13	; 0x0d
    5efc:	fe 84       	ldd	r15, Y+14	; 0x0e
    5efe:	87 01       	movw	r16, r14
    5f00:	20 91 2e 01 	lds	r18, 0x012E
    5f04:	30 91 2f 01 	lds	r19, 0x012F
    5f08:	40 91 30 01 	lds	r20, 0x0130
    5f0c:	50 91 31 01 	lds	r21, 0x0131
    5f10:	60 91 32 01 	lds	r22, 0x0132
    5f14:	70 91 33 01 	lds	r23, 0x0133
    5f18:	80 91 34 01 	lds	r24, 0x0134
    5f1c:	90 91 35 01 	lds	r25, 0x0135
    5f20:	0e 94 6b 13 	call	0x26d6	; 0x26d6 <CalcCurvedPath>
    5f24:	c0 90 5c 01 	lds	r12, 0x015C
    5f28:	d0 90 5d 01 	lds	r13, 0x015D
    5f2c:	d1 94       	neg	r13
    5f2e:	c1 94       	neg	r12
    5f30:	d1 08       	sbc	r13, r1
    5f32:	ee 24       	eor	r14, r14
    5f34:	d7 fc       	sbrc	r13, 7
    5f36:	e0 94       	com	r14
    5f38:	fe 2c       	mov	r15, r14
    5f3a:	60 91 5a 01 	lds	r22, 0x015A
    5f3e:	70 91 5b 01 	lds	r23, 0x015B
    5f42:	88 27       	eor	r24, r24
    5f44:	77 fd       	sbrc	r23, 7
    5f46:	80 95       	com	r24
    5f48:	98 2f       	mov	r25, r24
    5f4a:	0e 94 aa 50 	call	0xa154	; 0xa154 <__floatsisf>
    5f4e:	a6 2e       	mov	r10, r22
    5f50:	b7 2e       	mov	r11, r23
    5f52:	08 2f       	mov	r16, r24
    5f54:	19 2f       	mov	r17, r25
    5f56:	60 91 5e 01 	lds	r22, 0x015E
    5f5a:	70 91 5f 01 	lds	r23, 0x015F
    5f5e:	71 95       	neg	r23
    5f60:	61 95       	neg	r22
    5f62:	71 09       	sbc	r23, r1
    5f64:	88 27       	eor	r24, r24
    5f66:	77 fd       	sbrc	r23, 7
    5f68:	80 95       	com	r24
    5f6a:	98 2f       	mov	r25, r24
    5f6c:	0e 94 aa 50 	call	0xa154	; 0xa154 <__floatsisf>
    5f70:	69 83       	std	Y+1, r22	; 0x01
    5f72:	7d 83       	std	Y+5, r23	; 0x05
    5f74:	8e 83       	std	Y+6, r24	; 0x06
    5f76:	9f 83       	std	Y+7, r25	; 0x07
    5f78:	0f b6       	in	r0, 0x3f	; 63
    5f7a:	f8 94       	cli
    5f7c:	de bf       	out	0x3e, r29	; 62
    5f7e:	0f be       	out	0x3f, r0	; 63
    5f80:	cd bf       	out	0x3d, r28	; 61
    5f82:	1f 93       	push	r17
    5f84:	0f 93       	push	r16
    5f86:	bf 92       	push	r11
    5f88:	af 92       	push	r10
    5f8a:	68 85       	ldd	r22, Y+8	; 0x08
    5f8c:	79 85       	ldd	r23, Y+9	; 0x09
    5f8e:	8a 85       	ldd	r24, Y+10	; 0x0a
    5f90:	9b 85       	ldd	r25, Y+11	; 0x0b
    5f92:	6c 0d       	add	r22, r12
    5f94:	7d 1d       	adc	r23, r13
    5f96:	8e 1d       	adc	r24, r14
    5f98:	9f 1d       	adc	r25, r15
    5f9a:	0e 94 aa 50 	call	0xa154	; 0xa154 <__floatsisf>
    5f9e:	9f 93       	push	r25
    5fa0:	8f 93       	push	r24
    5fa2:	7f 93       	push	r23
    5fa4:	6f 93       	push	r22
    5fa6:	5f 81       	ldd	r21, Y+7	; 0x07
    5fa8:	5f 93       	push	r21
    5faa:	8e 81       	ldd	r24, Y+6	; 0x06
    5fac:	8f 93       	push	r24
    5fae:	9d 81       	ldd	r25, Y+5	; 0x05
    5fb0:	9f 93       	push	r25
    5fb2:	a9 81       	ldd	r26, Y+1	; 0x01
    5fb4:	af 93       	push	r26
    5fb6:	1f 93       	push	r17
    5fb8:	0f 93       	push	r16
    5fba:	bf 92       	push	r11
    5fbc:	af 92       	push	r10
    5fbe:	c7 01       	movw	r24, r14
    5fc0:	b6 01       	movw	r22, r12
    5fc2:	64 19       	sub	r22, r4
    5fc4:	75 09       	sbc	r23, r5
    5fc6:	86 09       	sbc	r24, r6
    5fc8:	97 09       	sbc	r25, r7
    5fca:	0e 94 aa 50 	call	0xa154	; 0xa154 <__floatsisf>
    5fce:	9f 93       	push	r25
    5fd0:	8f 93       	push	r24
    5fd2:	7f 93       	push	r23
    5fd4:	6f 93       	push	r22
    5fd6:	39 81       	ldd	r19, Y+1	; 0x01
    5fd8:	2d 81       	ldd	r18, Y+5	; 0x05
    5fda:	9e 81       	ldd	r25, Y+6	; 0x06
    5fdc:	8f 81       	ldd	r24, Y+7	; 0x07
    5fde:	a3 2e       	mov	r10, r19
    5fe0:	b2 2e       	mov	r11, r18
    5fe2:	c9 2e       	mov	r12, r25
    5fe4:	d8 2e       	mov	r13, r24
    5fe6:	74 01       	movw	r14, r8
    5fe8:	84 01       	movw	r16, r8
    5fea:	20 91 2e 01 	lds	r18, 0x012E
    5fee:	30 91 2f 01 	lds	r19, 0x012F
    5ff2:	40 91 30 01 	lds	r20, 0x0130
    5ff6:	50 91 31 01 	lds	r21, 0x0131
    5ffa:	60 91 32 01 	lds	r22, 0x0132
    5ffe:	70 91 33 01 	lds	r23, 0x0133
    6002:	80 91 34 01 	lds	r24, 0x0134
    6006:	90 91 35 01 	lds	r25, 0x0135
    600a:	0e 94 e6 0f 	call	0x1fcc	; 0x1fcc <CalcStraightPath>
    600e:	c0 90 5c 01 	lds	r12, 0x015C
    6012:	d0 90 5d 01 	lds	r13, 0x015D
    6016:	ee 24       	eor	r14, r14
    6018:	d7 fc       	sbrc	r13, 7
    601a:	e0 94       	com	r14
    601c:	fe 2c       	mov	r15, r14
    601e:	60 91 5a 01 	lds	r22, 0x015A
    6022:	70 91 5b 01 	lds	r23, 0x015B
    6026:	88 27       	eor	r24, r24
    6028:	77 fd       	sbrc	r23, 7
    602a:	80 95       	com	r24
    602c:	98 2f       	mov	r25, r24
    602e:	0e 94 aa 50 	call	0xa154	; 0xa154 <__floatsisf>
    6032:	a6 2e       	mov	r10, r22
    6034:	b7 2e       	mov	r11, r23
    6036:	08 2f       	mov	r16, r24
    6038:	19 2f       	mov	r17, r25
    603a:	60 91 5e 01 	lds	r22, 0x015E
    603e:	70 91 5f 01 	lds	r23, 0x015F
    6042:	88 27       	eor	r24, r24
    6044:	77 fd       	sbrc	r23, 7
    6046:	80 95       	com	r24
    6048:	98 2f       	mov	r25, r24
    604a:	0e 94 aa 50 	call	0xa154	; 0xa154 <__floatsisf>
    604e:	69 83       	std	Y+1, r22	; 0x01
    6050:	7d 83       	std	Y+5, r23	; 0x05
    6052:	8e 83       	std	Y+6, r24	; 0x06
    6054:	9f 83       	std	Y+7, r25	; 0x07
    6056:	1f 93       	push	r17
    6058:	0f 93       	push	r16
    605a:	bf 92       	push	r11
    605c:	af 92       	push	r10
    605e:	c7 01       	movw	r24, r14
    6060:	b6 01       	movw	r22, r12
    6062:	64 0d       	add	r22, r4
    6064:	75 1d       	adc	r23, r5
    6066:	86 1d       	adc	r24, r6
    6068:	97 1d       	adc	r25, r7
    606a:	0e 94 aa 50 	call	0xa154	; 0xa154 <__floatsisf>
    606e:	9f 93       	push	r25
    6070:	8f 93       	push	r24
    6072:	7f 93       	push	r23
    6074:	6f 93       	push	r22
    6076:	bf 81       	ldd	r27, Y+7	; 0x07
    6078:	bf 93       	push	r27
    607a:	ee 81       	ldd	r30, Y+6	; 0x06
    607c:	ef 93       	push	r30
    607e:	fd 81       	ldd	r31, Y+5	; 0x05
    6080:	ff 93       	push	r31
    6082:	29 81       	ldd	r18, Y+1	; 0x01
    6084:	2f 93       	push	r18
    6086:	1f 93       	push	r17
    6088:	0f 93       	push	r16
    608a:	bf 92       	push	r11
    608c:	af 92       	push	r10
    608e:	c7 01       	movw	r24, r14
    6090:	b6 01       	movw	r22, r12
    6092:	28 85       	ldd	r18, Y+8	; 0x08
    6094:	39 85       	ldd	r19, Y+9	; 0x09
    6096:	4a 85       	ldd	r20, Y+10	; 0x0a
    6098:	5b 85       	ldd	r21, Y+11	; 0x0b
    609a:	62 1b       	sub	r22, r18
    609c:	73 0b       	sbc	r23, r19
    609e:	84 0b       	sbc	r24, r20
    60a0:	95 0b       	sbc	r25, r21
    60a2:	0e 94 aa 50 	call	0xa154	; 0xa154 <__floatsisf>
    60a6:	9f 93       	push	r25
    60a8:	8f 93       	push	r24
    60aa:	7f 93       	push	r23
    60ac:	6f 93       	push	r22
    60ae:	39 81       	ldd	r19, Y+1	; 0x01
    60b0:	2d 81       	ldd	r18, Y+5	; 0x05
    60b2:	9e 81       	ldd	r25, Y+6	; 0x06
    60b4:	8f 81       	ldd	r24, Y+7	; 0x07
    60b6:	a3 2e       	mov	r10, r19
    60b8:	b2 2e       	mov	r11, r18
    60ba:	c9 2e       	mov	r12, r25
    60bc:	d8 2e       	mov	r13, r24
    60be:	e1 2c       	mov	r14, r1
    60c0:	f1 2c       	mov	r15, r1
    60c2:	84 01       	movw	r16, r8
    60c4:	20 91 36 01 	lds	r18, 0x0136
    60c8:	30 91 37 01 	lds	r19, 0x0137
    60cc:	40 91 38 01 	lds	r20, 0x0138
    60d0:	50 91 39 01 	lds	r21, 0x0139
    60d4:	60 91 3a 01 	lds	r22, 0x013A
    60d8:	70 91 3b 01 	lds	r23, 0x013B
    60dc:	80 91 3c 01 	lds	r24, 0x013C
    60e0:	90 91 3d 01 	lds	r25, 0x013D
    60e4:	0e 94 e6 0f 	call	0x1fcc	; 0x1fcc <CalcStraightPath>
    60e8:	c0 90 5c 01 	lds	r12, 0x015C
    60ec:	d0 90 5d 01 	lds	r13, 0x015D
    60f0:	ee 24       	eor	r14, r14
    60f2:	d7 fc       	sbrc	r13, 7
    60f4:	e0 94       	com	r14
    60f6:	fe 2c       	mov	r15, r14
    60f8:	60 91 5a 01 	lds	r22, 0x015A
    60fc:	70 91 5b 01 	lds	r23, 0x015B
    6100:	88 27       	eor	r24, r24
    6102:	77 fd       	sbrc	r23, 7
    6104:	80 95       	com	r24
    6106:	98 2f       	mov	r25, r24
    6108:	0e 94 aa 50 	call	0xa154	; 0xa154 <__floatsisf>
    610c:	a6 2e       	mov	r10, r22
    610e:	b7 2e       	mov	r11, r23
    6110:	08 2f       	mov	r16, r24
    6112:	19 2f       	mov	r17, r25
    6114:	60 91 5e 01 	lds	r22, 0x015E
    6118:	70 91 5f 01 	lds	r23, 0x015F
    611c:	88 27       	eor	r24, r24
    611e:	77 fd       	sbrc	r23, 7
    6120:	80 95       	com	r24
    6122:	98 2f       	mov	r25, r24
    6124:	0e 94 aa 50 	call	0xa154	; 0xa154 <__floatsisf>
    6128:	69 83       	std	Y+1, r22	; 0x01
    612a:	7d 83       	std	Y+5, r23	; 0x05
    612c:	8e 83       	std	Y+6, r24	; 0x06
    612e:	9f 83       	std	Y+7, r25	; 0x07
    6130:	0f b6       	in	r0, 0x3f	; 63
    6132:	f8 94       	cli
    6134:	de bf       	out	0x3e, r29	; 62
    6136:	0f be       	out	0x3f, r0	; 63
    6138:	cd bf       	out	0x3d, r28	; 61
    613a:	1f 93       	push	r17
    613c:	0f 93       	push	r16
    613e:	bf 92       	push	r11
    6140:	af 92       	push	r10
    6142:	c7 01       	movw	r24, r14
    6144:	b6 01       	movw	r22, r12
    6146:	64 19       	sub	r22, r4
    6148:	75 09       	sbc	r23, r5
    614a:	86 09       	sbc	r24, r6
    614c:	97 09       	sbc	r25, r7
    614e:	0e 94 aa 50 	call	0xa154	; 0xa154 <__floatsisf>
    6152:	9f 93       	push	r25
    6154:	8f 93       	push	r24
    6156:	7f 93       	push	r23
    6158:	6f 93       	push	r22
    615a:	5f 81       	ldd	r21, Y+7	; 0x07
    615c:	5f 93       	push	r21
    615e:	8e 81       	ldd	r24, Y+6	; 0x06
    6160:	8f 93       	push	r24
    6162:	9d 81       	ldd	r25, Y+5	; 0x05
    6164:	9f 93       	push	r25
    6166:	a9 81       	ldd	r26, Y+1	; 0x01
    6168:	af 93       	push	r26
    616a:	1f 93       	push	r17
    616c:	0f 93       	push	r16
    616e:	bf 92       	push	r11
    6170:	af 92       	push	r10
    6172:	c3 01       	movw	r24, r6
    6174:	b2 01       	movw	r22, r4
    6176:	6c 0d       	add	r22, r12
    6178:	7d 1d       	adc	r23, r13
    617a:	8e 1d       	adc	r24, r14
    617c:	9f 1d       	adc	r25, r15
    617e:	0e 94 aa 50 	call	0xa154	; 0xa154 <__floatsisf>
    6182:	9f 93       	push	r25
    6184:	8f 93       	push	r24
    6186:	7f 93       	push	r23
    6188:	6f 93       	push	r22
    618a:	39 81       	ldd	r19, Y+1	; 0x01
    618c:	2d 81       	ldd	r18, Y+5	; 0x05
    618e:	9e 81       	ldd	r25, Y+6	; 0x06
    6190:	8f 81       	ldd	r24, Y+7	; 0x07
    6192:	a3 2e       	mov	r10, r19
    6194:	b2 2e       	mov	r11, r18
    6196:	c9 2e       	mov	r12, r25
    6198:	d8 2e       	mov	r13, r24
    619a:	74 01       	movw	r14, r8
    619c:	0d 85       	ldd	r16, Y+13	; 0x0d
    619e:	1e 85       	ldd	r17, Y+14	; 0x0e
    61a0:	20 91 36 01 	lds	r18, 0x0136
    61a4:	30 91 37 01 	lds	r19, 0x0137
    61a8:	40 91 38 01 	lds	r20, 0x0138
    61ac:	50 91 39 01 	lds	r21, 0x0139
    61b0:	60 91 3a 01 	lds	r22, 0x013A
    61b4:	70 91 3b 01 	lds	r23, 0x013B
    61b8:	80 91 3c 01 	lds	r24, 0x013C
    61bc:	90 91 3d 01 	lds	r25, 0x013D
    61c0:	0e 94 6b 13 	call	0x26d6	; 0x26d6 <CalcCurvedPath>
    61c4:	c0 90 5c 01 	lds	r12, 0x015C
    61c8:	d0 90 5d 01 	lds	r13, 0x015D
    61cc:	ee 24       	eor	r14, r14
    61ce:	d7 fc       	sbrc	r13, 7
    61d0:	e0 94       	com	r14
    61d2:	fe 2c       	mov	r15, r14
    61d4:	60 91 5a 01 	lds	r22, 0x015A
    61d8:	70 91 5b 01 	lds	r23, 0x015B
    61dc:	88 27       	eor	r24, r24
    61de:	77 fd       	sbrc	r23, 7
    61e0:	80 95       	com	r24
    61e2:	98 2f       	mov	r25, r24
    61e4:	0e 94 aa 50 	call	0xa154	; 0xa154 <__floatsisf>
    61e8:	a6 2e       	mov	r10, r22
    61ea:	b7 2e       	mov	r11, r23
    61ec:	18 2f       	mov	r17, r24
    61ee:	09 2f       	mov	r16, r25
    61f0:	60 91 5e 01 	lds	r22, 0x015E
    61f4:	70 91 5f 01 	lds	r23, 0x015F
    61f8:	88 27       	eor	r24, r24
    61fa:	77 fd       	sbrc	r23, 7
    61fc:	80 95       	com	r24
    61fe:	98 2f       	mov	r25, r24
    6200:	0e 94 aa 50 	call	0xa154	; 0xa154 <__floatsisf>
    6204:	96 2e       	mov	r9, r22
    6206:	87 2e       	mov	r8, r23
    6208:	89 83       	std	Y+1, r24	; 0x01
    620a:	9d 83       	std	Y+5, r25	; 0x05
    620c:	0f 93       	push	r16
    620e:	1f 93       	push	r17
    6210:	bf 92       	push	r11
    6212:	af 92       	push	r10
    6214:	c7 01       	movw	r24, r14
    6216:	b6 01       	movw	r22, r12
    6218:	28 85       	ldd	r18, Y+8	; 0x08
    621a:	39 85       	ldd	r19, Y+9	; 0x09
    621c:	4a 85       	ldd	r20, Y+10	; 0x0a
    621e:	5b 85       	ldd	r21, Y+11	; 0x0b
    6220:	62 1b       	sub	r22, r18
    6222:	73 0b       	sbc	r23, r19
    6224:	84 0b       	sbc	r24, r20
    6226:	95 0b       	sbc	r25, r21
    6228:	0e 94 aa 50 	call	0xa154	; 0xa154 <__floatsisf>
    622c:	9f 93       	push	r25
    622e:	8f 93       	push	r24
    6230:	7f 93       	push	r23
    6232:	6f 93       	push	r22
    6234:	3d 81       	ldd	r19, Y+5	; 0x05
    6236:	3f 93       	push	r19
    6238:	49 81       	ldd	r20, Y+1	; 0x01
    623a:	4f 93       	push	r20
    623c:	8f 92       	push	r8
    623e:	9f 92       	push	r9
    6240:	0f 93       	push	r16
    6242:	1f 93       	push	r17
    6244:	bf 92       	push	r11
    6246:	af 92       	push	r10
    6248:	c7 01       	movw	r24, r14
    624a:	b6 01       	movw	r22, r12
    624c:	64 19       	sub	r22, r4
    624e:	75 09       	sbc	r23, r5
    6250:	86 09       	sbc	r24, r6
    6252:	97 09       	sbc	r25, r7
    6254:	0e 94 aa 50 	call	0xa154	; 0xa154 <__floatsisf>
    6258:	9f 93       	push	r25
    625a:	8f 93       	push	r24
    625c:	7f 93       	push	r23
    625e:	6f 93       	push	r22
    6260:	99 81       	ldd	r25, Y+1	; 0x01
    6262:	8d 81       	ldd	r24, Y+5	; 0x05
    6264:	a9 2c       	mov	r10, r9
    6266:	b8 2c       	mov	r11, r8
    6268:	c9 2e       	mov	r12, r25
    626a:	d8 2e       	mov	r13, r24
    626c:	71 01       	movw	r14, r2
    626e:	0d 85       	ldd	r16, Y+13	; 0x0d
    6270:	1e 85       	ldd	r17, Y+14	; 0x0e
    6272:	20 91 36 01 	lds	r18, 0x0136
    6276:	30 91 37 01 	lds	r19, 0x0137
    627a:	40 91 38 01 	lds	r20, 0x0138
    627e:	50 91 39 01 	lds	r21, 0x0139
    6282:	60 91 3a 01 	lds	r22, 0x013A
    6286:	70 91 3b 01 	lds	r23, 0x013B
    628a:	80 91 3c 01 	lds	r24, 0x013C
    628e:	90 91 3d 01 	lds	r25, 0x013D
    6292:	0e 94 e6 0f 	call	0x1fcc	; 0x1fcc <CalcStraightPath>
    6296:	c0 90 5c 01 	lds	r12, 0x015C
    629a:	d0 90 5d 01 	lds	r13, 0x015D
    629e:	d1 94       	neg	r13
    62a0:	c1 94       	neg	r12
    62a2:	d1 08       	sbc	r13, r1
    62a4:	ee 24       	eor	r14, r14
    62a6:	d7 fc       	sbrc	r13, 7
    62a8:	e0 94       	com	r14
    62aa:	fe 2c       	mov	r15, r14
    62ac:	60 91 5a 01 	lds	r22, 0x015A
    62b0:	70 91 5b 01 	lds	r23, 0x015B
    62b4:	88 27       	eor	r24, r24
    62b6:	77 fd       	sbrc	r23, 7
    62b8:	80 95       	com	r24
    62ba:	98 2f       	mov	r25, r24
    62bc:	0e 94 aa 50 	call	0xa154	; 0xa154 <__floatsisf>
    62c0:	b6 2e       	mov	r11, r22
    62c2:	a7 2e       	mov	r10, r23
    62c4:	98 2e       	mov	r9, r24
    62c6:	89 2e       	mov	r8, r25
    62c8:	60 91 5e 01 	lds	r22, 0x015E
    62cc:	70 91 5f 01 	lds	r23, 0x015F
    62d0:	88 27       	eor	r24, r24
    62d2:	77 fd       	sbrc	r23, 7
    62d4:	80 95       	com	r24
    62d6:	98 2f       	mov	r25, r24
    62d8:	0e 94 aa 50 	call	0xa154	; 0xa154 <__floatsisf>
    62dc:	06 2f       	mov	r16, r22
    62de:	17 2f       	mov	r17, r23
    62e0:	88 87       	std	Y+8, r24	; 0x08
    62e2:	99 83       	std	Y+1, r25	; 0x01
    62e4:	0f b6       	in	r0, 0x3f	; 63
    62e6:	f8 94       	cli
    62e8:	de bf       	out	0x3e, r29	; 62
    62ea:	0f be       	out	0x3f, r0	; 63
    62ec:	cd bf       	out	0x3d, r28	; 61
    62ee:	8f 92       	push	r8
    62f0:	9f 92       	push	r9
    62f2:	af 92       	push	r10
    62f4:	bf 92       	push	r11
    62f6:	c7 01       	movw	r24, r14
    62f8:	b6 01       	movw	r22, r12
    62fa:	64 0d       	add	r22, r4
    62fc:	75 1d       	adc	r23, r5
    62fe:	86 1d       	adc	r24, r6
    6300:	97 1d       	adc	r25, r7
    6302:	0e 94 aa 50 	call	0xa154	; 0xa154 <__floatsisf>
    6306:	9f 93       	push	r25
    6308:	8f 93       	push	r24
    630a:	7f 93       	push	r23
    630c:	6f 93       	push	r22
    630e:	99 81       	ldd	r25, Y+1	; 0x01
    6310:	9f 93       	push	r25
    6312:	a8 85       	ldd	r26, Y+8	; 0x08
    6314:	af 93       	push	r26
    6316:	1f 93       	push	r17
    6318:	0f 93       	push	r16
    631a:	8f 92       	push	r8
    631c:	9f 92       	push	r9
    631e:	af 92       	push	r10
    6320:	bf 92       	push	r11
    6322:	c7 01       	movw	r24, r14
    6324:	b6 01       	movw	r22, r12
    6326:	64 19       	sub	r22, r4
    6328:	75 09       	sbc	r23, r5
    632a:	86 09       	sbc	r24, r6
    632c:	97 09       	sbc	r25, r7
    632e:	0e 94 aa 50 	call	0xa154	; 0xa154 <__floatsisf>
    6332:	9f 93       	push	r25
    6334:	8f 93       	push	r24
    6336:	7f 93       	push	r23
    6338:	6f 93       	push	r22
    633a:	98 85       	ldd	r25, Y+8	; 0x08
    633c:	89 81       	ldd	r24, Y+1	; 0x01
    633e:	a0 2e       	mov	r10, r16
    6340:	b1 2e       	mov	r11, r17
    6342:	c9 2e       	mov	r12, r25
    6344:	d8 2e       	mov	r13, r24
    6346:	e1 2c       	mov	r14, r1
    6348:	f1 2c       	mov	r15, r1
    634a:	81 01       	movw	r16, r2
    634c:	20 91 26 01 	lds	r18, 0x0126
    6350:	30 91 27 01 	lds	r19, 0x0127
    6354:	40 91 28 01 	lds	r20, 0x0128
    6358:	50 91 29 01 	lds	r21, 0x0129
    635c:	60 91 2a 01 	lds	r22, 0x012A
    6360:	70 91 2b 01 	lds	r23, 0x012B
    6364:	80 91 2c 01 	lds	r24, 0x012C
    6368:	90 91 2d 01 	lds	r25, 0x012D
    636c:	0e 94 e6 0f 	call	0x1fcc	; 0x1fcc <CalcStraightPath>
    6370:	c0 90 5c 01 	lds	r12, 0x015C
    6374:	d0 90 5d 01 	lds	r13, 0x015D
    6378:	d1 94       	neg	r13
    637a:	c1 94       	neg	r12
    637c:	d1 08       	sbc	r13, r1
    637e:	ee 24       	eor	r14, r14
    6380:	d7 fc       	sbrc	r13, 7
    6382:	e0 94       	com	r14
    6384:	fe 2c       	mov	r15, r14
    6386:	60 91 5a 01 	lds	r22, 0x015A
    638a:	70 91 5b 01 	lds	r23, 0x015B
    638e:	88 27       	eor	r24, r24
    6390:	77 fd       	sbrc	r23, 7
    6392:	80 95       	com	r24
    6394:	98 2f       	mov	r25, r24
    6396:	0e 94 aa 50 	call	0xa154	; 0xa154 <__floatsisf>
    639a:	b6 2e       	mov	r11, r22
    639c:	a7 2e       	mov	r10, r23
    639e:	98 2e       	mov	r9, r24
    63a0:	89 2e       	mov	r8, r25
    63a2:	60 91 5e 01 	lds	r22, 0x015E
    63a6:	70 91 5f 01 	lds	r23, 0x015F
    63aa:	88 27       	eor	r24, r24
    63ac:	77 fd       	sbrc	r23, 7
    63ae:	80 95       	com	r24
    63b0:	98 2f       	mov	r25, r24
    63b2:	0e 94 aa 50 	call	0xa154	; 0xa154 <__floatsisf>
    63b6:	06 2f       	mov	r16, r22
    63b8:	17 2f       	mov	r17, r23
    63ba:	88 87       	std	Y+8, r24	; 0x08
    63bc:	99 83       	std	Y+1, r25	; 0x01
    63be:	8f 92       	push	r8
    63c0:	9f 92       	push	r9
    63c2:	af 92       	push	r10
    63c4:	bf 92       	push	r11
    63c6:	c7 01       	movw	r24, r14
    63c8:	b6 01       	movw	r22, r12
    63ca:	64 19       	sub	r22, r4
    63cc:	75 09       	sbc	r23, r5
    63ce:	86 09       	sbc	r24, r6
    63d0:	97 09       	sbc	r25, r7
    63d2:	0e 94 aa 50 	call	0xa154	; 0xa154 <__floatsisf>
    63d6:	9f 93       	push	r25
    63d8:	8f 93       	push	r24
    63da:	7f 93       	push	r23
    63dc:	6f 93       	push	r22
    63de:	b9 81       	ldd	r27, Y+1	; 0x01
    63e0:	bf 93       	push	r27
    63e2:	e8 85       	ldd	r30, Y+8	; 0x08
    63e4:	ef 93       	push	r30
    63e6:	1f 93       	push	r17
    63e8:	0f 93       	push	r16
    63ea:	8f 92       	push	r8
    63ec:	9f 92       	push	r9
    63ee:	af 92       	push	r10
    63f0:	bf 92       	push	r11
    63f2:	c3 01       	movw	r24, r6
    63f4:	b2 01       	movw	r22, r4
    63f6:	6c 0d       	add	r22, r12
    63f8:	7d 1d       	adc	r23, r13
    63fa:	8e 1d       	adc	r24, r14
    63fc:	9f 1d       	adc	r25, r15
    63fe:	0e 94 aa 50 	call	0xa154	; 0xa154 <__floatsisf>
    6402:	9f 93       	push	r25
    6404:	8f 93       	push	r24
    6406:	7f 93       	push	r23
    6408:	6f 93       	push	r22
    640a:	98 85       	ldd	r25, Y+8	; 0x08
    640c:	89 81       	ldd	r24, Y+1	; 0x01
    640e:	a0 2e       	mov	r10, r16
    6410:	b1 2e       	mov	r11, r17
    6412:	c9 2e       	mov	r12, r25
    6414:	d8 2e       	mov	r13, r24
    6416:	71 01       	movw	r14, r2
    6418:	0d 85       	ldd	r16, Y+13	; 0x0d
    641a:	1e 85       	ldd	r17, Y+14	; 0x0e
    641c:	20 91 26 01 	lds	r18, 0x0126
    6420:	30 91 27 01 	lds	r19, 0x0127
    6424:	40 91 28 01 	lds	r20, 0x0128
    6428:	50 91 29 01 	lds	r21, 0x0129
    642c:	60 91 2a 01 	lds	r22, 0x012A
    6430:	70 91 2b 01 	lds	r23, 0x012B
    6434:	80 91 2c 01 	lds	r24, 0x012C
    6438:	90 91 2d 01 	lds	r25, 0x012D
    643c:	0e 94 6b 13 	call	0x26d6	; 0x26d6 <CalcCurvedPath>
    6440:	0f b6       	in	r0, 0x3f	; 63
    6442:	f8 94       	cli
    6444:	de bf       	out	0x3e, r29	; 62
    6446:	0f be       	out	0x3f, r0	; 63
    6448:	cd bf       	out	0x3d, r28	; 61
    644a:	9c c4       	rjmp	.+2360   	; 0x6d84 <makeCreepGait+0x247a>
    644c:	80 91 5e 01 	lds	r24, 0x015E
    6450:	90 91 5f 01 	lds	r25, 0x015F
    6454:	9c 01       	movw	r18, r24
    6456:	44 27       	eor	r20, r20
    6458:	37 fd       	sbrc	r19, 7
    645a:	40 95       	com	r20
    645c:	54 2f       	mov	r21, r20
    645e:	29 83       	std	Y+1, r18	; 0x01
    6460:	3a 83       	std	Y+2, r19	; 0x02
    6462:	4b 83       	std	Y+3, r20	; 0x03
    6464:	5c 83       	std	Y+4, r21	; 0x04
    6466:	60 91 5a 01 	lds	r22, 0x015A
    646a:	70 91 5b 01 	lds	r23, 0x015B
    646e:	88 27       	eor	r24, r24
    6470:	77 fd       	sbrc	r23, 7
    6472:	80 95       	com	r24
    6474:	98 2f       	mov	r25, r24
    6476:	0e 94 aa 50 	call	0xa154	; 0xa154 <__floatsisf>
    647a:	e6 2e       	mov	r14, r22
    647c:	17 2f       	mov	r17, r23
    647e:	08 2f       	mov	r16, r24
    6480:	f9 2e       	mov	r15, r25
    6482:	60 91 5c 01 	lds	r22, 0x015C
    6486:	70 91 5d 01 	lds	r23, 0x015D
    648a:	88 27       	eor	r24, r24
    648c:	77 fd       	sbrc	r23, 7
    648e:	80 95       	com	r24
    6490:	98 2f       	mov	r25, r24
    6492:	0e 94 aa 50 	call	0xa154	; 0xa154 <__floatsisf>
    6496:	26 2e       	mov	r2, r22
    6498:	37 2e       	mov	r3, r23
    649a:	88 2e       	mov	r8, r24
    649c:	99 2e       	mov	r9, r25
    649e:	69 81       	ldd	r22, Y+1	; 0x01
    64a0:	7a 81       	ldd	r23, Y+2	; 0x02
    64a2:	8b 81       	ldd	r24, Y+3	; 0x03
    64a4:	9c 81       	ldd	r25, Y+4	; 0x04
    64a6:	64 0d       	add	r22, r4
    64a8:	75 1d       	adc	r23, r5
    64aa:	86 1d       	adc	r24, r6
    64ac:	97 1d       	adc	r25, r7
    64ae:	0e 94 aa 50 	call	0xa154	; 0xa154 <__floatsisf>
    64b2:	5b 01       	movw	r10, r22
    64b4:	6c 01       	movw	r12, r24
    64b6:	ff 92       	push	r15
    64b8:	0f 93       	push	r16
    64ba:	1f 93       	push	r17
    64bc:	ef 92       	push	r14
    64be:	9f 92       	push	r9
    64c0:	8f 92       	push	r8
    64c2:	3f 92       	push	r3
    64c4:	2f 92       	push	r2
    64c6:	69 81       	ldd	r22, Y+1	; 0x01
    64c8:	7a 81       	ldd	r23, Y+2	; 0x02
    64ca:	8b 81       	ldd	r24, Y+3	; 0x03
    64cc:	9c 81       	ldd	r25, Y+4	; 0x04
    64ce:	64 19       	sub	r22, r4
    64d0:	75 09       	sbc	r23, r5
    64d2:	86 09       	sbc	r24, r6
    64d4:	97 09       	sbc	r25, r7
    64d6:	0e 94 aa 50 	call	0xa154	; 0xa154 <__floatsisf>
    64da:	9f 93       	push	r25
    64dc:	8f 93       	push	r24
    64de:	7f 93       	push	r23
    64e0:	6f 93       	push	r22
    64e2:	ff 92       	push	r15
    64e4:	0f 93       	push	r16
    64e6:	1f 93       	push	r17
    64e8:	ef 92       	push	r14
    64ea:	9f 92       	push	r9
    64ec:	8f 92       	push	r8
    64ee:	3f 92       	push	r3
    64f0:	2f 92       	push	r2
    64f2:	e1 2c       	mov	r14, r1
    64f4:	f1 2c       	mov	r15, r1
    64f6:	0d 85       	ldd	r16, Y+13	; 0x0d
    64f8:	1e 85       	ldd	r17, Y+14	; 0x0e
    64fa:	20 91 36 01 	lds	r18, 0x0136
    64fe:	30 91 37 01 	lds	r19, 0x0137
    6502:	40 91 38 01 	lds	r20, 0x0138
    6506:	50 91 39 01 	lds	r21, 0x0139
    650a:	60 91 3a 01 	lds	r22, 0x013A
    650e:	70 91 3b 01 	lds	r23, 0x013B
    6512:	80 91 3c 01 	lds	r24, 0x013C
    6516:	90 91 3d 01 	lds	r25, 0x013D
    651a:	0e 94 6b 13 	call	0x26d6	; 0x26d6 <CalcCurvedPath>
    651e:	80 91 5e 01 	lds	r24, 0x015E
    6522:	90 91 5f 01 	lds	r25, 0x015F
    6526:	9c 01       	movw	r18, r24
    6528:	44 27       	eor	r20, r20
    652a:	37 fd       	sbrc	r19, 7
    652c:	40 95       	com	r20
    652e:	54 2f       	mov	r21, r20
    6530:	29 83       	std	Y+1, r18	; 0x01
    6532:	3a 83       	std	Y+2, r19	; 0x02
    6534:	4b 83       	std	Y+3, r20	; 0x03
    6536:	5c 83       	std	Y+4, r21	; 0x04
    6538:	60 91 5a 01 	lds	r22, 0x015A
    653c:	70 91 5b 01 	lds	r23, 0x015B
    6540:	88 27       	eor	r24, r24
    6542:	77 fd       	sbrc	r23, 7
    6544:	80 95       	com	r24
    6546:	98 2f       	mov	r25, r24
    6548:	0e 94 aa 50 	call	0xa154	; 0xa154 <__floatsisf>
    654c:	e6 2e       	mov	r14, r22
    654e:	f7 2e       	mov	r15, r23
    6550:	08 2f       	mov	r16, r24
    6552:	19 2f       	mov	r17, r25
    6554:	60 91 5c 01 	lds	r22, 0x015C
    6558:	70 91 5d 01 	lds	r23, 0x015D
    655c:	88 27       	eor	r24, r24
    655e:	77 fd       	sbrc	r23, 7
    6560:	80 95       	com	r24
    6562:	98 2f       	mov	r25, r24
    6564:	0e 94 aa 50 	call	0xa154	; 0xa154 <__floatsisf>
    6568:	6d 83       	std	Y+5, r22	; 0x05
    656a:	7e 83       	std	Y+6, r23	; 0x06
    656c:	8f 83       	std	Y+7, r24	; 0x07
    656e:	9c 87       	std	Y+12, r25	; 0x0c
    6570:	8d 84       	ldd	r8, Y+13	; 0x0d
    6572:	9e 84       	ldd	r9, Y+14	; 0x0e
    6574:	88 0c       	add	r8, r8
    6576:	99 1c       	adc	r9, r9
    6578:	2d 84       	ldd	r2, Y+13	; 0x0d
    657a:	3e 84       	ldd	r3, Y+14	; 0x0e
    657c:	28 0c       	add	r2, r8
    657e:	39 1c       	adc	r3, r9
    6580:	69 81       	ldd	r22, Y+1	; 0x01
    6582:	7a 81       	ldd	r23, Y+2	; 0x02
    6584:	8b 81       	ldd	r24, Y+3	; 0x03
    6586:	9c 81       	ldd	r25, Y+4	; 0x04
    6588:	64 19       	sub	r22, r4
    658a:	75 09       	sbc	r23, r5
    658c:	86 09       	sbc	r24, r6
    658e:	97 09       	sbc	r25, r7
    6590:	0e 94 aa 50 	call	0xa154	; 0xa154 <__floatsisf>
    6594:	5b 01       	movw	r10, r22
    6596:	6c 01       	movw	r12, r24
    6598:	1f 93       	push	r17
    659a:	0f 93       	push	r16
    659c:	ff 92       	push	r15
    659e:	ef 92       	push	r14
    65a0:	3c 85       	ldd	r19, Y+12	; 0x0c
    65a2:	3f 93       	push	r19
    65a4:	4f 81       	ldd	r20, Y+7	; 0x07
    65a6:	4f 93       	push	r20
    65a8:	5e 81       	ldd	r21, Y+6	; 0x06
    65aa:	5f 93       	push	r21
    65ac:	8d 81       	ldd	r24, Y+5	; 0x05
    65ae:	8f 93       	push	r24
    65b0:	69 81       	ldd	r22, Y+1	; 0x01
    65b2:	7a 81       	ldd	r23, Y+2	; 0x02
    65b4:	8b 81       	ldd	r24, Y+3	; 0x03
    65b6:	9c 81       	ldd	r25, Y+4	; 0x04
    65b8:	64 0d       	add	r22, r4
    65ba:	75 1d       	adc	r23, r5
    65bc:	86 1d       	adc	r24, r6
    65be:	97 1d       	adc	r25, r7
    65c0:	0e 94 aa 50 	call	0xa154	; 0xa154 <__floatsisf>
    65c4:	9f 93       	push	r25
    65c6:	8f 93       	push	r24
    65c8:	7f 93       	push	r23
    65ca:	6f 93       	push	r22
    65cc:	1f 93       	push	r17
    65ce:	0f 93       	push	r16
    65d0:	ff 92       	push	r15
    65d2:	ef 92       	push	r14
    65d4:	9c 85       	ldd	r25, Y+12	; 0x0c
    65d6:	9f 93       	push	r25
    65d8:	af 81       	ldd	r26, Y+7	; 0x07
    65da:	af 93       	push	r26
    65dc:	be 81       	ldd	r27, Y+6	; 0x06
    65de:	bf 93       	push	r27
    65e0:	ed 81       	ldd	r30, Y+5	; 0x05
    65e2:	ef 93       	push	r30
    65e4:	ed 84       	ldd	r14, Y+13	; 0x0d
    65e6:	fe 84       	ldd	r15, Y+14	; 0x0e
    65e8:	81 01       	movw	r16, r2
    65ea:	20 91 36 01 	lds	r18, 0x0136
    65ee:	30 91 37 01 	lds	r19, 0x0137
    65f2:	40 91 38 01 	lds	r20, 0x0138
    65f6:	50 91 39 01 	lds	r21, 0x0139
    65fa:	60 91 3a 01 	lds	r22, 0x013A
    65fe:	70 91 3b 01 	lds	r23, 0x013B
    6602:	80 91 3c 01 	lds	r24, 0x013C
    6606:	90 91 3d 01 	lds	r25, 0x013D
    660a:	0e 94 e6 0f 	call	0x1fcc	; 0x1fcc <CalcStraightPath>
    660e:	80 91 5e 01 	lds	r24, 0x015E
    6612:	90 91 5f 01 	lds	r25, 0x015F
    6616:	91 95       	neg	r25
    6618:	81 95       	neg	r24
    661a:	91 09       	sbc	r25, r1
    661c:	9c 01       	movw	r18, r24
    661e:	44 27       	eor	r20, r20
    6620:	37 fd       	sbrc	r19, 7
    6622:	40 95       	com	r20
    6624:	54 2f       	mov	r21, r20
    6626:	29 83       	std	Y+1, r18	; 0x01
    6628:	3a 83       	std	Y+2, r19	; 0x02
    662a:	4b 83       	std	Y+3, r20	; 0x03
    662c:	5c 83       	std	Y+4, r21	; 0x04
    662e:	60 91 5a 01 	lds	r22, 0x015A
    6632:	70 91 5b 01 	lds	r23, 0x015B
    6636:	88 27       	eor	r24, r24
    6638:	77 fd       	sbrc	r23, 7
    663a:	80 95       	com	r24
    663c:	98 2f       	mov	r25, r24
    663e:	0e 94 aa 50 	call	0xa154	; 0xa154 <__floatsisf>
    6642:	e6 2e       	mov	r14, r22
    6644:	f7 2e       	mov	r15, r23
    6646:	08 2f       	mov	r16, r24
    6648:	19 2f       	mov	r17, r25
    664a:	60 91 5c 01 	lds	r22, 0x015C
    664e:	70 91 5d 01 	lds	r23, 0x015D
    6652:	88 27       	eor	r24, r24
    6654:	77 fd       	sbrc	r23, 7
    6656:	80 95       	com	r24
    6658:	98 2f       	mov	r25, r24
    665a:	0e 94 aa 50 	call	0xa154	; 0xa154 <__floatsisf>
    665e:	6d 83       	std	Y+5, r22	; 0x05
    6660:	7e 83       	std	Y+6, r23	; 0x06
    6662:	8f 83       	std	Y+7, r24	; 0x07
    6664:	9c 87       	std	Y+12, r25	; 0x0c
    6666:	0f b6       	in	r0, 0x3f	; 63
    6668:	f8 94       	cli
    666a:	de bf       	out	0x3e, r29	; 62
    666c:	0f be       	out	0x3f, r0	; 63
    666e:	cd bf       	out	0x3d, r28	; 61
    6670:	68 85       	ldd	r22, Y+8	; 0x08
    6672:	79 85       	ldd	r23, Y+9	; 0x09
    6674:	8a 85       	ldd	r24, Y+10	; 0x0a
    6676:	9b 85       	ldd	r25, Y+11	; 0x0b
    6678:	29 81       	ldd	r18, Y+1	; 0x01
    667a:	3a 81       	ldd	r19, Y+2	; 0x02
    667c:	4b 81       	ldd	r20, Y+3	; 0x03
    667e:	5c 81       	ldd	r21, Y+4	; 0x04
    6680:	62 0f       	add	r22, r18
    6682:	73 1f       	adc	r23, r19
    6684:	84 1f       	adc	r24, r20
    6686:	95 1f       	adc	r25, r21
    6688:	0e 94 aa 50 	call	0xa154	; 0xa154 <__floatsisf>
    668c:	5b 01       	movw	r10, r22
    668e:	6c 01       	movw	r12, r24
    6690:	1f 93       	push	r17
    6692:	0f 93       	push	r16
    6694:	ff 92       	push	r15
    6696:	ef 92       	push	r14
    6698:	3c 85       	ldd	r19, Y+12	; 0x0c
    669a:	3f 93       	push	r19
    669c:	4f 81       	ldd	r20, Y+7	; 0x07
    669e:	4f 93       	push	r20
    66a0:	5e 81       	ldd	r21, Y+6	; 0x06
    66a2:	5f 93       	push	r21
    66a4:	8d 81       	ldd	r24, Y+5	; 0x05
    66a6:	8f 93       	push	r24
    66a8:	69 81       	ldd	r22, Y+1	; 0x01
    66aa:	7a 81       	ldd	r23, Y+2	; 0x02
    66ac:	8b 81       	ldd	r24, Y+3	; 0x03
    66ae:	9c 81       	ldd	r25, Y+4	; 0x04
    66b0:	64 0d       	add	r22, r4
    66b2:	75 1d       	adc	r23, r5
    66b4:	86 1d       	adc	r24, r6
    66b6:	97 1d       	adc	r25, r7
    66b8:	0e 94 aa 50 	call	0xa154	; 0xa154 <__floatsisf>
    66bc:	9f 93       	push	r25
    66be:	8f 93       	push	r24
    66c0:	7f 93       	push	r23
    66c2:	6f 93       	push	r22
    66c4:	1f 93       	push	r17
    66c6:	0f 93       	push	r16
    66c8:	ff 92       	push	r15
    66ca:	ef 92       	push	r14
    66cc:	9c 85       	ldd	r25, Y+12	; 0x0c
    66ce:	9f 93       	push	r25
    66d0:	af 81       	ldd	r26, Y+7	; 0x07
    66d2:	af 93       	push	r26
    66d4:	be 81       	ldd	r27, Y+6	; 0x06
    66d6:	bf 93       	push	r27
    66d8:	ed 81       	ldd	r30, Y+5	; 0x05
    66da:	ef 93       	push	r30
    66dc:	e1 2c       	mov	r14, r1
    66de:	f1 2c       	mov	r15, r1
    66e0:	0d 85       	ldd	r16, Y+13	; 0x0d
    66e2:	1e 85       	ldd	r17, Y+14	; 0x0e
    66e4:	20 91 3e 01 	lds	r18, 0x013E
    66e8:	30 91 3f 01 	lds	r19, 0x013F
    66ec:	40 91 40 01 	lds	r20, 0x0140
    66f0:	50 91 41 01 	lds	r21, 0x0141
    66f4:	60 91 42 01 	lds	r22, 0x0142
    66f8:	70 91 43 01 	lds	r23, 0x0143
    66fc:	80 91 44 01 	lds	r24, 0x0144
    6700:	90 91 45 01 	lds	r25, 0x0145
    6704:	0e 94 e6 0f 	call	0x1fcc	; 0x1fcc <CalcStraightPath>
    6708:	80 91 5e 01 	lds	r24, 0x015E
    670c:	90 91 5f 01 	lds	r25, 0x015F
    6710:	91 95       	neg	r25
    6712:	81 95       	neg	r24
    6714:	91 09       	sbc	r25, r1
    6716:	9c 01       	movw	r18, r24
    6718:	44 27       	eor	r20, r20
    671a:	37 fd       	sbrc	r19, 7
    671c:	40 95       	com	r20
    671e:	54 2f       	mov	r21, r20
    6720:	29 83       	std	Y+1, r18	; 0x01
    6722:	3a 83       	std	Y+2, r19	; 0x02
    6724:	4b 83       	std	Y+3, r20	; 0x03
    6726:	5c 83       	std	Y+4, r21	; 0x04
    6728:	60 91 5a 01 	lds	r22, 0x015A
    672c:	70 91 5b 01 	lds	r23, 0x015B
    6730:	88 27       	eor	r24, r24
    6732:	77 fd       	sbrc	r23, 7
    6734:	80 95       	com	r24
    6736:	98 2f       	mov	r25, r24
    6738:	0e 94 aa 50 	call	0xa154	; 0xa154 <__floatsisf>
    673c:	e6 2e       	mov	r14, r22
    673e:	f7 2e       	mov	r15, r23
    6740:	08 2f       	mov	r16, r24
    6742:	19 2f       	mov	r17, r25
    6744:	60 91 5c 01 	lds	r22, 0x015C
    6748:	70 91 5d 01 	lds	r23, 0x015D
    674c:	88 27       	eor	r24, r24
    674e:	77 fd       	sbrc	r23, 7
    6750:	80 95       	com	r24
    6752:	98 2f       	mov	r25, r24
    6754:	0e 94 aa 50 	call	0xa154	; 0xa154 <__floatsisf>
    6758:	6d 83       	std	Y+5, r22	; 0x05
    675a:	7e 83       	std	Y+6, r23	; 0x06
    675c:	8f 83       	std	Y+7, r24	; 0x07
    675e:	9c 87       	std	Y+12, r25	; 0x0c
    6760:	69 81       	ldd	r22, Y+1	; 0x01
    6762:	7a 81       	ldd	r23, Y+2	; 0x02
    6764:	8b 81       	ldd	r24, Y+3	; 0x03
    6766:	9c 81       	ldd	r25, Y+4	; 0x04
    6768:	64 0d       	add	r22, r4
    676a:	75 1d       	adc	r23, r5
    676c:	86 1d       	adc	r24, r6
    676e:	97 1d       	adc	r25, r7
    6770:	0e 94 aa 50 	call	0xa154	; 0xa154 <__floatsisf>
    6774:	5b 01       	movw	r10, r22
    6776:	6c 01       	movw	r12, r24
    6778:	1f 93       	push	r17
    677a:	0f 93       	push	r16
    677c:	ff 92       	push	r15
    677e:	ef 92       	push	r14
    6780:	3c 85       	ldd	r19, Y+12	; 0x0c
    6782:	3f 93       	push	r19
    6784:	4f 81       	ldd	r20, Y+7	; 0x07
    6786:	4f 93       	push	r20
    6788:	5e 81       	ldd	r21, Y+6	; 0x06
    678a:	5f 93       	push	r21
    678c:	8d 81       	ldd	r24, Y+5	; 0x05
    678e:	8f 93       	push	r24
    6790:	69 81       	ldd	r22, Y+1	; 0x01
    6792:	7a 81       	ldd	r23, Y+2	; 0x02
    6794:	8b 81       	ldd	r24, Y+3	; 0x03
    6796:	9c 81       	ldd	r25, Y+4	; 0x04
    6798:	64 19       	sub	r22, r4
    679a:	75 09       	sbc	r23, r5
    679c:	86 09       	sbc	r24, r6
    679e:	97 09       	sbc	r25, r7
    67a0:	0e 94 aa 50 	call	0xa154	; 0xa154 <__floatsisf>
    67a4:	9f 93       	push	r25
    67a6:	8f 93       	push	r24
    67a8:	7f 93       	push	r23
    67aa:	6f 93       	push	r22
    67ac:	1f 93       	push	r17
    67ae:	0f 93       	push	r16
    67b0:	ff 92       	push	r15
    67b2:	ef 92       	push	r14
    67b4:	9c 85       	ldd	r25, Y+12	; 0x0c
    67b6:	9f 93       	push	r25
    67b8:	af 81       	ldd	r26, Y+7	; 0x07
    67ba:	af 93       	push	r26
    67bc:	be 81       	ldd	r27, Y+6	; 0x06
    67be:	bf 93       	push	r27
    67c0:	ed 81       	ldd	r30, Y+5	; 0x05
    67c2:	ef 93       	push	r30
    67c4:	ed 84       	ldd	r14, Y+13	; 0x0d
    67c6:	fe 84       	ldd	r15, Y+14	; 0x0e
    67c8:	87 01       	movw	r16, r14
    67ca:	20 91 3e 01 	lds	r18, 0x013E
    67ce:	30 91 3f 01 	lds	r19, 0x013F
    67d2:	40 91 40 01 	lds	r20, 0x0140
    67d6:	50 91 41 01 	lds	r21, 0x0141
    67da:	60 91 42 01 	lds	r22, 0x0142
    67de:	70 91 43 01 	lds	r23, 0x0143
    67e2:	80 91 44 01 	lds	r24, 0x0144
    67e6:	90 91 45 01 	lds	r25, 0x0145
    67ea:	0e 94 6b 13 	call	0x26d6	; 0x26d6 <CalcCurvedPath>
    67ee:	80 91 5e 01 	lds	r24, 0x015E
    67f2:	90 91 5f 01 	lds	r25, 0x015F
    67f6:	91 95       	neg	r25
    67f8:	81 95       	neg	r24
    67fa:	91 09       	sbc	r25, r1
    67fc:	9c 01       	movw	r18, r24
    67fe:	44 27       	eor	r20, r20
    6800:	37 fd       	sbrc	r19, 7
    6802:	40 95       	com	r20
    6804:	54 2f       	mov	r21, r20
    6806:	29 83       	std	Y+1, r18	; 0x01
    6808:	3a 83       	std	Y+2, r19	; 0x02
    680a:	4b 83       	std	Y+3, r20	; 0x03
    680c:	5c 83       	std	Y+4, r21	; 0x04
    680e:	60 91 5a 01 	lds	r22, 0x015A
    6812:	70 91 5b 01 	lds	r23, 0x015B
    6816:	88 27       	eor	r24, r24
    6818:	77 fd       	sbrc	r23, 7
    681a:	80 95       	com	r24
    681c:	98 2f       	mov	r25, r24
    681e:	0e 94 aa 50 	call	0xa154	; 0xa154 <__floatsisf>
    6822:	e6 2e       	mov	r14, r22
    6824:	f7 2e       	mov	r15, r23
    6826:	08 2f       	mov	r16, r24
    6828:	19 2f       	mov	r17, r25
    682a:	60 91 5c 01 	lds	r22, 0x015C
    682e:	70 91 5d 01 	lds	r23, 0x015D
    6832:	88 27       	eor	r24, r24
    6834:	77 fd       	sbrc	r23, 7
    6836:	80 95       	com	r24
    6838:	98 2f       	mov	r25, r24
    683a:	0e 94 aa 50 	call	0xa154	; 0xa154 <__floatsisf>
    683e:	6d 83       	std	Y+5, r22	; 0x05
    6840:	7e 83       	std	Y+6, r23	; 0x06
    6842:	8f 83       	std	Y+7, r24	; 0x07
    6844:	9c 87       	std	Y+12, r25	; 0x0c
    6846:	0f b6       	in	r0, 0x3f	; 63
    6848:	f8 94       	cli
    684a:	de bf       	out	0x3e, r29	; 62
    684c:	0f be       	out	0x3f, r0	; 63
    684e:	cd bf       	out	0x3d, r28	; 61
    6850:	69 81       	ldd	r22, Y+1	; 0x01
    6852:	7a 81       	ldd	r23, Y+2	; 0x02
    6854:	8b 81       	ldd	r24, Y+3	; 0x03
    6856:	9c 81       	ldd	r25, Y+4	; 0x04
    6858:	64 19       	sub	r22, r4
    685a:	75 09       	sbc	r23, r5
    685c:	86 09       	sbc	r24, r6
    685e:	97 09       	sbc	r25, r7
    6860:	0e 94 aa 50 	call	0xa154	; 0xa154 <__floatsisf>
    6864:	5b 01       	movw	r10, r22
    6866:	6c 01       	movw	r12, r24
    6868:	1f 93       	push	r17
    686a:	0f 93       	push	r16
    686c:	ff 92       	push	r15
    686e:	ef 92       	push	r14
    6870:	5c 85       	ldd	r21, Y+12	; 0x0c
    6872:	5f 93       	push	r21
    6874:	8f 81       	ldd	r24, Y+7	; 0x07
    6876:	8f 93       	push	r24
    6878:	9e 81       	ldd	r25, Y+6	; 0x06
    687a:	9f 93       	push	r25
    687c:	ad 81       	ldd	r26, Y+5	; 0x05
    687e:	af 93       	push	r26
    6880:	69 81       	ldd	r22, Y+1	; 0x01
    6882:	7a 81       	ldd	r23, Y+2	; 0x02
    6884:	8b 81       	ldd	r24, Y+3	; 0x03
    6886:	9c 81       	ldd	r25, Y+4	; 0x04
    6888:	28 85       	ldd	r18, Y+8	; 0x08
    688a:	39 85       	ldd	r19, Y+9	; 0x09
    688c:	4a 85       	ldd	r20, Y+10	; 0x0a
    688e:	5b 85       	ldd	r21, Y+11	; 0x0b
    6890:	62 0f       	add	r22, r18
    6892:	73 1f       	adc	r23, r19
    6894:	84 1f       	adc	r24, r20
    6896:	95 1f       	adc	r25, r21
    6898:	0e 94 aa 50 	call	0xa154	; 0xa154 <__floatsisf>
    689c:	9f 93       	push	r25
    689e:	8f 93       	push	r24
    68a0:	7f 93       	push	r23
    68a2:	6f 93       	push	r22
    68a4:	1f 93       	push	r17
    68a6:	0f 93       	push	r16
    68a8:	ff 92       	push	r15
    68aa:	ef 92       	push	r14
    68ac:	3c 85       	ldd	r19, Y+12	; 0x0c
    68ae:	3f 93       	push	r19
    68b0:	4f 81       	ldd	r20, Y+7	; 0x07
    68b2:	4f 93       	push	r20
    68b4:	5e 81       	ldd	r21, Y+6	; 0x06
    68b6:	5f 93       	push	r21
    68b8:	8d 81       	ldd	r24, Y+5	; 0x05
    68ba:	8f 93       	push	r24
    68bc:	74 01       	movw	r14, r8
    68be:	84 01       	movw	r16, r8
    68c0:	20 91 3e 01 	lds	r18, 0x013E
    68c4:	30 91 3f 01 	lds	r19, 0x013F
    68c8:	40 91 40 01 	lds	r20, 0x0140
    68cc:	50 91 41 01 	lds	r21, 0x0141
    68d0:	60 91 42 01 	lds	r22, 0x0142
    68d4:	70 91 43 01 	lds	r23, 0x0143
    68d8:	80 91 44 01 	lds	r24, 0x0144
    68dc:	90 91 45 01 	lds	r25, 0x0145
    68e0:	0e 94 e6 0f 	call	0x1fcc	; 0x1fcc <CalcStraightPath>
    68e4:	80 91 5e 01 	lds	r24, 0x015E
    68e8:	90 91 5f 01 	lds	r25, 0x015F
    68ec:	9c 01       	movw	r18, r24
    68ee:	44 27       	eor	r20, r20
    68f0:	37 fd       	sbrc	r19, 7
    68f2:	40 95       	com	r20
    68f4:	54 2f       	mov	r21, r20
    68f6:	29 83       	std	Y+1, r18	; 0x01
    68f8:	3a 83       	std	Y+2, r19	; 0x02
    68fa:	4b 83       	std	Y+3, r20	; 0x03
    68fc:	5c 83       	std	Y+4, r21	; 0x04
    68fe:	60 91 5a 01 	lds	r22, 0x015A
    6902:	70 91 5b 01 	lds	r23, 0x015B
    6906:	88 27       	eor	r24, r24
    6908:	77 fd       	sbrc	r23, 7
    690a:	80 95       	com	r24
    690c:	98 2f       	mov	r25, r24
    690e:	0e 94 aa 50 	call	0xa154	; 0xa154 <__floatsisf>
    6912:	e6 2e       	mov	r14, r22
    6914:	f7 2e       	mov	r15, r23
    6916:	08 2f       	mov	r16, r24
    6918:	19 2f       	mov	r17, r25
    691a:	60 91 5c 01 	lds	r22, 0x015C
    691e:	70 91 5d 01 	lds	r23, 0x015D
    6922:	71 95       	neg	r23
    6924:	61 95       	neg	r22
    6926:	71 09       	sbc	r23, r1
    6928:	88 27       	eor	r24, r24
    692a:	77 fd       	sbrc	r23, 7
    692c:	80 95       	com	r24
    692e:	98 2f       	mov	r25, r24
    6930:	0e 94 aa 50 	call	0xa154	; 0xa154 <__floatsisf>
    6934:	6d 83       	std	Y+5, r22	; 0x05
    6936:	7e 83       	std	Y+6, r23	; 0x06
    6938:	8f 83       	std	Y+7, r24	; 0x07
    693a:	9c 87       	std	Y+12, r25	; 0x0c
    693c:	69 81       	ldd	r22, Y+1	; 0x01
    693e:	7a 81       	ldd	r23, Y+2	; 0x02
    6940:	8b 81       	ldd	r24, Y+3	; 0x03
    6942:	9c 81       	ldd	r25, Y+4	; 0x04
    6944:	28 85       	ldd	r18, Y+8	; 0x08
    6946:	39 85       	ldd	r19, Y+9	; 0x09
    6948:	4a 85       	ldd	r20, Y+10	; 0x0a
    694a:	5b 85       	ldd	r21, Y+11	; 0x0b
    694c:	62 1b       	sub	r22, r18
    694e:	73 0b       	sbc	r23, r19
    6950:	84 0b       	sbc	r24, r20
    6952:	95 0b       	sbc	r25, r21
    6954:	0e 94 aa 50 	call	0xa154	; 0xa154 <__floatsisf>
    6958:	5b 01       	movw	r10, r22
    695a:	6c 01       	movw	r12, r24
    695c:	1f 93       	push	r17
    695e:	0f 93       	push	r16
    6960:	ff 92       	push	r15
    6962:	ef 92       	push	r14
    6964:	3c 85       	ldd	r19, Y+12	; 0x0c
    6966:	3f 93       	push	r19
    6968:	4f 81       	ldd	r20, Y+7	; 0x07
    696a:	4f 93       	push	r20
    696c:	5e 81       	ldd	r21, Y+6	; 0x06
    696e:	5f 93       	push	r21
    6970:	8d 81       	ldd	r24, Y+5	; 0x05
    6972:	8f 93       	push	r24
    6974:	69 81       	ldd	r22, Y+1	; 0x01
    6976:	7a 81       	ldd	r23, Y+2	; 0x02
    6978:	8b 81       	ldd	r24, Y+3	; 0x03
    697a:	9c 81       	ldd	r25, Y+4	; 0x04
    697c:	64 0d       	add	r22, r4
    697e:	75 1d       	adc	r23, r5
    6980:	86 1d       	adc	r24, r6
    6982:	97 1d       	adc	r25, r7
    6984:	0e 94 aa 50 	call	0xa154	; 0xa154 <__floatsisf>
    6988:	9f 93       	push	r25
    698a:	8f 93       	push	r24
    698c:	7f 93       	push	r23
    698e:	6f 93       	push	r22
    6990:	1f 93       	push	r17
    6992:	0f 93       	push	r16
    6994:	ff 92       	push	r15
    6996:	ef 92       	push	r14
    6998:	9c 85       	ldd	r25, Y+12	; 0x0c
    699a:	9f 93       	push	r25
    699c:	af 81       	ldd	r26, Y+7	; 0x07
    699e:	af 93       	push	r26
    69a0:	be 81       	ldd	r27, Y+6	; 0x06
    69a2:	bf 93       	push	r27
    69a4:	ed 81       	ldd	r30, Y+5	; 0x05
    69a6:	ef 93       	push	r30
    69a8:	e1 2c       	mov	r14, r1
    69aa:	f1 2c       	mov	r15, r1
    69ac:	84 01       	movw	r16, r8
    69ae:	20 91 26 01 	lds	r18, 0x0126
    69b2:	30 91 27 01 	lds	r19, 0x0127
    69b6:	40 91 28 01 	lds	r20, 0x0128
    69ba:	50 91 29 01 	lds	r21, 0x0129
    69be:	60 91 2a 01 	lds	r22, 0x012A
    69c2:	70 91 2b 01 	lds	r23, 0x012B
    69c6:	80 91 2c 01 	lds	r24, 0x012C
    69ca:	90 91 2d 01 	lds	r25, 0x012D
    69ce:	0e 94 e6 0f 	call	0x1fcc	; 0x1fcc <CalcStraightPath>
    69d2:	80 91 5e 01 	lds	r24, 0x015E
    69d6:	90 91 5f 01 	lds	r25, 0x015F
    69da:	9c 01       	movw	r18, r24
    69dc:	44 27       	eor	r20, r20
    69de:	37 fd       	sbrc	r19, 7
    69e0:	40 95       	com	r20
    69e2:	54 2f       	mov	r21, r20
    69e4:	29 83       	std	Y+1, r18	; 0x01
    69e6:	3a 83       	std	Y+2, r19	; 0x02
    69e8:	4b 83       	std	Y+3, r20	; 0x03
    69ea:	5c 83       	std	Y+4, r21	; 0x04
    69ec:	60 91 5a 01 	lds	r22, 0x015A
    69f0:	70 91 5b 01 	lds	r23, 0x015B
    69f4:	88 27       	eor	r24, r24
    69f6:	77 fd       	sbrc	r23, 7
    69f8:	80 95       	com	r24
    69fa:	98 2f       	mov	r25, r24
    69fc:	0e 94 aa 50 	call	0xa154	; 0xa154 <__floatsisf>
    6a00:	e6 2e       	mov	r14, r22
    6a02:	f7 2e       	mov	r15, r23
    6a04:	08 2f       	mov	r16, r24
    6a06:	19 2f       	mov	r17, r25
    6a08:	60 91 5c 01 	lds	r22, 0x015C
    6a0c:	70 91 5d 01 	lds	r23, 0x015D
    6a10:	71 95       	neg	r23
    6a12:	61 95       	neg	r22
    6a14:	71 09       	sbc	r23, r1
    6a16:	88 27       	eor	r24, r24
    6a18:	77 fd       	sbrc	r23, 7
    6a1a:	80 95       	com	r24
    6a1c:	98 2f       	mov	r25, r24
    6a1e:	0e 94 aa 50 	call	0xa154	; 0xa154 <__floatsisf>
    6a22:	6d 83       	std	Y+5, r22	; 0x05
    6a24:	7e 83       	std	Y+6, r23	; 0x06
    6a26:	8f 83       	std	Y+7, r24	; 0x07
    6a28:	9c 87       	std	Y+12, r25	; 0x0c
    6a2a:	0f b6       	in	r0, 0x3f	; 63
    6a2c:	f8 94       	cli
    6a2e:	de bf       	out	0x3e, r29	; 62
    6a30:	0f be       	out	0x3f, r0	; 63
    6a32:	cd bf       	out	0x3d, r28	; 61
    6a34:	69 81       	ldd	r22, Y+1	; 0x01
    6a36:	7a 81       	ldd	r23, Y+2	; 0x02
    6a38:	8b 81       	ldd	r24, Y+3	; 0x03
    6a3a:	9c 81       	ldd	r25, Y+4	; 0x04
    6a3c:	64 0d       	add	r22, r4
    6a3e:	75 1d       	adc	r23, r5
    6a40:	86 1d       	adc	r24, r6
    6a42:	97 1d       	adc	r25, r7
    6a44:	0e 94 aa 50 	call	0xa154	; 0xa154 <__floatsisf>
    6a48:	5b 01       	movw	r10, r22
    6a4a:	6c 01       	movw	r12, r24
    6a4c:	1f 93       	push	r17
    6a4e:	0f 93       	push	r16
    6a50:	ff 92       	push	r15
    6a52:	ef 92       	push	r14
    6a54:	5c 85       	ldd	r21, Y+12	; 0x0c
    6a56:	5f 93       	push	r21
    6a58:	8f 81       	ldd	r24, Y+7	; 0x07
    6a5a:	8f 93       	push	r24
    6a5c:	9e 81       	ldd	r25, Y+6	; 0x06
    6a5e:	9f 93       	push	r25
    6a60:	ad 81       	ldd	r26, Y+5	; 0x05
    6a62:	af 93       	push	r26
    6a64:	69 81       	ldd	r22, Y+1	; 0x01
    6a66:	7a 81       	ldd	r23, Y+2	; 0x02
    6a68:	8b 81       	ldd	r24, Y+3	; 0x03
    6a6a:	9c 81       	ldd	r25, Y+4	; 0x04
    6a6c:	64 19       	sub	r22, r4
    6a6e:	75 09       	sbc	r23, r5
    6a70:	86 09       	sbc	r24, r6
    6a72:	97 09       	sbc	r25, r7
    6a74:	0e 94 aa 50 	call	0xa154	; 0xa154 <__floatsisf>
    6a78:	9f 93       	push	r25
    6a7a:	8f 93       	push	r24
    6a7c:	7f 93       	push	r23
    6a7e:	6f 93       	push	r22
    6a80:	1f 93       	push	r17
    6a82:	0f 93       	push	r16
    6a84:	ff 92       	push	r15
    6a86:	ef 92       	push	r14
    6a88:	bc 85       	ldd	r27, Y+12	; 0x0c
    6a8a:	bf 93       	push	r27
    6a8c:	ef 81       	ldd	r30, Y+7	; 0x07
    6a8e:	ef 93       	push	r30
    6a90:	fe 81       	ldd	r31, Y+6	; 0x06
    6a92:	ff 93       	push	r31
    6a94:	2d 81       	ldd	r18, Y+5	; 0x05
    6a96:	2f 93       	push	r18
    6a98:	74 01       	movw	r14, r8
    6a9a:	0d 85       	ldd	r16, Y+13	; 0x0d
    6a9c:	1e 85       	ldd	r17, Y+14	; 0x0e
    6a9e:	20 91 26 01 	lds	r18, 0x0126
    6aa2:	30 91 27 01 	lds	r19, 0x0127
    6aa6:	40 91 28 01 	lds	r20, 0x0128
    6aaa:	50 91 29 01 	lds	r21, 0x0129
    6aae:	60 91 2a 01 	lds	r22, 0x012A
    6ab2:	70 91 2b 01 	lds	r23, 0x012B
    6ab6:	80 91 2c 01 	lds	r24, 0x012C
    6aba:	90 91 2d 01 	lds	r25, 0x012D
    6abe:	0e 94 6b 13 	call	0x26d6	; 0x26d6 <CalcCurvedPath>
    6ac2:	80 91 5e 01 	lds	r24, 0x015E
    6ac6:	90 91 5f 01 	lds	r25, 0x015F
    6aca:	9c 01       	movw	r18, r24
    6acc:	44 27       	eor	r20, r20
    6ace:	37 fd       	sbrc	r19, 7
    6ad0:	40 95       	com	r20
    6ad2:	54 2f       	mov	r21, r20
    6ad4:	29 83       	std	Y+1, r18	; 0x01
    6ad6:	3a 83       	std	Y+2, r19	; 0x02
    6ad8:	4b 83       	std	Y+3, r20	; 0x03
    6ada:	5c 83       	std	Y+4, r21	; 0x04
    6adc:	60 91 5a 01 	lds	r22, 0x015A
    6ae0:	70 91 5b 01 	lds	r23, 0x015B
    6ae4:	88 27       	eor	r24, r24
    6ae6:	77 fd       	sbrc	r23, 7
    6ae8:	80 95       	com	r24
    6aea:	98 2f       	mov	r25, r24
    6aec:	0e 94 aa 50 	call	0xa154	; 0xa154 <__floatsisf>
    6af0:	e6 2e       	mov	r14, r22
    6af2:	f7 2e       	mov	r15, r23
    6af4:	08 2f       	mov	r16, r24
    6af6:	19 2f       	mov	r17, r25
    6af8:	60 91 5c 01 	lds	r22, 0x015C
    6afc:	70 91 5d 01 	lds	r23, 0x015D
    6b00:	71 95       	neg	r23
    6b02:	61 95       	neg	r22
    6b04:	71 09       	sbc	r23, r1
    6b06:	88 27       	eor	r24, r24
    6b08:	77 fd       	sbrc	r23, 7
    6b0a:	80 95       	com	r24
    6b0c:	98 2f       	mov	r25, r24
    6b0e:	0e 94 aa 50 	call	0xa154	; 0xa154 <__floatsisf>
    6b12:	6d 83       	std	Y+5, r22	; 0x05
    6b14:	7e 83       	std	Y+6, r23	; 0x06
    6b16:	88 2e       	mov	r8, r24
    6b18:	99 2e       	mov	r9, r25
    6b1a:	69 81       	ldd	r22, Y+1	; 0x01
    6b1c:	7a 81       	ldd	r23, Y+2	; 0x02
    6b1e:	8b 81       	ldd	r24, Y+3	; 0x03
    6b20:	9c 81       	ldd	r25, Y+4	; 0x04
    6b22:	64 19       	sub	r22, r4
    6b24:	75 09       	sbc	r23, r5
    6b26:	86 09       	sbc	r24, r6
    6b28:	97 09       	sbc	r25, r7
    6b2a:	0e 94 aa 50 	call	0xa154	; 0xa154 <__floatsisf>
    6b2e:	5b 01       	movw	r10, r22
    6b30:	6c 01       	movw	r12, r24
    6b32:	1f 93       	push	r17
    6b34:	0f 93       	push	r16
    6b36:	ff 92       	push	r15
    6b38:	ef 92       	push	r14
    6b3a:	9f 92       	push	r9
    6b3c:	8f 92       	push	r8
    6b3e:	3e 81       	ldd	r19, Y+6	; 0x06
    6b40:	3f 93       	push	r19
    6b42:	4d 81       	ldd	r20, Y+5	; 0x05
    6b44:	4f 93       	push	r20
    6b46:	69 81       	ldd	r22, Y+1	; 0x01
    6b48:	7a 81       	ldd	r23, Y+2	; 0x02
    6b4a:	8b 81       	ldd	r24, Y+3	; 0x03
    6b4c:	9c 81       	ldd	r25, Y+4	; 0x04
    6b4e:	28 85       	ldd	r18, Y+8	; 0x08
    6b50:	39 85       	ldd	r19, Y+9	; 0x09
    6b52:	4a 85       	ldd	r20, Y+10	; 0x0a
    6b54:	5b 85       	ldd	r21, Y+11	; 0x0b
    6b56:	62 1b       	sub	r22, r18
    6b58:	73 0b       	sbc	r23, r19
    6b5a:	84 0b       	sbc	r24, r20
    6b5c:	95 0b       	sbc	r25, r21
    6b5e:	0e 94 aa 50 	call	0xa154	; 0xa154 <__floatsisf>
    6b62:	9f 93       	push	r25
    6b64:	8f 93       	push	r24
    6b66:	7f 93       	push	r23
    6b68:	6f 93       	push	r22
    6b6a:	1f 93       	push	r17
    6b6c:	0f 93       	push	r16
    6b6e:	ff 92       	push	r15
    6b70:	ef 92       	push	r14
    6b72:	9f 92       	push	r9
    6b74:	8f 92       	push	r8
    6b76:	3e 81       	ldd	r19, Y+6	; 0x06
    6b78:	3f 93       	push	r19
    6b7a:	4d 81       	ldd	r20, Y+5	; 0x05
    6b7c:	4f 93       	push	r20
    6b7e:	71 01       	movw	r14, r2
    6b80:	0d 85       	ldd	r16, Y+13	; 0x0d
    6b82:	1e 85       	ldd	r17, Y+14	; 0x0e
    6b84:	20 91 26 01 	lds	r18, 0x0126
    6b88:	30 91 27 01 	lds	r19, 0x0127
    6b8c:	40 91 28 01 	lds	r20, 0x0128
    6b90:	50 91 29 01 	lds	r21, 0x0129
    6b94:	60 91 2a 01 	lds	r22, 0x012A
    6b98:	70 91 2b 01 	lds	r23, 0x012B
    6b9c:	80 91 2c 01 	lds	r24, 0x012C
    6ba0:	90 91 2d 01 	lds	r25, 0x012D
    6ba4:	0e 94 e6 0f 	call	0x1fcc	; 0x1fcc <CalcStraightPath>
    6ba8:	80 91 5e 01 	lds	r24, 0x015E
    6bac:	90 91 5f 01 	lds	r25, 0x015F
    6bb0:	91 95       	neg	r25
    6bb2:	81 95       	neg	r24
    6bb4:	91 09       	sbc	r25, r1
    6bb6:	9c 01       	movw	r18, r24
    6bb8:	44 27       	eor	r20, r20
    6bba:	37 fd       	sbrc	r19, 7
    6bbc:	40 95       	com	r20
    6bbe:	54 2f       	mov	r21, r20
    6bc0:	28 87       	std	Y+8, r18	; 0x08
    6bc2:	39 87       	std	Y+9, r19	; 0x09
    6bc4:	4a 87       	std	Y+10, r20	; 0x0a
    6bc6:	5b 87       	std	Y+11, r21	; 0x0b
    6bc8:	60 91 5a 01 	lds	r22, 0x015A
    6bcc:	70 91 5b 01 	lds	r23, 0x015B
    6bd0:	88 27       	eor	r24, r24
    6bd2:	77 fd       	sbrc	r23, 7
    6bd4:	80 95       	com	r24
    6bd6:	98 2f       	mov	r25, r24
    6bd8:	0e 94 aa 50 	call	0xa154	; 0xa154 <__floatsisf>
    6bdc:	e6 2e       	mov	r14, r22
    6bde:	f7 2e       	mov	r15, r23
    6be0:	18 2f       	mov	r17, r24
    6be2:	09 2f       	mov	r16, r25
    6be4:	60 91 5c 01 	lds	r22, 0x015C
    6be8:	70 91 5d 01 	lds	r23, 0x015D
    6bec:	71 95       	neg	r23
    6bee:	61 95       	neg	r22
    6bf0:	71 09       	sbc	r23, r1
    6bf2:	88 27       	eor	r24, r24
    6bf4:	77 fd       	sbrc	r23, 7
    6bf6:	80 95       	com	r24
    6bf8:	98 2f       	mov	r25, r24
    6bfa:	0e 94 aa 50 	call	0xa154	; 0xa154 <__floatsisf>
    6bfe:	69 83       	std	Y+1, r22	; 0x01
    6c00:	7d 83       	std	Y+5, r23	; 0x05
    6c02:	88 2e       	mov	r8, r24
    6c04:	99 2e       	mov	r9, r25
    6c06:	0f b6       	in	r0, 0x3f	; 63
    6c08:	f8 94       	cli
    6c0a:	de bf       	out	0x3e, r29	; 62
    6c0c:	0f be       	out	0x3f, r0	; 63
    6c0e:	cd bf       	out	0x3d, r28	; 61
    6c10:	68 85       	ldd	r22, Y+8	; 0x08
    6c12:	79 85       	ldd	r23, Y+9	; 0x09
    6c14:	8a 85       	ldd	r24, Y+10	; 0x0a
    6c16:	9b 85       	ldd	r25, Y+11	; 0x0b
    6c18:	64 19       	sub	r22, r4
    6c1a:	75 09       	sbc	r23, r5
    6c1c:	86 09       	sbc	r24, r6
    6c1e:	97 09       	sbc	r25, r7
    6c20:	0e 94 aa 50 	call	0xa154	; 0xa154 <__floatsisf>
    6c24:	5b 01       	movw	r10, r22
    6c26:	6c 01       	movw	r12, r24
    6c28:	0f 93       	push	r16
    6c2a:	1f 93       	push	r17
    6c2c:	ff 92       	push	r15
    6c2e:	ef 92       	push	r14
    6c30:	9f 92       	push	r9
    6c32:	8f 92       	push	r8
    6c34:	5d 81       	ldd	r21, Y+5	; 0x05
    6c36:	5f 93       	push	r21
    6c38:	89 81       	ldd	r24, Y+1	; 0x01
    6c3a:	8f 93       	push	r24
    6c3c:	68 85       	ldd	r22, Y+8	; 0x08
    6c3e:	79 85       	ldd	r23, Y+9	; 0x09
    6c40:	8a 85       	ldd	r24, Y+10	; 0x0a
    6c42:	9b 85       	ldd	r25, Y+11	; 0x0b
    6c44:	64 0d       	add	r22, r4
    6c46:	75 1d       	adc	r23, r5
    6c48:	86 1d       	adc	r24, r6
    6c4a:	97 1d       	adc	r25, r7
    6c4c:	0e 94 aa 50 	call	0xa154	; 0xa154 <__floatsisf>
    6c50:	9f 93       	push	r25
    6c52:	8f 93       	push	r24
    6c54:	7f 93       	push	r23
    6c56:	6f 93       	push	r22
    6c58:	0f 93       	push	r16
    6c5a:	1f 93       	push	r17
    6c5c:	ff 92       	push	r15
    6c5e:	ef 92       	push	r14
    6c60:	9f 92       	push	r9
    6c62:	8f 92       	push	r8
    6c64:	9d 81       	ldd	r25, Y+5	; 0x05
    6c66:	9f 93       	push	r25
    6c68:	a9 81       	ldd	r26, Y+1	; 0x01
    6c6a:	af 93       	push	r26
    6c6c:	e1 2c       	mov	r14, r1
    6c6e:	f1 2c       	mov	r15, r1
    6c70:	81 01       	movw	r16, r2
    6c72:	20 91 2e 01 	lds	r18, 0x012E
    6c76:	30 91 2f 01 	lds	r19, 0x012F
    6c7a:	40 91 30 01 	lds	r20, 0x0130
    6c7e:	50 91 31 01 	lds	r21, 0x0131
    6c82:	60 91 32 01 	lds	r22, 0x0132
    6c86:	70 91 33 01 	lds	r23, 0x0133
    6c8a:	80 91 34 01 	lds	r24, 0x0134
    6c8e:	90 91 35 01 	lds	r25, 0x0135
    6c92:	0e 94 e6 0f 	call	0x1fcc	; 0x1fcc <CalcStraightPath>
    6c96:	80 91 5e 01 	lds	r24, 0x015E
    6c9a:	90 91 5f 01 	lds	r25, 0x015F
    6c9e:	91 95       	neg	r25
    6ca0:	81 95       	neg	r24
    6ca2:	91 09       	sbc	r25, r1
    6ca4:	9c 01       	movw	r18, r24
    6ca6:	44 27       	eor	r20, r20
    6ca8:	37 fd       	sbrc	r19, 7
    6caa:	40 95       	com	r20
    6cac:	54 2f       	mov	r21, r20
    6cae:	28 87       	std	Y+8, r18	; 0x08
    6cb0:	39 87       	std	Y+9, r19	; 0x09
    6cb2:	4a 87       	std	Y+10, r20	; 0x0a
    6cb4:	5b 87       	std	Y+11, r21	; 0x0b
    6cb6:	60 91 5a 01 	lds	r22, 0x015A
    6cba:	70 91 5b 01 	lds	r23, 0x015B
    6cbe:	88 27       	eor	r24, r24
    6cc0:	77 fd       	sbrc	r23, 7
    6cc2:	80 95       	com	r24
    6cc4:	98 2f       	mov	r25, r24
    6cc6:	0e 94 aa 50 	call	0xa154	; 0xa154 <__floatsisf>
    6cca:	e6 2e       	mov	r14, r22
    6ccc:	f7 2e       	mov	r15, r23
    6cce:	18 2f       	mov	r17, r24
    6cd0:	09 2f       	mov	r16, r25
    6cd2:	60 91 5c 01 	lds	r22, 0x015C
    6cd6:	70 91 5d 01 	lds	r23, 0x015D
    6cda:	71 95       	neg	r23
    6cdc:	61 95       	neg	r22
    6cde:	71 09       	sbc	r23, r1
    6ce0:	88 27       	eor	r24, r24
    6ce2:	77 fd       	sbrc	r23, 7
    6ce4:	80 95       	com	r24
    6ce6:	98 2f       	mov	r25, r24
    6ce8:	0e 94 aa 50 	call	0xa154	; 0xa154 <__floatsisf>
    6cec:	69 83       	std	Y+1, r22	; 0x01
    6cee:	7d 83       	std	Y+5, r23	; 0x05
    6cf0:	88 2e       	mov	r8, r24
    6cf2:	99 2e       	mov	r9, r25
    6cf4:	68 85       	ldd	r22, Y+8	; 0x08
    6cf6:	79 85       	ldd	r23, Y+9	; 0x09
    6cf8:	8a 85       	ldd	r24, Y+10	; 0x0a
    6cfa:	9b 85       	ldd	r25, Y+11	; 0x0b
    6cfc:	64 0d       	add	r22, r4
    6cfe:	75 1d       	adc	r23, r5
    6d00:	86 1d       	adc	r24, r6
    6d02:	97 1d       	adc	r25, r7
    6d04:	0e 94 aa 50 	call	0xa154	; 0xa154 <__floatsisf>
    6d08:	5b 01       	movw	r10, r22
    6d0a:	6c 01       	movw	r12, r24
    6d0c:	0f 93       	push	r16
    6d0e:	1f 93       	push	r17
    6d10:	ff 92       	push	r15
    6d12:	ef 92       	push	r14
    6d14:	9f 92       	push	r9
    6d16:	8f 92       	push	r8
    6d18:	3d 81       	ldd	r19, Y+5	; 0x05
    6d1a:	3f 93       	push	r19
    6d1c:	49 81       	ldd	r20, Y+1	; 0x01
    6d1e:	4f 93       	push	r20
    6d20:	68 85       	ldd	r22, Y+8	; 0x08
    6d22:	79 85       	ldd	r23, Y+9	; 0x09
    6d24:	8a 85       	ldd	r24, Y+10	; 0x0a
    6d26:	9b 85       	ldd	r25, Y+11	; 0x0b
    6d28:	64 19       	sub	r22, r4
    6d2a:	75 09       	sbc	r23, r5
    6d2c:	86 09       	sbc	r24, r6
    6d2e:	97 09       	sbc	r25, r7
    6d30:	0e 94 aa 50 	call	0xa154	; 0xa154 <__floatsisf>
    6d34:	9f 93       	push	r25
    6d36:	8f 93       	push	r24
    6d38:	7f 93       	push	r23
    6d3a:	6f 93       	push	r22
    6d3c:	0f 93       	push	r16
    6d3e:	1f 93       	push	r17
    6d40:	ff 92       	push	r15
    6d42:	ef 92       	push	r14
    6d44:	9f 92       	push	r9
    6d46:	8f 92       	push	r8
    6d48:	5d 81       	ldd	r21, Y+5	; 0x05
    6d4a:	5f 93       	push	r21
    6d4c:	89 81       	ldd	r24, Y+1	; 0x01
    6d4e:	8f 93       	push	r24
    6d50:	71 01       	movw	r14, r2
    6d52:	0d 85       	ldd	r16, Y+13	; 0x0d
    6d54:	1e 85       	ldd	r17, Y+14	; 0x0e
    6d56:	20 91 2e 01 	lds	r18, 0x012E
    6d5a:	30 91 2f 01 	lds	r19, 0x012F
    6d5e:	40 91 30 01 	lds	r20, 0x0130
    6d62:	50 91 31 01 	lds	r21, 0x0131
    6d66:	60 91 32 01 	lds	r22, 0x0132
    6d6a:	70 91 33 01 	lds	r23, 0x0133
    6d6e:	80 91 34 01 	lds	r24, 0x0134
    6d72:	90 91 35 01 	lds	r25, 0x0135
    6d76:	0e 94 6b 13 	call	0x26d6	; 0x26d6 <CalcCurvedPath>
    6d7a:	0f b6       	in	r0, 0x3f	; 63
    6d7c:	f8 94       	cli
    6d7e:	de bf       	out	0x3e, r29	; 62
    6d80:	0f be       	out	0x3f, r0	; 63
    6d82:	cd bf       	out	0x3d, r28	; 61
    6d84:	2e 96       	adiw	r28, 0x0e	; 14
    6d86:	0f b6       	in	r0, 0x3f	; 63
    6d88:	f8 94       	cli
    6d8a:	de bf       	out	0x3e, r29	; 62
    6d8c:	0f be       	out	0x3f, r0	; 63
    6d8e:	cd bf       	out	0x3d, r28	; 61
    6d90:	df 91       	pop	r29
    6d92:	cf 91       	pop	r28
    6d94:	1f 91       	pop	r17
    6d96:	0f 91       	pop	r16
    6d98:	ff 90       	pop	r15
    6d9a:	ef 90       	pop	r14
    6d9c:	df 90       	pop	r13
    6d9e:	cf 90       	pop	r12
    6da0:	bf 90       	pop	r11
    6da2:	af 90       	pop	r10
    6da4:	9f 90       	pop	r9
    6da6:	8f 90       	pop	r8
    6da8:	7f 90       	pop	r7
    6daa:	6f 90       	pop	r6
    6dac:	5f 90       	pop	r5
    6dae:	4f 90       	pop	r4
    6db0:	3f 90       	pop	r3
    6db2:	2f 90       	pop	r2
    6db4:	08 95       	ret

00006db6 <standStillGait>:
    6db6:	af 92       	push	r10
    6db8:	bf 92       	push	r11
    6dba:	cf 92       	push	r12
    6dbc:	df 92       	push	r13
    6dbe:	ef 92       	push	r14
    6dc0:	ff 92       	push	r15
    6dc2:	0f 93       	push	r16
    6dc4:	1f 93       	push	r17
    6dc6:	cf 93       	push	r28
    6dc8:	df 93       	push	r29
    6dca:	82 e0       	ldi	r24, 0x02	; 2
    6dcc:	90 e0       	ldi	r25, 0x00	; 0
    6dce:	90 93 21 01 	sts	0x0121, r25
    6dd2:	80 93 20 01 	sts	0x0120, r24
    6dd6:	90 93 5c 14 	sts	0x145C, r25
    6dda:	80 93 5b 14 	sts	0x145B, r24
    6dde:	60 91 5a 01 	lds	r22, 0x015A
    6de2:	70 91 5b 01 	lds	r23, 0x015B
    6de6:	88 27       	eor	r24, r24
    6de8:	77 fd       	sbrc	r23, 7
    6dea:	80 95       	com	r24
    6dec:	98 2f       	mov	r25, r24
    6dee:	0e 94 aa 50 	call	0xa154	; 0xa154 <__floatsisf>
    6df2:	c6 2f       	mov	r28, r22
    6df4:	d7 2f       	mov	r29, r23
    6df6:	18 2f       	mov	r17, r24
    6df8:	09 2f       	mov	r16, r25
    6dfa:	60 91 5c 01 	lds	r22, 0x015C
    6dfe:	70 91 5d 01 	lds	r23, 0x015D
    6e02:	88 27       	eor	r24, r24
    6e04:	77 fd       	sbrc	r23, 7
    6e06:	80 95       	com	r24
    6e08:	98 2f       	mov	r25, r24
    6e0a:	0e 94 aa 50 	call	0xa154	; 0xa154 <__floatsisf>
    6e0e:	d6 2e       	mov	r13, r22
    6e10:	c7 2e       	mov	r12, r23
    6e12:	b8 2e       	mov	r11, r24
    6e14:	a9 2e       	mov	r10, r25
    6e16:	20 91 5e 01 	lds	r18, 0x015E
    6e1a:	30 91 5f 01 	lds	r19, 0x015F
    6e1e:	66 27       	eor	r22, r22
    6e20:	77 27       	eor	r23, r23
    6e22:	62 1b       	sub	r22, r18
    6e24:	73 0b       	sbc	r23, r19
    6e26:	88 27       	eor	r24, r24
    6e28:	77 fd       	sbrc	r23, 7
    6e2a:	80 95       	com	r24
    6e2c:	98 2f       	mov	r25, r24
    6e2e:	0e 94 aa 50 	call	0xa154	; 0xa154 <__floatsisf>
    6e32:	0f 93       	push	r16
    6e34:	1f 93       	push	r17
    6e36:	df 93       	push	r29
    6e38:	cf 93       	push	r28
    6e3a:	af 92       	push	r10
    6e3c:	bf 92       	push	r11
    6e3e:	cf 92       	push	r12
    6e40:	df 92       	push	r13
    6e42:	9f 93       	push	r25
    6e44:	8f 93       	push	r24
    6e46:	7f 93       	push	r23
    6e48:	6f 93       	push	r22
    6e4a:	0f 93       	push	r16
    6e4c:	1f 93       	push	r17
    6e4e:	df 93       	push	r29
    6e50:	cf 93       	push	r28
    6e52:	af 92       	push	r10
    6e54:	bf 92       	push	r11
    6e56:	cf 92       	push	r12
    6e58:	df 92       	push	r13
    6e5a:	a6 2e       	mov	r10, r22
    6e5c:	b7 2e       	mov	r11, r23
    6e5e:	c8 2e       	mov	r12, r24
    6e60:	d9 2e       	mov	r13, r25
    6e62:	e1 2c       	mov	r14, r1
    6e64:	f1 2c       	mov	r15, r1
    6e66:	03 e0       	ldi	r16, 0x03	; 3
    6e68:	10 e0       	ldi	r17, 0x00	; 0
    6e6a:	20 91 3e 01 	lds	r18, 0x013E
    6e6e:	30 91 3f 01 	lds	r19, 0x013F
    6e72:	40 91 40 01 	lds	r20, 0x0140
    6e76:	50 91 41 01 	lds	r21, 0x0141
    6e7a:	60 91 42 01 	lds	r22, 0x0142
    6e7e:	70 91 43 01 	lds	r23, 0x0143
    6e82:	80 91 44 01 	lds	r24, 0x0144
    6e86:	90 91 45 01 	lds	r25, 0x0145
    6e8a:	0e 94 e6 0f 	call	0x1fcc	; 0x1fcc <CalcStraightPath>
    6e8e:	60 91 5a 01 	lds	r22, 0x015A
    6e92:	70 91 5b 01 	lds	r23, 0x015B
    6e96:	88 27       	eor	r24, r24
    6e98:	77 fd       	sbrc	r23, 7
    6e9a:	80 95       	com	r24
    6e9c:	98 2f       	mov	r25, r24
    6e9e:	0e 94 aa 50 	call	0xa154	; 0xa154 <__floatsisf>
    6ea2:	16 2f       	mov	r17, r22
    6ea4:	07 2f       	mov	r16, r23
    6ea6:	d8 2e       	mov	r13, r24
    6ea8:	c9 2e       	mov	r12, r25
    6eaa:	60 91 5c 01 	lds	r22, 0x015C
    6eae:	70 91 5d 01 	lds	r23, 0x015D
    6eb2:	88 27       	eor	r24, r24
    6eb4:	77 fd       	sbrc	r23, 7
    6eb6:	80 95       	com	r24
    6eb8:	98 2f       	mov	r25, r24
    6eba:	0e 94 aa 50 	call	0xa154	; 0xa154 <__floatsisf>
    6ebe:	c6 2f       	mov	r28, r22
    6ec0:	d7 2f       	mov	r29, r23
    6ec2:	b8 2e       	mov	r11, r24
    6ec4:	a9 2e       	mov	r10, r25
    6ec6:	60 91 5e 01 	lds	r22, 0x015E
    6eca:	70 91 5f 01 	lds	r23, 0x015F
    6ece:	88 27       	eor	r24, r24
    6ed0:	77 fd       	sbrc	r23, 7
    6ed2:	80 95       	com	r24
    6ed4:	98 2f       	mov	r25, r24
    6ed6:	0e 94 aa 50 	call	0xa154	; 0xa154 <__floatsisf>
    6eda:	cf 92       	push	r12
    6edc:	df 92       	push	r13
    6ede:	0f 93       	push	r16
    6ee0:	1f 93       	push	r17
    6ee2:	af 92       	push	r10
    6ee4:	bf 92       	push	r11
    6ee6:	df 93       	push	r29
    6ee8:	cf 93       	push	r28
    6eea:	9f 93       	push	r25
    6eec:	8f 93       	push	r24
    6eee:	7f 93       	push	r23
    6ef0:	6f 93       	push	r22
    6ef2:	cf 92       	push	r12
    6ef4:	df 92       	push	r13
    6ef6:	0f 93       	push	r16
    6ef8:	1f 93       	push	r17
    6efa:	af 92       	push	r10
    6efc:	bf 92       	push	r11
    6efe:	df 93       	push	r29
    6f00:	cf 93       	push	r28
    6f02:	a6 2e       	mov	r10, r22
    6f04:	b7 2e       	mov	r11, r23
    6f06:	c8 2e       	mov	r12, r24
    6f08:	d9 2e       	mov	r13, r25
    6f0a:	03 e0       	ldi	r16, 0x03	; 3
    6f0c:	10 e0       	ldi	r17, 0x00	; 0
    6f0e:	20 91 36 01 	lds	r18, 0x0136
    6f12:	30 91 37 01 	lds	r19, 0x0137
    6f16:	40 91 38 01 	lds	r20, 0x0138
    6f1a:	50 91 39 01 	lds	r21, 0x0139
    6f1e:	60 91 3a 01 	lds	r22, 0x013A
    6f22:	70 91 3b 01 	lds	r23, 0x013B
    6f26:	80 91 3c 01 	lds	r24, 0x013C
    6f2a:	90 91 3d 01 	lds	r25, 0x013D
    6f2e:	0e 94 e6 0f 	call	0x1fcc	; 0x1fcc <CalcStraightPath>
    6f32:	60 91 5a 01 	lds	r22, 0x015A
    6f36:	70 91 5b 01 	lds	r23, 0x015B
    6f3a:	88 27       	eor	r24, r24
    6f3c:	77 fd       	sbrc	r23, 7
    6f3e:	80 95       	com	r24
    6f40:	98 2f       	mov	r25, r24
    6f42:	0e 94 aa 50 	call	0xa154	; 0xa154 <__floatsisf>
    6f46:	d6 2e       	mov	r13, r22
    6f48:	c7 2e       	mov	r12, r23
    6f4a:	b8 2e       	mov	r11, r24
    6f4c:	a9 2e       	mov	r10, r25
    6f4e:	60 91 5c 01 	lds	r22, 0x015C
    6f52:	70 91 5d 01 	lds	r23, 0x015D
    6f56:	71 95       	neg	r23
    6f58:	61 95       	neg	r22
    6f5a:	71 09       	sbc	r23, r1
    6f5c:	88 27       	eor	r24, r24
    6f5e:	77 fd       	sbrc	r23, 7
    6f60:	80 95       	com	r24
    6f62:	98 2f       	mov	r25, r24
    6f64:	0e 94 aa 50 	call	0xa154	; 0xa154 <__floatsisf>
    6f68:	c6 2f       	mov	r28, r22
    6f6a:	d7 2f       	mov	r29, r23
    6f6c:	18 2f       	mov	r17, r24
    6f6e:	09 2f       	mov	r16, r25
    6f70:	20 91 5e 01 	lds	r18, 0x015E
    6f74:	30 91 5f 01 	lds	r19, 0x015F
    6f78:	66 27       	eor	r22, r22
    6f7a:	77 27       	eor	r23, r23
    6f7c:	62 1b       	sub	r22, r18
    6f7e:	73 0b       	sbc	r23, r19
    6f80:	88 27       	eor	r24, r24
    6f82:	77 fd       	sbrc	r23, 7
    6f84:	80 95       	com	r24
    6f86:	98 2f       	mov	r25, r24
    6f88:	0e 94 aa 50 	call	0xa154	; 0xa154 <__floatsisf>
    6f8c:	2d b7       	in	r18, 0x3d	; 61
    6f8e:	3e b7       	in	r19, 0x3e	; 62
    6f90:	28 5d       	subi	r18, 0xD8	; 216
    6f92:	3f 4f       	sbci	r19, 0xFF	; 255
    6f94:	0f b6       	in	r0, 0x3f	; 63
    6f96:	f8 94       	cli
    6f98:	3e bf       	out	0x3e, r19	; 62
    6f9a:	0f be       	out	0x3f, r0	; 63
    6f9c:	2d bf       	out	0x3d, r18	; 61
    6f9e:	af 92       	push	r10
    6fa0:	bf 92       	push	r11
    6fa2:	cf 92       	push	r12
    6fa4:	df 92       	push	r13
    6fa6:	0f 93       	push	r16
    6fa8:	1f 93       	push	r17
    6faa:	df 93       	push	r29
    6fac:	cf 93       	push	r28
    6fae:	9f 93       	push	r25
    6fb0:	8f 93       	push	r24
    6fb2:	7f 93       	push	r23
    6fb4:	6f 93       	push	r22
    6fb6:	af 92       	push	r10
    6fb8:	bf 92       	push	r11
    6fba:	cf 92       	push	r12
    6fbc:	df 92       	push	r13
    6fbe:	0f 93       	push	r16
    6fc0:	1f 93       	push	r17
    6fc2:	df 93       	push	r29
    6fc4:	cf 93       	push	r28
    6fc6:	a6 2e       	mov	r10, r22
    6fc8:	b7 2e       	mov	r11, r23
    6fca:	c8 2e       	mov	r12, r24
    6fcc:	d9 2e       	mov	r13, r25
    6fce:	03 e0       	ldi	r16, 0x03	; 3
    6fd0:	10 e0       	ldi	r17, 0x00	; 0
    6fd2:	20 91 2e 01 	lds	r18, 0x012E
    6fd6:	30 91 2f 01 	lds	r19, 0x012F
    6fda:	40 91 30 01 	lds	r20, 0x0130
    6fde:	50 91 31 01 	lds	r21, 0x0131
    6fe2:	60 91 32 01 	lds	r22, 0x0132
    6fe6:	70 91 33 01 	lds	r23, 0x0133
    6fea:	80 91 34 01 	lds	r24, 0x0134
    6fee:	90 91 35 01 	lds	r25, 0x0135
    6ff2:	0e 94 e6 0f 	call	0x1fcc	; 0x1fcc <CalcStraightPath>
    6ff6:	60 91 5a 01 	lds	r22, 0x015A
    6ffa:	70 91 5b 01 	lds	r23, 0x015B
    6ffe:	88 27       	eor	r24, r24
    7000:	77 fd       	sbrc	r23, 7
    7002:	80 95       	com	r24
    7004:	98 2f       	mov	r25, r24
    7006:	0e 94 aa 50 	call	0xa154	; 0xa154 <__floatsisf>
    700a:	d6 2e       	mov	r13, r22
    700c:	c7 2e       	mov	r12, r23
    700e:	b8 2e       	mov	r11, r24
    7010:	a9 2e       	mov	r10, r25
    7012:	20 91 5c 01 	lds	r18, 0x015C
    7016:	30 91 5d 01 	lds	r19, 0x015D
    701a:	66 27       	eor	r22, r22
    701c:	77 27       	eor	r23, r23
    701e:	62 1b       	sub	r22, r18
    7020:	73 0b       	sbc	r23, r19
    7022:	88 27       	eor	r24, r24
    7024:	77 fd       	sbrc	r23, 7
    7026:	80 95       	com	r24
    7028:	98 2f       	mov	r25, r24
    702a:	0e 94 aa 50 	call	0xa154	; 0xa154 <__floatsisf>
    702e:	c6 2f       	mov	r28, r22
    7030:	d7 2f       	mov	r29, r23
    7032:	18 2f       	mov	r17, r24
    7034:	09 2f       	mov	r16, r25
    7036:	60 91 5e 01 	lds	r22, 0x015E
    703a:	70 91 5f 01 	lds	r23, 0x015F
    703e:	88 27       	eor	r24, r24
    7040:	77 fd       	sbrc	r23, 7
    7042:	80 95       	com	r24
    7044:	98 2f       	mov	r25, r24
    7046:	0e 94 aa 50 	call	0xa154	; 0xa154 <__floatsisf>
    704a:	af 92       	push	r10
    704c:	bf 92       	push	r11
    704e:	cf 92       	push	r12
    7050:	df 92       	push	r13
    7052:	0f 93       	push	r16
    7054:	1f 93       	push	r17
    7056:	df 93       	push	r29
    7058:	cf 93       	push	r28
    705a:	9f 93       	push	r25
    705c:	8f 93       	push	r24
    705e:	7f 93       	push	r23
    7060:	6f 93       	push	r22
    7062:	af 92       	push	r10
    7064:	bf 92       	push	r11
    7066:	cf 92       	push	r12
    7068:	df 92       	push	r13
    706a:	0f 93       	push	r16
    706c:	1f 93       	push	r17
    706e:	df 93       	push	r29
    7070:	cf 93       	push	r28
    7072:	a6 2e       	mov	r10, r22
    7074:	b7 2e       	mov	r11, r23
    7076:	c8 2e       	mov	r12, r24
    7078:	d9 2e       	mov	r13, r25
    707a:	03 e0       	ldi	r16, 0x03	; 3
    707c:	10 e0       	ldi	r17, 0x00	; 0
    707e:	20 91 26 01 	lds	r18, 0x0126
    7082:	30 91 27 01 	lds	r19, 0x0127
    7086:	40 91 28 01 	lds	r20, 0x0128
    708a:	50 91 29 01 	lds	r21, 0x0129
    708e:	60 91 2a 01 	lds	r22, 0x012A
    7092:	70 91 2b 01 	lds	r23, 0x012B
    7096:	80 91 2c 01 	lds	r24, 0x012C
    709a:	90 91 2d 01 	lds	r25, 0x012D
    709e:	0e 94 e6 0f 	call	0x1fcc	; 0x1fcc <CalcStraightPath>
    70a2:	10 92 81 01 	sts	0x0181, r1
    70a6:	10 92 80 01 	sts	0x0180, r1
    70aa:	81 e0       	ldi	r24, 0x01	; 1
    70ac:	90 e0       	ldi	r25, 0x00	; 0
    70ae:	90 93 23 01 	sts	0x0123, r25
    70b2:	80 93 22 01 	sts	0x0122, r24
    70b6:	8d b7       	in	r24, 0x3d	; 61
    70b8:	9e b7       	in	r25, 0x3e	; 62
    70ba:	88 96       	adiw	r24, 0x28	; 40
    70bc:	0f b6       	in	r0, 0x3f	; 63
    70be:	f8 94       	cli
    70c0:	9e bf       	out	0x3e, r25	; 62
    70c2:	0f be       	out	0x3f, r0	; 63
    70c4:	8d bf       	out	0x3d, r24	; 61
    70c6:	df 91       	pop	r29
    70c8:	cf 91       	pop	r28
    70ca:	1f 91       	pop	r17
    70cc:	0f 91       	pop	r16
    70ce:	ff 90       	pop	r15
    70d0:	ef 90       	pop	r14
    70d2:	df 90       	pop	r13
    70d4:	cf 90       	pop	r12
    70d6:	bf 90       	pop	r11
    70d8:	af 90       	pop	r10
    70da:	08 95       	ret

000070dc <MakeTrotGait>:
    70dc:	2f 92       	push	r2
    70de:	3f 92       	push	r3
    70e0:	4f 92       	push	r4
    70e2:	5f 92       	push	r5
    70e4:	6f 92       	push	r6
    70e6:	7f 92       	push	r7
    70e8:	8f 92       	push	r8
    70ea:	9f 92       	push	r9
    70ec:	af 92       	push	r10
    70ee:	bf 92       	push	r11
    70f0:	cf 92       	push	r12
    70f2:	df 92       	push	r13
    70f4:	ef 92       	push	r14
    70f6:	ff 92       	push	r15
    70f8:	0f 93       	push	r16
    70fa:	1f 93       	push	r17
    70fc:	cf 93       	push	r28
    70fe:	df 93       	push	r29
    7100:	00 d0       	rcall	.+0      	; 0x7102 <MakeTrotGait+0x26>
    7102:	00 d0       	rcall	.+0      	; 0x7104 <MakeTrotGait+0x28>
    7104:	cd b7       	in	r28, 0x3d	; 61
    7106:	de b7       	in	r29, 0x3e	; 62
    7108:	9c 01       	movw	r18, r24
    710a:	99 23       	and	r25, r25
    710c:	14 f4       	brge	.+4      	; 0x7112 <MakeTrotGait+0x36>
    710e:	2f 5f       	subi	r18, 0xFF	; 255
    7110:	3f 4f       	sbci	r19, 0xFF	; 255
    7112:	a9 01       	movw	r20, r18
    7114:	55 95       	asr	r21
    7116:	47 95       	ror	r20
    7118:	5c 83       	std	Y+4, r21	; 0x04
    711a:	4b 83       	std	Y+3, r20	; 0x03
    711c:	9c 01       	movw	r18, r24
    711e:	21 50       	subi	r18, 0x01	; 1
    7120:	31 09       	sbc	r19, r1
    7122:	30 93 21 01 	sts	0x0121, r19
    7126:	20 93 20 01 	sts	0x0120, r18
    712a:	9c 01       	movw	r18, r24
    712c:	99 23       	and	r25, r25
    712e:	14 f4       	brge	.+4      	; 0x7134 <MakeTrotGait+0x58>
    7130:	2d 5f       	subi	r18, 0xFD	; 253
    7132:	3f 4f       	sbci	r19, 0xFF	; 255
    7134:	35 95       	asr	r19
    7136:	27 95       	ror	r18
    7138:	35 95       	asr	r19
    713a:	27 95       	ror	r18
    713c:	21 50       	subi	r18, 0x01	; 1
    713e:	31 09       	sbc	r19, r1
    7140:	30 93 5c 14 	sts	0x145C, r19
    7144:	20 93 5b 14 	sts	0x145B, r18
    7148:	80 91 45 10 	lds	r24, 0x1045
    714c:	90 91 46 10 	lds	r25, 0x1046
    7150:	20 91 47 10 	lds	r18, 0x1047
    7154:	30 91 48 10 	lds	r19, 0x1048
    7158:	80 90 49 10 	lds	r8, 0x1049
    715c:	90 90 4a 10 	lds	r9, 0x104A
    7160:	60 90 60 01 	lds	r6, 0x0160
    7164:	70 90 61 01 	lds	r7, 0x0161
    7168:	23 01       	movw	r4, r6
    716a:	42 0e       	add	r4, r18
    716c:	53 1e       	adc	r5, r19
    716e:	68 0c       	add	r6, r8
    7170:	79 1c       	adc	r7, r9
    7172:	40 91 98 01 	lds	r20, 0x0198
    7176:	42 30       	cpi	r20, 0x02	; 2
    7178:	09 f4       	brne	.+2      	; 0x717c <MakeTrotGait+0xa0>
    717a:	36 c7       	rjmp	.+3692   	; 0x7fe8 <MakeTrotGait+0xf0c>
    717c:	38 f4       	brcc	.+14     	; 0x718c <MakeTrotGait+0xb0>
    717e:	44 23       	and	r20, r20
    7180:	79 f0       	breq	.+30     	; 0x71a0 <MakeTrotGait+0xc4>
    7182:	41 30       	cpi	r20, 0x01	; 1
    7184:	09 f4       	brne	.+2      	; 0x7188 <MakeTrotGait+0xac>
    7186:	9f c3       	rjmp	.+1854   	; 0x78c6 <MakeTrotGait+0x7ea>
    7188:	0c 94 40 4a 	jmp	0x9480	; 0x9480 <MakeTrotGait+0x23a4>
    718c:	43 30       	cpi	r20, 0x03	; 3
    718e:	11 f4       	brne	.+4      	; 0x7194 <MakeTrotGait+0xb8>
    7190:	0c 94 86 43 	jmp	0x870c	; 0x870c <MakeTrotGait+0x1630>
    7194:	44 30       	cpi	r20, 0x04	; 4
    7196:	11 f4       	brne	.+4      	; 0x719c <MakeTrotGait+0xc0>
    7198:	0c 94 19 47 	jmp	0x8e32	; 0x8e32 <MakeTrotGait+0x1d56>
    719c:	0c 94 40 4a 	jmp	0x9480	; 0x9480 <MakeTrotGait+0x23a4>
    71a0:	92 01       	movw	r18, r4
    71a2:	55 20       	and	r5, r5
    71a4:	14 f4       	brge	.+4      	; 0x71aa <MakeTrotGait+0xce>
    71a6:	2f 5f       	subi	r18, 0xFF	; 255
    71a8:	3f 4f       	sbci	r19, 0xFF	; 255
    71aa:	29 01       	movw	r4, r18
    71ac:	55 94       	asr	r5
    71ae:	47 94       	ror	r4
    71b0:	00 91 5c 01 	lds	r16, 0x015C
    71b4:	10 91 5d 01 	lds	r17, 0x015D
    71b8:	4c 01       	movw	r8, r24
    71ba:	99 23       	and	r25, r25
    71bc:	1c f4       	brge	.+6      	; 0x71c4 <MakeTrotGait+0xe8>
    71be:	5f ef       	ldi	r21, 0xFF	; 255
    71c0:	85 1a       	sub	r8, r21
    71c2:	95 0a       	sbc	r9, r21
    71c4:	95 94       	asr	r9
    71c6:	87 94       	ror	r8
    71c8:	20 90 5e 01 	lds	r2, 0x015E
    71cc:	30 90 5f 01 	lds	r3, 0x015F
    71d0:	60 91 5a 01 	lds	r22, 0x015A
    71d4:	70 91 5b 01 	lds	r23, 0x015B
    71d8:	88 27       	eor	r24, r24
    71da:	77 fd       	sbrc	r23, 7
    71dc:	80 95       	com	r24
    71de:	98 2f       	mov	r25, r24
    71e0:	0e 94 aa 50 	call	0xa154	; 0xa154 <__floatsisf>
    71e4:	69 83       	std	Y+1, r22	; 0x01
    71e6:	7a 83       	std	Y+2, r23	; 0x02
    71e8:	e8 2e       	mov	r14, r24
    71ea:	f9 2e       	mov	r15, r25
    71ec:	66 27       	eor	r22, r22
    71ee:	77 27       	eor	r23, r23
    71f0:	62 19       	sub	r22, r2
    71f2:	73 09       	sbc	r23, r3
    71f4:	68 19       	sub	r22, r8
    71f6:	79 09       	sbc	r23, r9
    71f8:	88 27       	eor	r24, r24
    71fa:	77 fd       	sbrc	r23, 7
    71fc:	80 95       	com	r24
    71fe:	98 2f       	mov	r25, r24
    7200:	0e 94 aa 50 	call	0xa154	; 0xa154 <__floatsisf>
    7204:	5b 01       	movw	r10, r22
    7206:	6c 01       	movw	r12, r24
    7208:	ff 92       	push	r15
    720a:	ef 92       	push	r14
    720c:	8a 81       	ldd	r24, Y+2	; 0x02
    720e:	8f 93       	push	r24
    7210:	99 81       	ldd	r25, Y+1	; 0x01
    7212:	9f 93       	push	r25
    7214:	c2 01       	movw	r24, r4
    7216:	80 0f       	add	r24, r16
    7218:	91 1f       	adc	r25, r17
    721a:	bc 01       	movw	r22, r24
    721c:	88 27       	eor	r24, r24
    721e:	77 fd       	sbrc	r23, 7
    7220:	80 95       	com	r24
    7222:	98 2f       	mov	r25, r24
    7224:	0e 94 aa 50 	call	0xa154	; 0xa154 <__floatsisf>
    7228:	9f 93       	push	r25
    722a:	8f 93       	push	r24
    722c:	7f 93       	push	r23
    722e:	6f 93       	push	r22
    7230:	c4 01       	movw	r24, r8
    7232:	82 19       	sub	r24, r2
    7234:	93 09       	sbc	r25, r3
    7236:	bc 01       	movw	r22, r24
    7238:	88 27       	eor	r24, r24
    723a:	77 fd       	sbrc	r23, 7
    723c:	80 95       	com	r24
    723e:	98 2f       	mov	r25, r24
    7240:	0e 94 aa 50 	call	0xa154	; 0xa154 <__floatsisf>
    7244:	9f 93       	push	r25
    7246:	8f 93       	push	r24
    7248:	7f 93       	push	r23
    724a:	6f 93       	push	r22
    724c:	ff 92       	push	r15
    724e:	ef 92       	push	r14
    7250:	ea 81       	ldd	r30, Y+2	; 0x02
    7252:	ef 93       	push	r30
    7254:	f9 81       	ldd	r31, Y+1	; 0x01
    7256:	ff 93       	push	r31
    7258:	b8 01       	movw	r22, r16
    725a:	64 19       	sub	r22, r4
    725c:	75 09       	sbc	r23, r5
    725e:	88 27       	eor	r24, r24
    7260:	77 fd       	sbrc	r23, 7
    7262:	80 95       	com	r24
    7264:	98 2f       	mov	r25, r24
    7266:	0e 94 aa 50 	call	0xa154	; 0xa154 <__floatsisf>
    726a:	9f 93       	push	r25
    726c:	8f 93       	push	r24
    726e:	7f 93       	push	r23
    7270:	6f 93       	push	r22
    7272:	e1 2c       	mov	r14, r1
    7274:	f1 2c       	mov	r15, r1
    7276:	0b 81       	ldd	r16, Y+3	; 0x03
    7278:	1c 81       	ldd	r17, Y+4	; 0x04
    727a:	20 91 3e 01 	lds	r18, 0x013E
    727e:	30 91 3f 01 	lds	r19, 0x013F
    7282:	40 91 40 01 	lds	r20, 0x0140
    7286:	50 91 41 01 	lds	r21, 0x0141
    728a:	60 91 42 01 	lds	r22, 0x0142
    728e:	70 91 43 01 	lds	r23, 0x0143
    7292:	80 91 44 01 	lds	r24, 0x0144
    7296:	90 91 45 01 	lds	r25, 0x0145
    729a:	0e 94 6b 13 	call	0x26d6	; 0x26d6 <CalcCurvedPath>
    729e:	20 90 5c 01 	lds	r2, 0x015C
    72a2:	30 90 5d 01 	lds	r3, 0x015D
    72a6:	00 91 5e 01 	lds	r16, 0x015E
    72aa:	10 91 5f 01 	lds	r17, 0x015F
    72ae:	60 91 5a 01 	lds	r22, 0x015A
    72b2:	70 91 5b 01 	lds	r23, 0x015B
    72b6:	88 27       	eor	r24, r24
    72b8:	77 fd       	sbrc	r23, 7
    72ba:	80 95       	com	r24
    72bc:	98 2f       	mov	r25, r24
    72be:	0e 94 aa 50 	call	0xa154	; 0xa154 <__floatsisf>
    72c2:	69 83       	std	Y+1, r22	; 0x01
    72c4:	7a 83       	std	Y+2, r23	; 0x02
    72c6:	e8 2e       	mov	r14, r24
    72c8:	f9 2e       	mov	r15, r25
    72ca:	b4 01       	movw	r22, r8
    72cc:	60 1b       	sub	r22, r16
    72ce:	71 0b       	sbc	r23, r17
    72d0:	88 27       	eor	r24, r24
    72d2:	77 fd       	sbrc	r23, 7
    72d4:	80 95       	com	r24
    72d6:	98 2f       	mov	r25, r24
    72d8:	0e 94 aa 50 	call	0xa154	; 0xa154 <__floatsisf>
    72dc:	5b 01       	movw	r10, r22
    72de:	6c 01       	movw	r12, r24
    72e0:	ff 92       	push	r15
    72e2:	ef 92       	push	r14
    72e4:	2a 81       	ldd	r18, Y+2	; 0x02
    72e6:	2f 93       	push	r18
    72e8:	39 81       	ldd	r19, Y+1	; 0x01
    72ea:	3f 93       	push	r19
    72ec:	c1 01       	movw	r24, r2
    72ee:	84 19       	sub	r24, r4
    72f0:	95 09       	sbc	r25, r5
    72f2:	bc 01       	movw	r22, r24
    72f4:	88 27       	eor	r24, r24
    72f6:	77 fd       	sbrc	r23, 7
    72f8:	80 95       	com	r24
    72fa:	98 2f       	mov	r25, r24
    72fc:	0e 94 aa 50 	call	0xa154	; 0xa154 <__floatsisf>
    7300:	9f 93       	push	r25
    7302:	8f 93       	push	r24
    7304:	7f 93       	push	r23
    7306:	6f 93       	push	r22
    7308:	11 95       	neg	r17
    730a:	01 95       	neg	r16
    730c:	11 09       	sbc	r17, r1
    730e:	08 19       	sub	r16, r8
    7310:	19 09       	sbc	r17, r9
    7312:	b8 01       	movw	r22, r16
    7314:	88 27       	eor	r24, r24
    7316:	77 fd       	sbrc	r23, 7
    7318:	80 95       	com	r24
    731a:	98 2f       	mov	r25, r24
    731c:	0e 94 aa 50 	call	0xa154	; 0xa154 <__floatsisf>
    7320:	9f 93       	push	r25
    7322:	8f 93       	push	r24
    7324:	7f 93       	push	r23
    7326:	6f 93       	push	r22
    7328:	ff 92       	push	r15
    732a:	ef 92       	push	r14
    732c:	4a 81       	ldd	r20, Y+2	; 0x02
    732e:	4f 93       	push	r20
    7330:	59 81       	ldd	r21, Y+1	; 0x01
    7332:	5f 93       	push	r21
    7334:	b2 01       	movw	r22, r4
    7336:	62 0d       	add	r22, r2
    7338:	73 1d       	adc	r23, r3
    733a:	88 27       	eor	r24, r24
    733c:	77 fd       	sbrc	r23, 7
    733e:	80 95       	com	r24
    7340:	98 2f       	mov	r25, r24
    7342:	0e 94 aa 50 	call	0xa154	; 0xa154 <__floatsisf>
    7346:	9f 93       	push	r25
    7348:	8f 93       	push	r24
    734a:	7f 93       	push	r23
    734c:	6f 93       	push	r22
    734e:	eb 80       	ldd	r14, Y+3	; 0x03
    7350:	fc 80       	ldd	r15, Y+4	; 0x04
    7352:	87 01       	movw	r16, r14
    7354:	20 91 3e 01 	lds	r18, 0x013E
    7358:	30 91 3f 01 	lds	r19, 0x013F
    735c:	40 91 40 01 	lds	r20, 0x0140
    7360:	50 91 41 01 	lds	r21, 0x0141
    7364:	60 91 42 01 	lds	r22, 0x0142
    7368:	70 91 43 01 	lds	r23, 0x0143
    736c:	80 91 44 01 	lds	r24, 0x0144
    7370:	90 91 45 01 	lds	r25, 0x0145
    7374:	0e 94 e6 0f 	call	0x1fcc	; 0x1fcc <CalcStraightPath>
    7378:	c3 01       	movw	r24, r6
    737a:	0f b6       	in	r0, 0x3f	; 63
    737c:	f8 94       	cli
    737e:	de bf       	out	0x3e, r29	; 62
    7380:	0f be       	out	0x3f, r0	; 63
    7382:	cd bf       	out	0x3d, r28	; 61
    7384:	99 23       	and	r25, r25
    7386:	0c f4       	brge	.+2      	; 0x738a <MakeTrotGait+0x2ae>
    7388:	01 96       	adiw	r24, 0x01	; 1
    738a:	3c 01       	movw	r6, r24
    738c:	75 94       	asr	r7
    738e:	67 94       	ror	r6
    7390:	20 90 5c 01 	lds	r2, 0x015C
    7394:	30 90 5d 01 	lds	r3, 0x015D
    7398:	00 91 5e 01 	lds	r16, 0x015E
    739c:	10 91 5f 01 	lds	r17, 0x015F
    73a0:	60 91 5a 01 	lds	r22, 0x015A
    73a4:	70 91 5b 01 	lds	r23, 0x015B
    73a8:	88 27       	eor	r24, r24
    73aa:	77 fd       	sbrc	r23, 7
    73ac:	80 95       	com	r24
    73ae:	98 2f       	mov	r25, r24
    73b0:	0e 94 aa 50 	call	0xa154	; 0xa154 <__floatsisf>
    73b4:	69 83       	std	Y+1, r22	; 0x01
    73b6:	7a 83       	std	Y+2, r23	; 0x02
    73b8:	e8 2e       	mov	r14, r24
    73ba:	f9 2e       	mov	r15, r25
    73bc:	b8 01       	movw	r22, r16
    73be:	68 19       	sub	r22, r8
    73c0:	79 09       	sbc	r23, r9
    73c2:	88 27       	eor	r24, r24
    73c4:	77 fd       	sbrc	r23, 7
    73c6:	80 95       	com	r24
    73c8:	98 2f       	mov	r25, r24
    73ca:	0e 94 aa 50 	call	0xa154	; 0xa154 <__floatsisf>
    73ce:	5b 01       	movw	r10, r22
    73d0:	6c 01       	movw	r12, r24
    73d2:	ff 92       	push	r15
    73d4:	ef 92       	push	r14
    73d6:	fa 81       	ldd	r31, Y+2	; 0x02
    73d8:	ff 93       	push	r31
    73da:	29 81       	ldd	r18, Y+1	; 0x01
    73dc:	2f 93       	push	r18
    73de:	c3 01       	movw	r24, r6
    73e0:	82 19       	sub	r24, r2
    73e2:	93 09       	sbc	r25, r3
    73e4:	bc 01       	movw	r22, r24
    73e6:	88 27       	eor	r24, r24
    73e8:	77 fd       	sbrc	r23, 7
    73ea:	80 95       	com	r24
    73ec:	98 2f       	mov	r25, r24
    73ee:	0e 94 aa 50 	call	0xa154	; 0xa154 <__floatsisf>
    73f2:	9f 93       	push	r25
    73f4:	8f 93       	push	r24
    73f6:	7f 93       	push	r23
    73f8:	6f 93       	push	r22
    73fa:	08 0d       	add	r16, r8
    73fc:	19 1d       	adc	r17, r9
    73fe:	b8 01       	movw	r22, r16
    7400:	88 27       	eor	r24, r24
    7402:	77 fd       	sbrc	r23, 7
    7404:	80 95       	com	r24
    7406:	98 2f       	mov	r25, r24
    7408:	0e 94 aa 50 	call	0xa154	; 0xa154 <__floatsisf>
    740c:	9f 93       	push	r25
    740e:	8f 93       	push	r24
    7410:	7f 93       	push	r23
    7412:	6f 93       	push	r22
    7414:	ff 92       	push	r15
    7416:	ef 92       	push	r14
    7418:	3a 81       	ldd	r19, Y+2	; 0x02
    741a:	3f 93       	push	r19
    741c:	49 81       	ldd	r20, Y+1	; 0x01
    741e:	4f 93       	push	r20
    7420:	66 27       	eor	r22, r22
    7422:	77 27       	eor	r23, r23
    7424:	62 19       	sub	r22, r2
    7426:	73 09       	sbc	r23, r3
    7428:	66 19       	sub	r22, r6
    742a:	77 09       	sbc	r23, r7
    742c:	88 27       	eor	r24, r24
    742e:	77 fd       	sbrc	r23, 7
    7430:	80 95       	com	r24
    7432:	98 2f       	mov	r25, r24
    7434:	0e 94 aa 50 	call	0xa154	; 0xa154 <__floatsisf>
    7438:	9f 93       	push	r25
    743a:	8f 93       	push	r24
    743c:	7f 93       	push	r23
    743e:	6f 93       	push	r22
    7440:	e1 2c       	mov	r14, r1
    7442:	f1 2c       	mov	r15, r1
    7444:	0b 81       	ldd	r16, Y+3	; 0x03
    7446:	1c 81       	ldd	r17, Y+4	; 0x04
    7448:	20 91 26 01 	lds	r18, 0x0126
    744c:	30 91 27 01 	lds	r19, 0x0127
    7450:	40 91 28 01 	lds	r20, 0x0128
    7454:	50 91 29 01 	lds	r21, 0x0129
    7458:	60 91 2a 01 	lds	r22, 0x012A
    745c:	70 91 2b 01 	lds	r23, 0x012B
    7460:	80 91 2c 01 	lds	r24, 0x012C
    7464:	90 91 2d 01 	lds	r25, 0x012D
    7468:	0e 94 6b 13 	call	0x26d6	; 0x26d6 <CalcCurvedPath>
    746c:	20 90 5c 01 	lds	r2, 0x015C
    7470:	30 90 5d 01 	lds	r3, 0x015D
    7474:	00 91 5e 01 	lds	r16, 0x015E
    7478:	10 91 5f 01 	lds	r17, 0x015F
    747c:	60 91 5a 01 	lds	r22, 0x015A
    7480:	70 91 5b 01 	lds	r23, 0x015B
    7484:	88 27       	eor	r24, r24
    7486:	77 fd       	sbrc	r23, 7
    7488:	80 95       	com	r24
    748a:	98 2f       	mov	r25, r24
    748c:	0e 94 aa 50 	call	0xa154	; 0xa154 <__floatsisf>
    7490:	69 83       	std	Y+1, r22	; 0x01
    7492:	7a 83       	std	Y+2, r23	; 0x02
    7494:	e8 2e       	mov	r14, r24
    7496:	f9 2e       	mov	r15, r25
    7498:	b4 01       	movw	r22, r8
    749a:	60 0f       	add	r22, r16
    749c:	71 1f       	adc	r23, r17
    749e:	88 27       	eor	r24, r24
    74a0:	77 fd       	sbrc	r23, 7
    74a2:	80 95       	com	r24
    74a4:	98 2f       	mov	r25, r24
    74a6:	0e 94 aa 50 	call	0xa154	; 0xa154 <__floatsisf>
    74aa:	5b 01       	movw	r10, r22
    74ac:	6c 01       	movw	r12, r24
    74ae:	ff 92       	push	r15
    74b0:	ef 92       	push	r14
    74b2:	5a 81       	ldd	r21, Y+2	; 0x02
    74b4:	5f 93       	push	r21
    74b6:	89 81       	ldd	r24, Y+1	; 0x01
    74b8:	8f 93       	push	r24
    74ba:	88 27       	eor	r24, r24
    74bc:	99 27       	eor	r25, r25
    74be:	82 19       	sub	r24, r2
    74c0:	93 09       	sbc	r25, r3
    74c2:	86 19       	sub	r24, r6
    74c4:	97 09       	sbc	r25, r7
    74c6:	bc 01       	movw	r22, r24
    74c8:	88 27       	eor	r24, r24
    74ca:	77 fd       	sbrc	r23, 7
    74cc:	80 95       	com	r24
    74ce:	98 2f       	mov	r25, r24
    74d0:	0e 94 aa 50 	call	0xa154	; 0xa154 <__floatsisf>
    74d4:	9f 93       	push	r25
    74d6:	8f 93       	push	r24
    74d8:	7f 93       	push	r23
    74da:	6f 93       	push	r22
    74dc:	08 19       	sub	r16, r8
    74de:	19 09       	sbc	r17, r9
    74e0:	b8 01       	movw	r22, r16
    74e2:	88 27       	eor	r24, r24
    74e4:	77 fd       	sbrc	r23, 7
    74e6:	80 95       	com	r24
    74e8:	98 2f       	mov	r25, r24
    74ea:	0e 94 aa 50 	call	0xa154	; 0xa154 <__floatsisf>
    74ee:	9f 93       	push	r25
    74f0:	8f 93       	push	r24
    74f2:	7f 93       	push	r23
    74f4:	6f 93       	push	r22
    74f6:	ff 92       	push	r15
    74f8:	ef 92       	push	r14
    74fa:	9a 81       	ldd	r25, Y+2	; 0x02
    74fc:	9f 93       	push	r25
    74fe:	e9 81       	ldd	r30, Y+1	; 0x01
    7500:	ef 93       	push	r30
    7502:	b3 01       	movw	r22, r6
    7504:	62 19       	sub	r22, r2
    7506:	73 09       	sbc	r23, r3
    7508:	88 27       	eor	r24, r24
    750a:	77 fd       	sbrc	r23, 7
    750c:	80 95       	com	r24
    750e:	98 2f       	mov	r25, r24
    7510:	0e 94 aa 50 	call	0xa154	; 0xa154 <__floatsisf>
    7514:	9f 93       	push	r25
    7516:	8f 93       	push	r24
    7518:	7f 93       	push	r23
    751a:	6f 93       	push	r22
    751c:	eb 80       	ldd	r14, Y+3	; 0x03
    751e:	fc 80       	ldd	r15, Y+4	; 0x04
    7520:	87 01       	movw	r16, r14
    7522:	20 91 26 01 	lds	r18, 0x0126
    7526:	30 91 27 01 	lds	r19, 0x0127
    752a:	40 91 28 01 	lds	r20, 0x0128
    752e:	50 91 29 01 	lds	r21, 0x0129
    7532:	60 91 2a 01 	lds	r22, 0x012A
    7536:	70 91 2b 01 	lds	r23, 0x012B
    753a:	80 91 2c 01 	lds	r24, 0x012C
    753e:	90 91 2d 01 	lds	r25, 0x012D
    7542:	0e 94 e6 0f 	call	0x1fcc	; 0x1fcc <CalcStraightPath>
    7546:	20 90 5c 01 	lds	r2, 0x015C
    754a:	30 90 5d 01 	lds	r3, 0x015D
    754e:	00 91 5e 01 	lds	r16, 0x015E
    7552:	10 91 5f 01 	lds	r17, 0x015F
    7556:	60 91 5a 01 	lds	r22, 0x015A
    755a:	70 91 5b 01 	lds	r23, 0x015B
    755e:	88 27       	eor	r24, r24
    7560:	77 fd       	sbrc	r23, 7
    7562:	80 95       	com	r24
    7564:	98 2f       	mov	r25, r24
    7566:	0e 94 aa 50 	call	0xa154	; 0xa154 <__floatsisf>
    756a:	69 83       	std	Y+1, r22	; 0x01
    756c:	7a 83       	std	Y+2, r23	; 0x02
    756e:	e8 2e       	mov	r14, r24
    7570:	f9 2e       	mov	r15, r25
    7572:	0f b6       	in	r0, 0x3f	; 63
    7574:	f8 94       	cli
    7576:	de bf       	out	0x3e, r29	; 62
    7578:	0f be       	out	0x3f, r0	; 63
    757a:	cd bf       	out	0x3d, r28	; 61
    757c:	b4 01       	movw	r22, r8
    757e:	60 1b       	sub	r22, r16
    7580:	71 0b       	sbc	r23, r17
    7582:	88 27       	eor	r24, r24
    7584:	77 fd       	sbrc	r23, 7
    7586:	80 95       	com	r24
    7588:	98 2f       	mov	r25, r24
    758a:	0e 94 aa 50 	call	0xa154	; 0xa154 <__floatsisf>
    758e:	5b 01       	movw	r10, r22
    7590:	6c 01       	movw	r12, r24
    7592:	ff 92       	push	r15
    7594:	ef 92       	push	r14
    7596:	3a 81       	ldd	r19, Y+2	; 0x02
    7598:	3f 93       	push	r19
    759a:	49 81       	ldd	r20, Y+1	; 0x01
    759c:	4f 93       	push	r20
    759e:	88 27       	eor	r24, r24
    75a0:	99 27       	eor	r25, r25
    75a2:	82 19       	sub	r24, r2
    75a4:	93 09       	sbc	r25, r3
    75a6:	84 19       	sub	r24, r4
    75a8:	95 09       	sbc	r25, r5
    75aa:	bc 01       	movw	r22, r24
    75ac:	88 27       	eor	r24, r24
    75ae:	77 fd       	sbrc	r23, 7
    75b0:	80 95       	com	r24
    75b2:	98 2f       	mov	r25, r24
    75b4:	0e 94 aa 50 	call	0xa154	; 0xa154 <__floatsisf>
    75b8:	9f 93       	push	r25
    75ba:	8f 93       	push	r24
    75bc:	7f 93       	push	r23
    75be:	6f 93       	push	r22
    75c0:	11 95       	neg	r17
    75c2:	01 95       	neg	r16
    75c4:	11 09       	sbc	r17, r1
    75c6:	08 19       	sub	r16, r8
    75c8:	19 09       	sbc	r17, r9
    75ca:	b8 01       	movw	r22, r16
    75cc:	88 27       	eor	r24, r24
    75ce:	77 fd       	sbrc	r23, 7
    75d0:	80 95       	com	r24
    75d2:	98 2f       	mov	r25, r24
    75d4:	0e 94 aa 50 	call	0xa154	; 0xa154 <__floatsisf>
    75d8:	9f 93       	push	r25
    75da:	8f 93       	push	r24
    75dc:	7f 93       	push	r23
    75de:	6f 93       	push	r22
    75e0:	ff 92       	push	r15
    75e2:	ef 92       	push	r14
    75e4:	5a 81       	ldd	r21, Y+2	; 0x02
    75e6:	5f 93       	push	r21
    75e8:	89 81       	ldd	r24, Y+1	; 0x01
    75ea:	8f 93       	push	r24
    75ec:	b2 01       	movw	r22, r4
    75ee:	62 19       	sub	r22, r2
    75f0:	73 09       	sbc	r23, r3
    75f2:	88 27       	eor	r24, r24
    75f4:	77 fd       	sbrc	r23, 7
    75f6:	80 95       	com	r24
    75f8:	98 2f       	mov	r25, r24
    75fa:	0e 94 aa 50 	call	0xa154	; 0xa154 <__floatsisf>
    75fe:	9f 93       	push	r25
    7600:	8f 93       	push	r24
    7602:	7f 93       	push	r23
    7604:	6f 93       	push	r22
    7606:	e1 2c       	mov	r14, r1
    7608:	f1 2c       	mov	r15, r1
    760a:	0b 81       	ldd	r16, Y+3	; 0x03
    760c:	1c 81       	ldd	r17, Y+4	; 0x04
    760e:	20 91 2e 01 	lds	r18, 0x012E
    7612:	30 91 2f 01 	lds	r19, 0x012F
    7616:	40 91 30 01 	lds	r20, 0x0130
    761a:	50 91 31 01 	lds	r21, 0x0131
    761e:	60 91 32 01 	lds	r22, 0x0132
    7622:	70 91 33 01 	lds	r23, 0x0133
    7626:	80 91 34 01 	lds	r24, 0x0134
    762a:	90 91 35 01 	lds	r25, 0x0135
    762e:	0e 94 e6 0f 	call	0x1fcc	; 0x1fcc <CalcStraightPath>
    7632:	20 90 5c 01 	lds	r2, 0x015C
    7636:	30 90 5d 01 	lds	r3, 0x015D
    763a:	00 91 5e 01 	lds	r16, 0x015E
    763e:	10 91 5f 01 	lds	r17, 0x015F
    7642:	60 91 5a 01 	lds	r22, 0x015A
    7646:	70 91 5b 01 	lds	r23, 0x015B
    764a:	88 27       	eor	r24, r24
    764c:	77 fd       	sbrc	r23, 7
    764e:	80 95       	com	r24
    7650:	98 2f       	mov	r25, r24
    7652:	0e 94 aa 50 	call	0xa154	; 0xa154 <__floatsisf>
    7656:	69 83       	std	Y+1, r22	; 0x01
    7658:	7a 83       	std	Y+2, r23	; 0x02
    765a:	e8 2e       	mov	r14, r24
    765c:	f9 2e       	mov	r15, r25
    765e:	66 27       	eor	r22, r22
    7660:	77 27       	eor	r23, r23
    7662:	60 1b       	sub	r22, r16
    7664:	71 0b       	sbc	r23, r17
    7666:	68 19       	sub	r22, r8
    7668:	79 09       	sbc	r23, r9
    766a:	88 27       	eor	r24, r24
    766c:	77 fd       	sbrc	r23, 7
    766e:	80 95       	com	r24
    7670:	98 2f       	mov	r25, r24
    7672:	0e 94 aa 50 	call	0xa154	; 0xa154 <__floatsisf>
    7676:	5b 01       	movw	r10, r22
    7678:	6c 01       	movw	r12, r24
    767a:	ff 92       	push	r15
    767c:	ef 92       	push	r14
    767e:	9a 81       	ldd	r25, Y+2	; 0x02
    7680:	9f 93       	push	r25
    7682:	e9 81       	ldd	r30, Y+1	; 0x01
    7684:	ef 93       	push	r30
    7686:	c2 01       	movw	r24, r4
    7688:	82 19       	sub	r24, r2
    768a:	93 09       	sbc	r25, r3
    768c:	bc 01       	movw	r22, r24
    768e:	88 27       	eor	r24, r24
    7690:	77 fd       	sbrc	r23, 7
    7692:	80 95       	com	r24
    7694:	98 2f       	mov	r25, r24
    7696:	0e 94 aa 50 	call	0xa154	; 0xa154 <__floatsisf>
    769a:	9f 93       	push	r25
    769c:	8f 93       	push	r24
    769e:	7f 93       	push	r23
    76a0:	6f 93       	push	r22
    76a2:	c4 01       	movw	r24, r8
    76a4:	80 1b       	sub	r24, r16
    76a6:	91 0b       	sbc	r25, r17
    76a8:	bc 01       	movw	r22, r24
    76aa:	88 27       	eor	r24, r24
    76ac:	77 fd       	sbrc	r23, 7
    76ae:	80 95       	com	r24
    76b0:	98 2f       	mov	r25, r24
    76b2:	0e 94 aa 50 	call	0xa154	; 0xa154 <__floatsisf>
    76b6:	9f 93       	push	r25
    76b8:	8f 93       	push	r24
    76ba:	7f 93       	push	r23
    76bc:	6f 93       	push	r22
    76be:	ff 92       	push	r15
    76c0:	ef 92       	push	r14
    76c2:	fa 81       	ldd	r31, Y+2	; 0x02
    76c4:	ff 93       	push	r31
    76c6:	29 81       	ldd	r18, Y+1	; 0x01
    76c8:	2f 93       	push	r18
    76ca:	66 27       	eor	r22, r22
    76cc:	77 27       	eor	r23, r23
    76ce:	62 19       	sub	r22, r2
    76d0:	73 09       	sbc	r23, r3
    76d2:	64 19       	sub	r22, r4
    76d4:	75 09       	sbc	r23, r5
    76d6:	88 27       	eor	r24, r24
    76d8:	77 fd       	sbrc	r23, 7
    76da:	80 95       	com	r24
    76dc:	98 2f       	mov	r25, r24
    76de:	0e 94 aa 50 	call	0xa154	; 0xa154 <__floatsisf>
    76e2:	9f 93       	push	r25
    76e4:	8f 93       	push	r24
    76e6:	7f 93       	push	r23
    76e8:	6f 93       	push	r22
    76ea:	eb 80       	ldd	r14, Y+3	; 0x03
    76ec:	fc 80       	ldd	r15, Y+4	; 0x04
    76ee:	87 01       	movw	r16, r14
    76f0:	20 91 2e 01 	lds	r18, 0x012E
    76f4:	30 91 2f 01 	lds	r19, 0x012F
    76f8:	40 91 30 01 	lds	r20, 0x0130
    76fc:	50 91 31 01 	lds	r21, 0x0131
    7700:	60 91 32 01 	lds	r22, 0x0132
    7704:	70 91 33 01 	lds	r23, 0x0133
    7708:	80 91 34 01 	lds	r24, 0x0134
    770c:	90 91 35 01 	lds	r25, 0x0135
    7710:	0e 94 6b 13 	call	0x26d6	; 0x26d6 <CalcCurvedPath>
    7714:	40 90 5c 01 	lds	r4, 0x015C
    7718:	50 90 5d 01 	lds	r5, 0x015D
    771c:	00 91 5e 01 	lds	r16, 0x015E
    7720:	10 91 5f 01 	lds	r17, 0x015F
    7724:	60 91 5a 01 	lds	r22, 0x015A
    7728:	70 91 5b 01 	lds	r23, 0x015B
    772c:	88 27       	eor	r24, r24
    772e:	77 fd       	sbrc	r23, 7
    7730:	80 95       	com	r24
    7732:	98 2f       	mov	r25, r24
    7734:	0e 94 aa 50 	call	0xa154	; 0xa154 <__floatsisf>
    7738:	26 2e       	mov	r2, r22
    773a:	37 2e       	mov	r3, r23
    773c:	f8 2e       	mov	r15, r24
    773e:	e9 2e       	mov	r14, r25
    7740:	0f b6       	in	r0, 0x3f	; 63
    7742:	f8 94       	cli
    7744:	de bf       	out	0x3e, r29	; 62
    7746:	0f be       	out	0x3f, r0	; 63
    7748:	cd bf       	out	0x3d, r28	; 61
    774a:	b4 01       	movw	r22, r8
    774c:	60 0f       	add	r22, r16
    774e:	71 1f       	adc	r23, r17
    7750:	88 27       	eor	r24, r24
    7752:	77 fd       	sbrc	r23, 7
    7754:	80 95       	com	r24
    7756:	98 2f       	mov	r25, r24
    7758:	0e 94 aa 50 	call	0xa154	; 0xa154 <__floatsisf>
    775c:	5b 01       	movw	r10, r22
    775e:	6c 01       	movw	r12, r24
    7760:	ef 92       	push	r14
    7762:	ff 92       	push	r15
    7764:	3f 92       	push	r3
    7766:	2f 92       	push	r2
    7768:	92 01       	movw	r18, r4
    776a:	26 19       	sub	r18, r6
    776c:	37 09       	sbc	r19, r7
    776e:	b9 01       	movw	r22, r18
    7770:	88 27       	eor	r24, r24
    7772:	77 fd       	sbrc	r23, 7
    7774:	80 95       	com	r24
    7776:	98 2f       	mov	r25, r24
    7778:	0e 94 aa 50 	call	0xa154	; 0xa154 <__floatsisf>
    777c:	9f 93       	push	r25
    777e:	8f 93       	push	r24
    7780:	7f 93       	push	r23
    7782:	6f 93       	push	r22
    7784:	b8 01       	movw	r22, r16
    7786:	68 19       	sub	r22, r8
    7788:	79 09       	sbc	r23, r9
    778a:	88 27       	eor	r24, r24
    778c:	77 fd       	sbrc	r23, 7
    778e:	80 95       	com	r24
    7790:	98 2f       	mov	r25, r24
    7792:	0e 94 aa 50 	call	0xa154	; 0xa154 <__floatsisf>
    7796:	9f 93       	push	r25
    7798:	8f 93       	push	r24
    779a:	7f 93       	push	r23
    779c:	6f 93       	push	r22
    779e:	ef 92       	push	r14
    77a0:	ff 92       	push	r15
    77a2:	3f 92       	push	r3
    77a4:	2f 92       	push	r2
    77a6:	b3 01       	movw	r22, r6
    77a8:	64 0d       	add	r22, r4
    77aa:	75 1d       	adc	r23, r5
    77ac:	88 27       	eor	r24, r24
    77ae:	77 fd       	sbrc	r23, 7
    77b0:	80 95       	com	r24
    77b2:	98 2f       	mov	r25, r24
    77b4:	0e 94 aa 50 	call	0xa154	; 0xa154 <__floatsisf>
    77b8:	9f 93       	push	r25
    77ba:	8f 93       	push	r24
    77bc:	7f 93       	push	r23
    77be:	6f 93       	push	r22
    77c0:	e1 2c       	mov	r14, r1
    77c2:	f1 2c       	mov	r15, r1
    77c4:	0b 81       	ldd	r16, Y+3	; 0x03
    77c6:	1c 81       	ldd	r17, Y+4	; 0x04
    77c8:	20 91 36 01 	lds	r18, 0x0136
    77cc:	30 91 37 01 	lds	r19, 0x0137
    77d0:	40 91 38 01 	lds	r20, 0x0138
    77d4:	50 91 39 01 	lds	r21, 0x0139
    77d8:	60 91 3a 01 	lds	r22, 0x013A
    77dc:	70 91 3b 01 	lds	r23, 0x013B
    77e0:	80 91 3c 01 	lds	r24, 0x013C
    77e4:	90 91 3d 01 	lds	r25, 0x013D
    77e8:	0e 94 e6 0f 	call	0x1fcc	; 0x1fcc <CalcStraightPath>
    77ec:	40 90 5c 01 	lds	r4, 0x015C
    77f0:	50 90 5d 01 	lds	r5, 0x015D
    77f4:	00 91 5e 01 	lds	r16, 0x015E
    77f8:	10 91 5f 01 	lds	r17, 0x015F
    77fc:	60 91 5a 01 	lds	r22, 0x015A
    7800:	70 91 5b 01 	lds	r23, 0x015B
    7804:	88 27       	eor	r24, r24
    7806:	77 fd       	sbrc	r23, 7
    7808:	80 95       	com	r24
    780a:	98 2f       	mov	r25, r24
    780c:	0e 94 aa 50 	call	0xa154	; 0xa154 <__floatsisf>
    7810:	26 2e       	mov	r2, r22
    7812:	37 2e       	mov	r3, r23
    7814:	f8 2e       	mov	r15, r24
    7816:	e9 2e       	mov	r14, r25
    7818:	b8 01       	movw	r22, r16
    781a:	68 19       	sub	r22, r8
    781c:	79 09       	sbc	r23, r9
    781e:	88 27       	eor	r24, r24
    7820:	77 fd       	sbrc	r23, 7
    7822:	80 95       	com	r24
    7824:	98 2f       	mov	r25, r24
    7826:	0e 94 aa 50 	call	0xa154	; 0xa154 <__floatsisf>
    782a:	5b 01       	movw	r10, r22
    782c:	6c 01       	movw	r12, r24
    782e:	ef 92       	push	r14
    7830:	ff 92       	push	r15
    7832:	3f 92       	push	r3
    7834:	2f 92       	push	r2
    7836:	93 01       	movw	r18, r6
    7838:	24 0d       	add	r18, r4
    783a:	35 1d       	adc	r19, r5
    783c:	b9 01       	movw	r22, r18
    783e:	88 27       	eor	r24, r24
    7840:	77 fd       	sbrc	r23, 7
    7842:	80 95       	com	r24
    7844:	98 2f       	mov	r25, r24
    7846:	0e 94 aa 50 	call	0xa154	; 0xa154 <__floatsisf>
    784a:	9f 93       	push	r25
    784c:	8f 93       	push	r24
    784e:	7f 93       	push	r23
    7850:	6f 93       	push	r22
    7852:	b4 01       	movw	r22, r8
    7854:	60 0f       	add	r22, r16
    7856:	71 1f       	adc	r23, r17
    7858:	88 27       	eor	r24, r24
    785a:	77 fd       	sbrc	r23, 7
    785c:	80 95       	com	r24
    785e:	98 2f       	mov	r25, r24
    7860:	0e 94 aa 50 	call	0xa154	; 0xa154 <__floatsisf>
    7864:	9f 93       	push	r25
    7866:	8f 93       	push	r24
    7868:	7f 93       	push	r23
    786a:	6f 93       	push	r22
    786c:	ef 92       	push	r14
    786e:	ff 92       	push	r15
    7870:	3f 92       	push	r3
    7872:	2f 92       	push	r2
    7874:	b2 01       	movw	r22, r4
    7876:	66 19       	sub	r22, r6
    7878:	77 09       	sbc	r23, r7
    787a:	88 27       	eor	r24, r24
    787c:	77 fd       	sbrc	r23, 7
    787e:	80 95       	com	r24
    7880:	98 2f       	mov	r25, r24
    7882:	0e 94 aa 50 	call	0xa154	; 0xa154 <__floatsisf>
    7886:	9f 93       	push	r25
    7888:	8f 93       	push	r24
    788a:	7f 93       	push	r23
    788c:	6f 93       	push	r22
    788e:	eb 80       	ldd	r14, Y+3	; 0x03
    7890:	fc 80       	ldd	r15, Y+4	; 0x04
    7892:	87 01       	movw	r16, r14
    7894:	20 91 36 01 	lds	r18, 0x0136
    7898:	30 91 37 01 	lds	r19, 0x0137
    789c:	40 91 38 01 	lds	r20, 0x0138
    78a0:	50 91 39 01 	lds	r21, 0x0139
    78a4:	60 91 3a 01 	lds	r22, 0x013A
    78a8:	70 91 3b 01 	lds	r23, 0x013B
    78ac:	80 91 3c 01 	lds	r24, 0x013C
    78b0:	90 91 3d 01 	lds	r25, 0x013D
    78b4:	0e 94 6b 13 	call	0x26d6	; 0x26d6 <CalcCurvedPath>
    78b8:	0f b6       	in	r0, 0x3f	; 63
    78ba:	f8 94       	cli
    78bc:	de bf       	out	0x3e, r29	; 62
    78be:	0f be       	out	0x3f, r0	; 63
    78c0:	cd bf       	out	0x3d, r28	; 61
    78c2:	0c 94 40 4a 	jmp	0x9480	; 0x9480 <MakeTrotGait+0x23a4>
    78c6:	20 90 5c 01 	lds	r2, 0x015C
    78ca:	30 90 5d 01 	lds	r3, 0x015D
    78ce:	4c 01       	movw	r8, r24
    78d0:	99 23       	and	r25, r25
    78d2:	1c f4       	brge	.+6      	; 0x78da <MakeTrotGait+0x7fe>
    78d4:	ef ef       	ldi	r30, 0xFF	; 255
    78d6:	8e 1a       	sub	r8, r30
    78d8:	9e 0a       	sbc	r9, r30
    78da:	95 94       	asr	r9
    78dc:	87 94       	ror	r8
    78de:	c2 01       	movw	r24, r4
    78e0:	99 23       	and	r25, r25
    78e2:	0c f4       	brge	.+2      	; 0x78e6 <MakeTrotGait+0x80a>
    78e4:	01 96       	adiw	r24, 0x01	; 1
    78e6:	2c 01       	movw	r4, r24
    78e8:	55 94       	asr	r5
    78ea:	47 94       	ror	r4
    78ec:	00 91 5e 01 	lds	r16, 0x015E
    78f0:	10 91 5f 01 	lds	r17, 0x015F
    78f4:	60 91 5a 01 	lds	r22, 0x015A
    78f8:	70 91 5b 01 	lds	r23, 0x015B
    78fc:	88 27       	eor	r24, r24
    78fe:	77 fd       	sbrc	r23, 7
    7900:	80 95       	com	r24
    7902:	98 2f       	mov	r25, r24
    7904:	0e 94 aa 50 	call	0xa154	; 0xa154 <__floatsisf>
    7908:	69 83       	std	Y+1, r22	; 0x01
    790a:	7a 83       	std	Y+2, r23	; 0x02
    790c:	e8 2e       	mov	r14, r24
    790e:	f9 2e       	mov	r15, r25
    7910:	66 27       	eor	r22, r22
    7912:	77 27       	eor	r23, r23
    7914:	60 1b       	sub	r22, r16
    7916:	71 0b       	sbc	r23, r17
    7918:	64 19       	sub	r22, r4
    791a:	75 09       	sbc	r23, r5
    791c:	88 27       	eor	r24, r24
    791e:	77 fd       	sbrc	r23, 7
    7920:	80 95       	com	r24
    7922:	98 2f       	mov	r25, r24
    7924:	0e 94 aa 50 	call	0xa154	; 0xa154 <__floatsisf>
    7928:	5b 01       	movw	r10, r22
    792a:	6c 01       	movw	r12, r24
    792c:	ff 92       	push	r15
    792e:	ef 92       	push	r14
    7930:	fa 81       	ldd	r31, Y+2	; 0x02
    7932:	ff 93       	push	r31
    7934:	29 81       	ldd	r18, Y+1	; 0x01
    7936:	2f 93       	push	r18
    7938:	c1 01       	movw	r24, r2
    793a:	88 19       	sub	r24, r8
    793c:	99 09       	sbc	r25, r9
    793e:	bc 01       	movw	r22, r24
    7940:	88 27       	eor	r24, r24
    7942:	77 fd       	sbrc	r23, 7
    7944:	80 95       	com	r24
    7946:	98 2f       	mov	r25, r24
    7948:	0e 94 aa 50 	call	0xa154	; 0xa154 <__floatsisf>
    794c:	9f 93       	push	r25
    794e:	8f 93       	push	r24
    7950:	7f 93       	push	r23
    7952:	6f 93       	push	r22
    7954:	c2 01       	movw	r24, r4
    7956:	80 1b       	sub	r24, r16
    7958:	91 0b       	sbc	r25, r17
    795a:	bc 01       	movw	r22, r24
    795c:	88 27       	eor	r24, r24
    795e:	77 fd       	sbrc	r23, 7
    7960:	80 95       	com	r24
    7962:	98 2f       	mov	r25, r24
    7964:	0e 94 aa 50 	call	0xa154	; 0xa154 <__floatsisf>
    7968:	9f 93       	push	r25
    796a:	8f 93       	push	r24
    796c:	7f 93       	push	r23
    796e:	6f 93       	push	r22
    7970:	ff 92       	push	r15
    7972:	ef 92       	push	r14
    7974:	3a 81       	ldd	r19, Y+2	; 0x02
    7976:	3f 93       	push	r19
    7978:	49 81       	ldd	r20, Y+1	; 0x01
    797a:	4f 93       	push	r20
    797c:	b1 01       	movw	r22, r2
    797e:	68 0d       	add	r22, r8
    7980:	79 1d       	adc	r23, r9
    7982:	88 27       	eor	r24, r24
    7984:	77 fd       	sbrc	r23, 7
    7986:	80 95       	com	r24
    7988:	98 2f       	mov	r25, r24
    798a:	0e 94 aa 50 	call	0xa154	; 0xa154 <__floatsisf>
    798e:	9f 93       	push	r25
    7990:	8f 93       	push	r24
    7992:	7f 93       	push	r23
    7994:	6f 93       	push	r22
    7996:	e1 2c       	mov	r14, r1
    7998:	f1 2c       	mov	r15, r1
    799a:	0b 81       	ldd	r16, Y+3	; 0x03
    799c:	1c 81       	ldd	r17, Y+4	; 0x04
    799e:	20 91 3e 01 	lds	r18, 0x013E
    79a2:	30 91 3f 01 	lds	r19, 0x013F
    79a6:	40 91 40 01 	lds	r20, 0x0140
    79aa:	50 91 41 01 	lds	r21, 0x0141
    79ae:	60 91 42 01 	lds	r22, 0x0142
    79b2:	70 91 43 01 	lds	r23, 0x0143
    79b6:	80 91 44 01 	lds	r24, 0x0144
    79ba:	90 91 45 01 	lds	r25, 0x0145
    79be:	0e 94 6b 13 	call	0x26d6	; 0x26d6 <CalcCurvedPath>
    79c2:	20 90 5c 01 	lds	r2, 0x015C
    79c6:	30 90 5d 01 	lds	r3, 0x015D
    79ca:	00 91 5e 01 	lds	r16, 0x015E
    79ce:	10 91 5f 01 	lds	r17, 0x015F
    79d2:	60 91 5a 01 	lds	r22, 0x015A
    79d6:	70 91 5b 01 	lds	r23, 0x015B
    79da:	88 27       	eor	r24, r24
    79dc:	77 fd       	sbrc	r23, 7
    79de:	80 95       	com	r24
    79e0:	98 2f       	mov	r25, r24
    79e2:	0e 94 aa 50 	call	0xa154	; 0xa154 <__floatsisf>
    79e6:	69 83       	std	Y+1, r22	; 0x01
    79e8:	7a 83       	std	Y+2, r23	; 0x02
    79ea:	e8 2e       	mov	r14, r24
    79ec:	f9 2e       	mov	r15, r25
    79ee:	b2 01       	movw	r22, r4
    79f0:	60 1b       	sub	r22, r16
    79f2:	71 0b       	sbc	r23, r17
    79f4:	88 27       	eor	r24, r24
    79f6:	77 fd       	sbrc	r23, 7
    79f8:	80 95       	com	r24
    79fa:	98 2f       	mov	r25, r24
    79fc:	0e 94 aa 50 	call	0xa154	; 0xa154 <__floatsisf>
    7a00:	5b 01       	movw	r10, r22
    7a02:	6c 01       	movw	r12, r24
    7a04:	ff 92       	push	r15
    7a06:	ef 92       	push	r14
    7a08:	5a 81       	ldd	r21, Y+2	; 0x02
    7a0a:	5f 93       	push	r21
    7a0c:	89 81       	ldd	r24, Y+1	; 0x01
    7a0e:	8f 93       	push	r24
    7a10:	c4 01       	movw	r24, r8
    7a12:	82 0d       	add	r24, r2
    7a14:	93 1d       	adc	r25, r3
    7a16:	bc 01       	movw	r22, r24
    7a18:	88 27       	eor	r24, r24
    7a1a:	77 fd       	sbrc	r23, 7
    7a1c:	80 95       	com	r24
    7a1e:	98 2f       	mov	r25, r24
    7a20:	0e 94 aa 50 	call	0xa154	; 0xa154 <__floatsisf>
    7a24:	9f 93       	push	r25
    7a26:	8f 93       	push	r24
    7a28:	7f 93       	push	r23
    7a2a:	6f 93       	push	r22
    7a2c:	11 95       	neg	r17
    7a2e:	01 95       	neg	r16
    7a30:	11 09       	sbc	r17, r1
    7a32:	04 19       	sub	r16, r4
    7a34:	15 09       	sbc	r17, r5
    7a36:	b8 01       	movw	r22, r16
    7a38:	88 27       	eor	r24, r24
    7a3a:	77 fd       	sbrc	r23, 7
    7a3c:	80 95       	com	r24
    7a3e:	98 2f       	mov	r25, r24
    7a40:	0e 94 aa 50 	call	0xa154	; 0xa154 <__floatsisf>
    7a44:	9f 93       	push	r25
    7a46:	8f 93       	push	r24
    7a48:	7f 93       	push	r23
    7a4a:	6f 93       	push	r22
    7a4c:	ff 92       	push	r15
    7a4e:	ef 92       	push	r14
    7a50:	9a 81       	ldd	r25, Y+2	; 0x02
    7a52:	9f 93       	push	r25
    7a54:	e9 81       	ldd	r30, Y+1	; 0x01
    7a56:	ef 93       	push	r30
    7a58:	b1 01       	movw	r22, r2
    7a5a:	68 19       	sub	r22, r8
    7a5c:	79 09       	sbc	r23, r9
    7a5e:	88 27       	eor	r24, r24
    7a60:	77 fd       	sbrc	r23, 7
    7a62:	80 95       	com	r24
    7a64:	98 2f       	mov	r25, r24
    7a66:	0e 94 aa 50 	call	0xa154	; 0xa154 <__floatsisf>
    7a6a:	9f 93       	push	r25
    7a6c:	8f 93       	push	r24
    7a6e:	7f 93       	push	r23
    7a70:	6f 93       	push	r22
    7a72:	eb 80       	ldd	r14, Y+3	; 0x03
    7a74:	fc 80       	ldd	r15, Y+4	; 0x04
    7a76:	87 01       	movw	r16, r14
    7a78:	20 91 3e 01 	lds	r18, 0x013E
    7a7c:	30 91 3f 01 	lds	r19, 0x013F
    7a80:	40 91 40 01 	lds	r20, 0x0140
    7a84:	50 91 41 01 	lds	r21, 0x0141
    7a88:	60 91 42 01 	lds	r22, 0x0142
    7a8c:	70 91 43 01 	lds	r23, 0x0143
    7a90:	80 91 44 01 	lds	r24, 0x0144
    7a94:	90 91 45 01 	lds	r25, 0x0145
    7a98:	0e 94 e6 0f 	call	0x1fcc	; 0x1fcc <CalcStraightPath>
    7a9c:	20 90 5c 01 	lds	r2, 0x015C
    7aa0:	30 90 5d 01 	lds	r3, 0x015D
    7aa4:	c3 01       	movw	r24, r6
    7aa6:	0f b6       	in	r0, 0x3f	; 63
    7aa8:	f8 94       	cli
    7aaa:	de bf       	out	0x3e, r29	; 62
    7aac:	0f be       	out	0x3f, r0	; 63
    7aae:	cd bf       	out	0x3d, r28	; 61
    7ab0:	99 23       	and	r25, r25
    7ab2:	0c f4       	brge	.+2      	; 0x7ab6 <MakeTrotGait+0x9da>
    7ab4:	01 96       	adiw	r24, 0x01	; 1
    7ab6:	3c 01       	movw	r6, r24
    7ab8:	75 94       	asr	r7
    7aba:	67 94       	ror	r6
    7abc:	00 91 5e 01 	lds	r16, 0x015E
    7ac0:	10 91 5f 01 	lds	r17, 0x015F
    7ac4:	60 91 5a 01 	lds	r22, 0x015A
    7ac8:	70 91 5b 01 	lds	r23, 0x015B
    7acc:	88 27       	eor	r24, r24
    7ace:	77 fd       	sbrc	r23, 7
    7ad0:	80 95       	com	r24
    7ad2:	98 2f       	mov	r25, r24
    7ad4:	0e 94 aa 50 	call	0xa154	; 0xa154 <__floatsisf>
    7ad8:	69 83       	std	Y+1, r22	; 0x01
    7ada:	7a 83       	std	Y+2, r23	; 0x02
    7adc:	e8 2e       	mov	r14, r24
    7ade:	f9 2e       	mov	r15, r25
    7ae0:	b8 01       	movw	r22, r16
    7ae2:	66 19       	sub	r22, r6
    7ae4:	77 09       	sbc	r23, r7
    7ae6:	88 27       	eor	r24, r24
    7ae8:	77 fd       	sbrc	r23, 7
    7aea:	80 95       	com	r24
    7aec:	98 2f       	mov	r25, r24
    7aee:	0e 94 aa 50 	call	0xa154	; 0xa154 <__floatsisf>
    7af2:	5b 01       	movw	r10, r22
    7af4:	6c 01       	movw	r12, r24
    7af6:	ff 92       	push	r15
    7af8:	ef 92       	push	r14
    7afa:	3a 81       	ldd	r19, Y+2	; 0x02
    7afc:	3f 93       	push	r19
    7afe:	49 81       	ldd	r20, Y+1	; 0x01
    7b00:	4f 93       	push	r20
    7b02:	88 27       	eor	r24, r24
    7b04:	99 27       	eor	r25, r25
    7b06:	82 19       	sub	r24, r2
    7b08:	93 09       	sbc	r25, r3
    7b0a:	88 19       	sub	r24, r8
    7b0c:	99 09       	sbc	r25, r9
    7b0e:	bc 01       	movw	r22, r24
    7b10:	88 27       	eor	r24, r24
    7b12:	77 fd       	sbrc	r23, 7
    7b14:	80 95       	com	r24
    7b16:	98 2f       	mov	r25, r24
    7b18:	0e 94 aa 50 	call	0xa154	; 0xa154 <__floatsisf>
    7b1c:	9f 93       	push	r25
    7b1e:	8f 93       	push	r24
    7b20:	7f 93       	push	r23
    7b22:	6f 93       	push	r22
    7b24:	06 0d       	add	r16, r6
    7b26:	17 1d       	adc	r17, r7
    7b28:	b8 01       	movw	r22, r16
    7b2a:	88 27       	eor	r24, r24
    7b2c:	77 fd       	sbrc	r23, 7
    7b2e:	80 95       	com	r24
    7b30:	98 2f       	mov	r25, r24
    7b32:	0e 94 aa 50 	call	0xa154	; 0xa154 <__floatsisf>
    7b36:	9f 93       	push	r25
    7b38:	8f 93       	push	r24
    7b3a:	7f 93       	push	r23
    7b3c:	6f 93       	push	r22
    7b3e:	ff 92       	push	r15
    7b40:	ef 92       	push	r14
    7b42:	5a 81       	ldd	r21, Y+2	; 0x02
    7b44:	5f 93       	push	r21
    7b46:	89 81       	ldd	r24, Y+1	; 0x01
    7b48:	8f 93       	push	r24
    7b4a:	b4 01       	movw	r22, r8
    7b4c:	62 19       	sub	r22, r2
    7b4e:	73 09       	sbc	r23, r3
    7b50:	88 27       	eor	r24, r24
    7b52:	77 fd       	sbrc	r23, 7
    7b54:	80 95       	com	r24
    7b56:	98 2f       	mov	r25, r24
    7b58:	0e 94 aa 50 	call	0xa154	; 0xa154 <__floatsisf>
    7b5c:	9f 93       	push	r25
    7b5e:	8f 93       	push	r24
    7b60:	7f 93       	push	r23
    7b62:	6f 93       	push	r22
    7b64:	e1 2c       	mov	r14, r1
    7b66:	f1 2c       	mov	r15, r1
    7b68:	0b 81       	ldd	r16, Y+3	; 0x03
    7b6a:	1c 81       	ldd	r17, Y+4	; 0x04
    7b6c:	20 91 26 01 	lds	r18, 0x0126
    7b70:	30 91 27 01 	lds	r19, 0x0127
    7b74:	40 91 28 01 	lds	r20, 0x0128
    7b78:	50 91 29 01 	lds	r21, 0x0129
    7b7c:	60 91 2a 01 	lds	r22, 0x012A
    7b80:	70 91 2b 01 	lds	r23, 0x012B
    7b84:	80 91 2c 01 	lds	r24, 0x012C
    7b88:	90 91 2d 01 	lds	r25, 0x012D
    7b8c:	0e 94 6b 13 	call	0x26d6	; 0x26d6 <CalcCurvedPath>
    7b90:	20 90 5c 01 	lds	r2, 0x015C
    7b94:	30 90 5d 01 	lds	r3, 0x015D
    7b98:	00 91 5e 01 	lds	r16, 0x015E
    7b9c:	10 91 5f 01 	lds	r17, 0x015F
    7ba0:	60 91 5a 01 	lds	r22, 0x015A
    7ba4:	70 91 5b 01 	lds	r23, 0x015B
    7ba8:	88 27       	eor	r24, r24
    7baa:	77 fd       	sbrc	r23, 7
    7bac:	80 95       	com	r24
    7bae:	98 2f       	mov	r25, r24
    7bb0:	0e 94 aa 50 	call	0xa154	; 0xa154 <__floatsisf>
    7bb4:	69 83       	std	Y+1, r22	; 0x01
    7bb6:	7a 83       	std	Y+2, r23	; 0x02
    7bb8:	e8 2e       	mov	r14, r24
    7bba:	f9 2e       	mov	r15, r25
    7bbc:	b3 01       	movw	r22, r6
    7bbe:	60 0f       	add	r22, r16
    7bc0:	71 1f       	adc	r23, r17
    7bc2:	88 27       	eor	r24, r24
    7bc4:	77 fd       	sbrc	r23, 7
    7bc6:	80 95       	com	r24
    7bc8:	98 2f       	mov	r25, r24
    7bca:	0e 94 aa 50 	call	0xa154	; 0xa154 <__floatsisf>
    7bce:	5b 01       	movw	r10, r22
    7bd0:	6c 01       	movw	r12, r24
    7bd2:	ff 92       	push	r15
    7bd4:	ef 92       	push	r14
    7bd6:	9a 81       	ldd	r25, Y+2	; 0x02
    7bd8:	9f 93       	push	r25
    7bda:	e9 81       	ldd	r30, Y+1	; 0x01
    7bdc:	ef 93       	push	r30
    7bde:	c4 01       	movw	r24, r8
    7be0:	82 19       	sub	r24, r2
    7be2:	93 09       	sbc	r25, r3
    7be4:	bc 01       	movw	r22, r24
    7be6:	88 27       	eor	r24, r24
    7be8:	77 fd       	sbrc	r23, 7
    7bea:	80 95       	com	r24
    7bec:	98 2f       	mov	r25, r24
    7bee:	0e 94 aa 50 	call	0xa154	; 0xa154 <__floatsisf>
    7bf2:	9f 93       	push	r25
    7bf4:	8f 93       	push	r24
    7bf6:	7f 93       	push	r23
    7bf8:	6f 93       	push	r22
    7bfa:	06 19       	sub	r16, r6
    7bfc:	17 09       	sbc	r17, r7
    7bfe:	b8 01       	movw	r22, r16
    7c00:	88 27       	eor	r24, r24
    7c02:	77 fd       	sbrc	r23, 7
    7c04:	80 95       	com	r24
    7c06:	98 2f       	mov	r25, r24
    7c08:	0e 94 aa 50 	call	0xa154	; 0xa154 <__floatsisf>
    7c0c:	9f 93       	push	r25
    7c0e:	8f 93       	push	r24
    7c10:	7f 93       	push	r23
    7c12:	6f 93       	push	r22
    7c14:	ff 92       	push	r15
    7c16:	ef 92       	push	r14
    7c18:	fa 81       	ldd	r31, Y+2	; 0x02
    7c1a:	ff 93       	push	r31
    7c1c:	29 81       	ldd	r18, Y+1	; 0x01
    7c1e:	2f 93       	push	r18
    7c20:	66 27       	eor	r22, r22
    7c22:	77 27       	eor	r23, r23
    7c24:	62 19       	sub	r22, r2
    7c26:	73 09       	sbc	r23, r3
    7c28:	68 19       	sub	r22, r8
    7c2a:	79 09       	sbc	r23, r9
    7c2c:	88 27       	eor	r24, r24
    7c2e:	77 fd       	sbrc	r23, 7
    7c30:	80 95       	com	r24
    7c32:	98 2f       	mov	r25, r24
    7c34:	0e 94 aa 50 	call	0xa154	; 0xa154 <__floatsisf>
    7c38:	9f 93       	push	r25
    7c3a:	8f 93       	push	r24
    7c3c:	7f 93       	push	r23
    7c3e:	6f 93       	push	r22
    7c40:	eb 80       	ldd	r14, Y+3	; 0x03
    7c42:	fc 80       	ldd	r15, Y+4	; 0x04
    7c44:	87 01       	movw	r16, r14
    7c46:	20 91 26 01 	lds	r18, 0x0126
    7c4a:	30 91 27 01 	lds	r19, 0x0127
    7c4e:	40 91 28 01 	lds	r20, 0x0128
    7c52:	50 91 29 01 	lds	r21, 0x0129
    7c56:	60 91 2a 01 	lds	r22, 0x012A
    7c5a:	70 91 2b 01 	lds	r23, 0x012B
    7c5e:	80 91 2c 01 	lds	r24, 0x012C
    7c62:	90 91 2d 01 	lds	r25, 0x012D
    7c66:	0e 94 e6 0f 	call	0x1fcc	; 0x1fcc <CalcStraightPath>
    7c6a:	20 90 5c 01 	lds	r2, 0x015C
    7c6e:	30 90 5d 01 	lds	r3, 0x015D
    7c72:	00 91 5e 01 	lds	r16, 0x015E
    7c76:	10 91 5f 01 	lds	r17, 0x015F
    7c7a:	60 91 5a 01 	lds	r22, 0x015A
    7c7e:	70 91 5b 01 	lds	r23, 0x015B
    7c82:	88 27       	eor	r24, r24
    7c84:	77 fd       	sbrc	r23, 7
    7c86:	80 95       	com	r24
    7c88:	98 2f       	mov	r25, r24
    7c8a:	0e 94 aa 50 	call	0xa154	; 0xa154 <__floatsisf>
    7c8e:	69 83       	std	Y+1, r22	; 0x01
    7c90:	7a 83       	std	Y+2, r23	; 0x02
    7c92:	e8 2e       	mov	r14, r24
    7c94:	f9 2e       	mov	r15, r25
    7c96:	0f b6       	in	r0, 0x3f	; 63
    7c98:	f8 94       	cli
    7c9a:	de bf       	out	0x3e, r29	; 62
    7c9c:	0f be       	out	0x3f, r0	; 63
    7c9e:	cd bf       	out	0x3d, r28	; 61
    7ca0:	b3 01       	movw	r22, r6
    7ca2:	60 1b       	sub	r22, r16
    7ca4:	71 0b       	sbc	r23, r17
    7ca6:	88 27       	eor	r24, r24
    7ca8:	77 fd       	sbrc	r23, 7
    7caa:	80 95       	com	r24
    7cac:	98 2f       	mov	r25, r24
    7cae:	0e 94 aa 50 	call	0xa154	; 0xa154 <__floatsisf>
    7cb2:	5b 01       	movw	r10, r22
    7cb4:	6c 01       	movw	r12, r24
    7cb6:	ff 92       	push	r15
    7cb8:	ef 92       	push	r14
    7cba:	5a 81       	ldd	r21, Y+2	; 0x02
    7cbc:	5f 93       	push	r21
    7cbe:	89 81       	ldd	r24, Y+1	; 0x01
    7cc0:	8f 93       	push	r24
    7cc2:	c4 01       	movw	r24, r8
    7cc4:	82 19       	sub	r24, r2
    7cc6:	93 09       	sbc	r25, r3
    7cc8:	bc 01       	movw	r22, r24
    7cca:	88 27       	eor	r24, r24
    7ccc:	77 fd       	sbrc	r23, 7
    7cce:	80 95       	com	r24
    7cd0:	98 2f       	mov	r25, r24
    7cd2:	0e 94 aa 50 	call	0xa154	; 0xa154 <__floatsisf>
    7cd6:	9f 93       	push	r25
    7cd8:	8f 93       	push	r24
    7cda:	7f 93       	push	r23
    7cdc:	6f 93       	push	r22
    7cde:	11 95       	neg	r17
    7ce0:	01 95       	neg	r16
    7ce2:	11 09       	sbc	r17, r1
    7ce4:	06 19       	sub	r16, r6
    7ce6:	17 09       	sbc	r17, r7
    7ce8:	b8 01       	movw	r22, r16
    7cea:	88 27       	eor	r24, r24
    7cec:	77 fd       	sbrc	r23, 7
    7cee:	80 95       	com	r24
    7cf0:	98 2f       	mov	r25, r24
    7cf2:	0e 94 aa 50 	call	0xa154	; 0xa154 <__floatsisf>
    7cf6:	9f 93       	push	r25
    7cf8:	8f 93       	push	r24
    7cfa:	7f 93       	push	r23
    7cfc:	6f 93       	push	r22
    7cfe:	ff 92       	push	r15
    7d00:	ef 92       	push	r14
    7d02:	9a 81       	ldd	r25, Y+2	; 0x02
    7d04:	9f 93       	push	r25
    7d06:	e9 81       	ldd	r30, Y+1	; 0x01
    7d08:	ef 93       	push	r30
    7d0a:	66 27       	eor	r22, r22
    7d0c:	77 27       	eor	r23, r23
    7d0e:	62 19       	sub	r22, r2
    7d10:	73 09       	sbc	r23, r3
    7d12:	68 19       	sub	r22, r8
    7d14:	79 09       	sbc	r23, r9
    7d16:	88 27       	eor	r24, r24
    7d18:	77 fd       	sbrc	r23, 7
    7d1a:	80 95       	com	r24
    7d1c:	98 2f       	mov	r25, r24
    7d1e:	0e 94 aa 50 	call	0xa154	; 0xa154 <__floatsisf>
    7d22:	9f 93       	push	r25
    7d24:	8f 93       	push	r24
    7d26:	7f 93       	push	r23
    7d28:	6f 93       	push	r22
    7d2a:	e1 2c       	mov	r14, r1
    7d2c:	f1 2c       	mov	r15, r1
    7d2e:	0b 81       	ldd	r16, Y+3	; 0x03
    7d30:	1c 81       	ldd	r17, Y+4	; 0x04
    7d32:	20 91 2e 01 	lds	r18, 0x012E
    7d36:	30 91 2f 01 	lds	r19, 0x012F
    7d3a:	40 91 30 01 	lds	r20, 0x0130
    7d3e:	50 91 31 01 	lds	r21, 0x0131
    7d42:	60 91 32 01 	lds	r22, 0x0132
    7d46:	70 91 33 01 	lds	r23, 0x0133
    7d4a:	80 91 34 01 	lds	r24, 0x0134
    7d4e:	90 91 35 01 	lds	r25, 0x0135
    7d52:	0e 94 e6 0f 	call	0x1fcc	; 0x1fcc <CalcStraightPath>
    7d56:	20 90 5c 01 	lds	r2, 0x015C
    7d5a:	30 90 5d 01 	lds	r3, 0x015D
    7d5e:	00 91 5e 01 	lds	r16, 0x015E
    7d62:	10 91 5f 01 	lds	r17, 0x015F
    7d66:	60 91 5a 01 	lds	r22, 0x015A
    7d6a:	70 91 5b 01 	lds	r23, 0x015B
    7d6e:	88 27       	eor	r24, r24
    7d70:	77 fd       	sbrc	r23, 7
    7d72:	80 95       	com	r24
    7d74:	98 2f       	mov	r25, r24
    7d76:	0e 94 aa 50 	call	0xa154	; 0xa154 <__floatsisf>
    7d7a:	69 83       	std	Y+1, r22	; 0x01
    7d7c:	7a 83       	std	Y+2, r23	; 0x02
    7d7e:	e8 2e       	mov	r14, r24
    7d80:	f9 2e       	mov	r15, r25
    7d82:	66 27       	eor	r22, r22
    7d84:	77 27       	eor	r23, r23
    7d86:	60 1b       	sub	r22, r16
    7d88:	71 0b       	sbc	r23, r17
    7d8a:	66 19       	sub	r22, r6
    7d8c:	77 09       	sbc	r23, r7
    7d8e:	88 27       	eor	r24, r24
    7d90:	77 fd       	sbrc	r23, 7
    7d92:	80 95       	com	r24
    7d94:	98 2f       	mov	r25, r24
    7d96:	0e 94 aa 50 	call	0xa154	; 0xa154 <__floatsisf>
    7d9a:	5b 01       	movw	r10, r22
    7d9c:	6c 01       	movw	r12, r24
    7d9e:	ff 92       	push	r15
    7da0:	ef 92       	push	r14
    7da2:	fa 81       	ldd	r31, Y+2	; 0x02
    7da4:	ff 93       	push	r31
    7da6:	29 81       	ldd	r18, Y+1	; 0x01
    7da8:	2f 93       	push	r18
    7daa:	88 27       	eor	r24, r24
    7dac:	99 27       	eor	r25, r25
    7dae:	82 19       	sub	r24, r2
    7db0:	93 09       	sbc	r25, r3
    7db2:	88 19       	sub	r24, r8
    7db4:	99 09       	sbc	r25, r9
    7db6:	bc 01       	movw	r22, r24
    7db8:	88 27       	eor	r24, r24
    7dba:	77 fd       	sbrc	r23, 7
    7dbc:	80 95       	com	r24
    7dbe:	98 2f       	mov	r25, r24
    7dc0:	0e 94 aa 50 	call	0xa154	; 0xa154 <__floatsisf>
    7dc4:	9f 93       	push	r25
    7dc6:	8f 93       	push	r24
    7dc8:	7f 93       	push	r23
    7dca:	6f 93       	push	r22
    7dcc:	b3 01       	movw	r22, r6
    7dce:	60 1b       	sub	r22, r16
    7dd0:	71 0b       	sbc	r23, r17
    7dd2:	88 27       	eor	r24, r24
    7dd4:	77 fd       	sbrc	r23, 7
    7dd6:	80 95       	com	r24
    7dd8:	98 2f       	mov	r25, r24
    7dda:	0e 94 aa 50 	call	0xa154	; 0xa154 <__floatsisf>
    7dde:	9f 93       	push	r25
    7de0:	8f 93       	push	r24
    7de2:	7f 93       	push	r23
    7de4:	6f 93       	push	r22
    7de6:	ff 92       	push	r15
    7de8:	ef 92       	push	r14
    7dea:	3a 81       	ldd	r19, Y+2	; 0x02
    7dec:	3f 93       	push	r19
    7dee:	49 81       	ldd	r20, Y+1	; 0x01
    7df0:	4f 93       	push	r20
    7df2:	b4 01       	movw	r22, r8
    7df4:	62 19       	sub	r22, r2
    7df6:	73 09       	sbc	r23, r3
    7df8:	88 27       	eor	r24, r24
    7dfa:	77 fd       	sbrc	r23, 7
    7dfc:	80 95       	com	r24
    7dfe:	98 2f       	mov	r25, r24
    7e00:	0e 94 aa 50 	call	0xa154	; 0xa154 <__floatsisf>
    7e04:	9f 93       	push	r25
    7e06:	8f 93       	push	r24
    7e08:	7f 93       	push	r23
    7e0a:	6f 93       	push	r22
    7e0c:	eb 80       	ldd	r14, Y+3	; 0x03
    7e0e:	fc 80       	ldd	r15, Y+4	; 0x04
    7e10:	87 01       	movw	r16, r14
    7e12:	20 91 2e 01 	lds	r18, 0x012E
    7e16:	30 91 2f 01 	lds	r19, 0x012F
    7e1a:	40 91 30 01 	lds	r20, 0x0130
    7e1e:	50 91 31 01 	lds	r21, 0x0131
    7e22:	60 91 32 01 	lds	r22, 0x0132
    7e26:	70 91 33 01 	lds	r23, 0x0133
    7e2a:	80 91 34 01 	lds	r24, 0x0134
    7e2e:	90 91 35 01 	lds	r25, 0x0135
    7e32:	0e 94 6b 13 	call	0x26d6	; 0x26d6 <CalcCurvedPath>
    7e36:	60 90 5c 01 	lds	r6, 0x015C
    7e3a:	70 90 5d 01 	lds	r7, 0x015D
    7e3e:	00 91 5e 01 	lds	r16, 0x015E
    7e42:	10 91 5f 01 	lds	r17, 0x015F
    7e46:	60 91 5a 01 	lds	r22, 0x015A
    7e4a:	70 91 5b 01 	lds	r23, 0x015B
    7e4e:	88 27       	eor	r24, r24
    7e50:	77 fd       	sbrc	r23, 7
    7e52:	80 95       	com	r24
    7e54:	98 2f       	mov	r25, r24
    7e56:	0e 94 aa 50 	call	0xa154	; 0xa154 <__floatsisf>
    7e5a:	26 2e       	mov	r2, r22
    7e5c:	37 2e       	mov	r3, r23
    7e5e:	f8 2e       	mov	r15, r24
    7e60:	e9 2e       	mov	r14, r25
    7e62:	0f b6       	in	r0, 0x3f	; 63
    7e64:	f8 94       	cli
    7e66:	de bf       	out	0x3e, r29	; 62
    7e68:	0f be       	out	0x3f, r0	; 63
    7e6a:	cd bf       	out	0x3d, r28	; 61
    7e6c:	b2 01       	movw	r22, r4
    7e6e:	60 0f       	add	r22, r16
    7e70:	71 1f       	adc	r23, r17
    7e72:	88 27       	eor	r24, r24
    7e74:	77 fd       	sbrc	r23, 7
    7e76:	80 95       	com	r24
    7e78:	98 2f       	mov	r25, r24
    7e7a:	0e 94 aa 50 	call	0xa154	; 0xa154 <__floatsisf>
    7e7e:	5b 01       	movw	r10, r22
    7e80:	6c 01       	movw	r12, r24
    7e82:	ef 92       	push	r14
    7e84:	ff 92       	push	r15
    7e86:	3f 92       	push	r3
    7e88:	2f 92       	push	r2
    7e8a:	94 01       	movw	r18, r8
    7e8c:	26 0d       	add	r18, r6
    7e8e:	37 1d       	adc	r19, r7
    7e90:	b9 01       	movw	r22, r18
    7e92:	88 27       	eor	r24, r24
    7e94:	77 fd       	sbrc	r23, 7
    7e96:	80 95       	com	r24
    7e98:	98 2f       	mov	r25, r24
    7e9a:	0e 94 aa 50 	call	0xa154	; 0xa154 <__floatsisf>
    7e9e:	9f 93       	push	r25
    7ea0:	8f 93       	push	r24
    7ea2:	7f 93       	push	r23
    7ea4:	6f 93       	push	r22
    7ea6:	b8 01       	movw	r22, r16
    7ea8:	64 19       	sub	r22, r4
    7eaa:	75 09       	sbc	r23, r5
    7eac:	88 27       	eor	r24, r24
    7eae:	77 fd       	sbrc	r23, 7
    7eb0:	80 95       	com	r24
    7eb2:	98 2f       	mov	r25, r24
    7eb4:	0e 94 aa 50 	call	0xa154	; 0xa154 <__floatsisf>
    7eb8:	9f 93       	push	r25
    7eba:	8f 93       	push	r24
    7ebc:	7f 93       	push	r23
    7ebe:	6f 93       	push	r22
    7ec0:	ef 92       	push	r14
    7ec2:	ff 92       	push	r15
    7ec4:	3f 92       	push	r3
    7ec6:	2f 92       	push	r2
    7ec8:	b3 01       	movw	r22, r6
    7eca:	68 19       	sub	r22, r8
    7ecc:	79 09       	sbc	r23, r9
    7ece:	88 27       	eor	r24, r24
    7ed0:	77 fd       	sbrc	r23, 7
    7ed2:	80 95       	com	r24
    7ed4:	98 2f       	mov	r25, r24
    7ed6:	0e 94 aa 50 	call	0xa154	; 0xa154 <__floatsisf>
    7eda:	9f 93       	push	r25
    7edc:	8f 93       	push	r24
    7ede:	7f 93       	push	r23
    7ee0:	6f 93       	push	r22
    7ee2:	e1 2c       	mov	r14, r1
    7ee4:	f1 2c       	mov	r15, r1
    7ee6:	0b 81       	ldd	r16, Y+3	; 0x03
    7ee8:	1c 81       	ldd	r17, Y+4	; 0x04
    7eea:	20 91 36 01 	lds	r18, 0x0136
    7eee:	30 91 37 01 	lds	r19, 0x0137
    7ef2:	40 91 38 01 	lds	r20, 0x0138
    7ef6:	50 91 39 01 	lds	r21, 0x0139
    7efa:	60 91 3a 01 	lds	r22, 0x013A
    7efe:	70 91 3b 01 	lds	r23, 0x013B
    7f02:	80 91 3c 01 	lds	r24, 0x013C
    7f06:	90 91 3d 01 	lds	r25, 0x013D
    7f0a:	0e 94 e6 0f 	call	0x1fcc	; 0x1fcc <CalcStraightPath>
    7f0e:	60 90 5c 01 	lds	r6, 0x015C
    7f12:	70 90 5d 01 	lds	r7, 0x015D
    7f16:	00 91 5e 01 	lds	r16, 0x015E
    7f1a:	10 91 5f 01 	lds	r17, 0x015F
    7f1e:	60 91 5a 01 	lds	r22, 0x015A
    7f22:	70 91 5b 01 	lds	r23, 0x015B
    7f26:	88 27       	eor	r24, r24
    7f28:	77 fd       	sbrc	r23, 7
    7f2a:	80 95       	com	r24
    7f2c:	98 2f       	mov	r25, r24
    7f2e:	0e 94 aa 50 	call	0xa154	; 0xa154 <__floatsisf>
    7f32:	26 2e       	mov	r2, r22
    7f34:	37 2e       	mov	r3, r23
    7f36:	f8 2e       	mov	r15, r24
    7f38:	e9 2e       	mov	r14, r25
    7f3a:	b8 01       	movw	r22, r16
    7f3c:	64 19       	sub	r22, r4
    7f3e:	75 09       	sbc	r23, r5
    7f40:	88 27       	eor	r24, r24
    7f42:	77 fd       	sbrc	r23, 7
    7f44:	80 95       	com	r24
    7f46:	98 2f       	mov	r25, r24
    7f48:	0e 94 aa 50 	call	0xa154	; 0xa154 <__floatsisf>
    7f4c:	5b 01       	movw	r10, r22
    7f4e:	6c 01       	movw	r12, r24
    7f50:	ef 92       	push	r14
    7f52:	ff 92       	push	r15
    7f54:	3f 92       	push	r3
    7f56:	2f 92       	push	r2
    7f58:	93 01       	movw	r18, r6
    7f5a:	28 19       	sub	r18, r8
    7f5c:	39 09       	sbc	r19, r9
    7f5e:	b9 01       	movw	r22, r18
    7f60:	88 27       	eor	r24, r24
    7f62:	77 fd       	sbrc	r23, 7
    7f64:	80 95       	com	r24
    7f66:	98 2f       	mov	r25, r24
    7f68:	0e 94 aa 50 	call	0xa154	; 0xa154 <__floatsisf>
    7f6c:	9f 93       	push	r25
    7f6e:	8f 93       	push	r24
    7f70:	7f 93       	push	r23
    7f72:	6f 93       	push	r22
    7f74:	b2 01       	movw	r22, r4
    7f76:	60 0f       	add	r22, r16
    7f78:	71 1f       	adc	r23, r17
    7f7a:	88 27       	eor	r24, r24
    7f7c:	77 fd       	sbrc	r23, 7
    7f7e:	80 95       	com	r24
    7f80:	98 2f       	mov	r25, r24
    7f82:	0e 94 aa 50 	call	0xa154	; 0xa154 <__floatsisf>
    7f86:	9f 93       	push	r25
    7f88:	8f 93       	push	r24
    7f8a:	7f 93       	push	r23
    7f8c:	6f 93       	push	r22
    7f8e:	ef 92       	push	r14
    7f90:	ff 92       	push	r15
    7f92:	3f 92       	push	r3
    7f94:	2f 92       	push	r2
    7f96:	b4 01       	movw	r22, r8
    7f98:	66 0d       	add	r22, r6
    7f9a:	77 1d       	adc	r23, r7
    7f9c:	88 27       	eor	r24, r24
    7f9e:	77 fd       	sbrc	r23, 7
    7fa0:	80 95       	com	r24
    7fa2:	98 2f       	mov	r25, r24
    7fa4:	0e 94 aa 50 	call	0xa154	; 0xa154 <__floatsisf>
    7fa8:	9f 93       	push	r25
    7faa:	8f 93       	push	r24
    7fac:	7f 93       	push	r23
    7fae:	6f 93       	push	r22
    7fb0:	eb 80       	ldd	r14, Y+3	; 0x03
    7fb2:	fc 80       	ldd	r15, Y+4	; 0x04
    7fb4:	87 01       	movw	r16, r14
    7fb6:	20 91 36 01 	lds	r18, 0x0136
    7fba:	30 91 37 01 	lds	r19, 0x0137
    7fbe:	40 91 38 01 	lds	r20, 0x0138
    7fc2:	50 91 39 01 	lds	r21, 0x0139
    7fc6:	60 91 3a 01 	lds	r22, 0x013A
    7fca:	70 91 3b 01 	lds	r23, 0x013B
    7fce:	80 91 3c 01 	lds	r24, 0x013C
    7fd2:	90 91 3d 01 	lds	r25, 0x013D
    7fd6:	0e 94 6b 13 	call	0x26d6	; 0x26d6 <CalcCurvedPath>
    7fda:	0f b6       	in	r0, 0x3f	; 63
    7fdc:	f8 94       	cli
    7fde:	de bf       	out	0x3e, r29	; 62
    7fe0:	0f be       	out	0x3f, r0	; 63
    7fe2:	cd bf       	out	0x3d, r28	; 61
    7fe4:	0c 94 40 4a 	jmp	0x9480	; 0x9480 <MakeTrotGait+0x23a4>
    7fe8:	20 90 5c 01 	lds	r2, 0x015C
    7fec:	30 90 5d 01 	lds	r3, 0x015D
    7ff0:	93 01       	movw	r18, r6
    7ff2:	77 20       	and	r7, r7
    7ff4:	14 f4       	brge	.+4      	; 0x7ffa <MakeTrotGait+0xf1e>
    7ff6:	2f 5f       	subi	r18, 0xFF	; 255
    7ff8:	3f 4f       	sbci	r19, 0xFF	; 255
    7ffa:	39 01       	movw	r6, r18
    7ffc:	75 94       	asr	r7
    7ffe:	67 94       	ror	r6
    8000:	00 91 5e 01 	lds	r16, 0x015E
    8004:	10 91 5f 01 	lds	r17, 0x015F
    8008:	4c 01       	movw	r8, r24
    800a:	99 23       	and	r25, r25
    800c:	1c f4       	brge	.+6      	; 0x8014 <MakeTrotGait+0xf38>
    800e:	ff ef       	ldi	r31, 0xFF	; 255
    8010:	8f 1a       	sub	r8, r31
    8012:	9f 0a       	sbc	r9, r31
    8014:	95 94       	asr	r9
    8016:	87 94       	ror	r8
    8018:	60 91 5a 01 	lds	r22, 0x015A
    801c:	70 91 5b 01 	lds	r23, 0x015B
    8020:	88 27       	eor	r24, r24
    8022:	77 fd       	sbrc	r23, 7
    8024:	80 95       	com	r24
    8026:	98 2f       	mov	r25, r24
    8028:	0e 94 aa 50 	call	0xa154	; 0xa154 <__floatsisf>
    802c:	69 83       	std	Y+1, r22	; 0x01
    802e:	7a 83       	std	Y+2, r23	; 0x02
    8030:	e8 2e       	mov	r14, r24
    8032:	f9 2e       	mov	r15, r25
    8034:	b4 01       	movw	r22, r8
    8036:	60 1b       	sub	r22, r16
    8038:	71 0b       	sbc	r23, r17
    803a:	88 27       	eor	r24, r24
    803c:	77 fd       	sbrc	r23, 7
    803e:	80 95       	com	r24
    8040:	98 2f       	mov	r25, r24
    8042:	0e 94 aa 50 	call	0xa154	; 0xa154 <__floatsisf>
    8046:	5b 01       	movw	r10, r22
    8048:	6c 01       	movw	r12, r24
    804a:	ff 92       	push	r15
    804c:	ef 92       	push	r14
    804e:	2a 81       	ldd	r18, Y+2	; 0x02
    8050:	2f 93       	push	r18
    8052:	39 81       	ldd	r19, Y+1	; 0x01
    8054:	3f 93       	push	r19
    8056:	c1 01       	movw	r24, r2
    8058:	86 19       	sub	r24, r6
    805a:	97 09       	sbc	r25, r7
    805c:	bc 01       	movw	r22, r24
    805e:	88 27       	eor	r24, r24
    8060:	77 fd       	sbrc	r23, 7
    8062:	80 95       	com	r24
    8064:	98 2f       	mov	r25, r24
    8066:	0e 94 aa 50 	call	0xa154	; 0xa154 <__floatsisf>
    806a:	9f 93       	push	r25
    806c:	8f 93       	push	r24
    806e:	7f 93       	push	r23
    8070:	6f 93       	push	r22
    8072:	11 95       	neg	r17
    8074:	01 95       	neg	r16
    8076:	11 09       	sbc	r17, r1
    8078:	08 19       	sub	r16, r8
    807a:	19 09       	sbc	r17, r9
    807c:	b8 01       	movw	r22, r16
    807e:	88 27       	eor	r24, r24
    8080:	77 fd       	sbrc	r23, 7
    8082:	80 95       	com	r24
    8084:	98 2f       	mov	r25, r24
    8086:	0e 94 aa 50 	call	0xa154	; 0xa154 <__floatsisf>
    808a:	9f 93       	push	r25
    808c:	8f 93       	push	r24
    808e:	7f 93       	push	r23
    8090:	6f 93       	push	r22
    8092:	ff 92       	push	r15
    8094:	ef 92       	push	r14
    8096:	4a 81       	ldd	r20, Y+2	; 0x02
    8098:	4f 93       	push	r20
    809a:	59 81       	ldd	r21, Y+1	; 0x01
    809c:	5f 93       	push	r21
    809e:	b1 01       	movw	r22, r2
    80a0:	66 0d       	add	r22, r6
    80a2:	77 1d       	adc	r23, r7
    80a4:	88 27       	eor	r24, r24
    80a6:	77 fd       	sbrc	r23, 7
    80a8:	80 95       	com	r24
    80aa:	98 2f       	mov	r25, r24
    80ac:	0e 94 aa 50 	call	0xa154	; 0xa154 <__floatsisf>
    80b0:	9f 93       	push	r25
    80b2:	8f 93       	push	r24
    80b4:	7f 93       	push	r23
    80b6:	6f 93       	push	r22
    80b8:	e1 2c       	mov	r14, r1
    80ba:	f1 2c       	mov	r15, r1
    80bc:	0b 81       	ldd	r16, Y+3	; 0x03
    80be:	1c 81       	ldd	r17, Y+4	; 0x04
    80c0:	20 91 3e 01 	lds	r18, 0x013E
    80c4:	30 91 3f 01 	lds	r19, 0x013F
    80c8:	40 91 40 01 	lds	r20, 0x0140
    80cc:	50 91 41 01 	lds	r21, 0x0141
    80d0:	60 91 42 01 	lds	r22, 0x0142
    80d4:	70 91 43 01 	lds	r23, 0x0143
    80d8:	80 91 44 01 	lds	r24, 0x0144
    80dc:	90 91 45 01 	lds	r25, 0x0145
    80e0:	0e 94 6b 13 	call	0x26d6	; 0x26d6 <CalcCurvedPath>
    80e4:	20 90 5c 01 	lds	r2, 0x015C
    80e8:	30 90 5d 01 	lds	r3, 0x015D
    80ec:	00 91 5e 01 	lds	r16, 0x015E
    80f0:	10 91 5f 01 	lds	r17, 0x015F
    80f4:	60 91 5a 01 	lds	r22, 0x015A
    80f8:	70 91 5b 01 	lds	r23, 0x015B
    80fc:	88 27       	eor	r24, r24
    80fe:	77 fd       	sbrc	r23, 7
    8100:	80 95       	com	r24
    8102:	98 2f       	mov	r25, r24
    8104:	0e 94 aa 50 	call	0xa154	; 0xa154 <__floatsisf>
    8108:	69 83       	std	Y+1, r22	; 0x01
    810a:	7a 83       	std	Y+2, r23	; 0x02
    810c:	e8 2e       	mov	r14, r24
    810e:	f9 2e       	mov	r15, r25
    8110:	66 27       	eor	r22, r22
    8112:	77 27       	eor	r23, r23
    8114:	60 1b       	sub	r22, r16
    8116:	71 0b       	sbc	r23, r17
    8118:	68 19       	sub	r22, r8
    811a:	79 09       	sbc	r23, r9
    811c:	88 27       	eor	r24, r24
    811e:	77 fd       	sbrc	r23, 7
    8120:	80 95       	com	r24
    8122:	98 2f       	mov	r25, r24
    8124:	0e 94 aa 50 	call	0xa154	; 0xa154 <__floatsisf>
    8128:	5b 01       	movw	r10, r22
    812a:	6c 01       	movw	r12, r24
    812c:	ff 92       	push	r15
    812e:	ef 92       	push	r14
    8130:	8a 81       	ldd	r24, Y+2	; 0x02
    8132:	8f 93       	push	r24
    8134:	99 81       	ldd	r25, Y+1	; 0x01
    8136:	9f 93       	push	r25
    8138:	c3 01       	movw	r24, r6
    813a:	82 0d       	add	r24, r2
    813c:	93 1d       	adc	r25, r3
    813e:	bc 01       	movw	r22, r24
    8140:	88 27       	eor	r24, r24
    8142:	77 fd       	sbrc	r23, 7
    8144:	80 95       	com	r24
    8146:	98 2f       	mov	r25, r24
    8148:	0e 94 aa 50 	call	0xa154	; 0xa154 <__floatsisf>
    814c:	9f 93       	push	r25
    814e:	8f 93       	push	r24
    8150:	7f 93       	push	r23
    8152:	6f 93       	push	r22
    8154:	c4 01       	movw	r24, r8
    8156:	80 1b       	sub	r24, r16
    8158:	91 0b       	sbc	r25, r17
    815a:	bc 01       	movw	r22, r24
    815c:	88 27       	eor	r24, r24
    815e:	77 fd       	sbrc	r23, 7
    8160:	80 95       	com	r24
    8162:	98 2f       	mov	r25, r24
    8164:	0e 94 aa 50 	call	0xa154	; 0xa154 <__floatsisf>
    8168:	9f 93       	push	r25
    816a:	8f 93       	push	r24
    816c:	7f 93       	push	r23
    816e:	6f 93       	push	r22
    8170:	ff 92       	push	r15
    8172:	ef 92       	push	r14
    8174:	ea 81       	ldd	r30, Y+2	; 0x02
    8176:	ef 93       	push	r30
    8178:	f9 81       	ldd	r31, Y+1	; 0x01
    817a:	ff 93       	push	r31
    817c:	b1 01       	movw	r22, r2
    817e:	66 19       	sub	r22, r6
    8180:	77 09       	sbc	r23, r7
    8182:	88 27       	eor	r24, r24
    8184:	77 fd       	sbrc	r23, 7
    8186:	80 95       	com	r24
    8188:	98 2f       	mov	r25, r24
    818a:	0e 94 aa 50 	call	0xa154	; 0xa154 <__floatsisf>
    818e:	9f 93       	push	r25
    8190:	8f 93       	push	r24
    8192:	7f 93       	push	r23
    8194:	6f 93       	push	r22
    8196:	eb 80       	ldd	r14, Y+3	; 0x03
    8198:	fc 80       	ldd	r15, Y+4	; 0x04
    819a:	87 01       	movw	r16, r14
    819c:	20 91 3e 01 	lds	r18, 0x013E
    81a0:	30 91 3f 01 	lds	r19, 0x013F
    81a4:	40 91 40 01 	lds	r20, 0x0140
    81a8:	50 91 41 01 	lds	r21, 0x0141
    81ac:	60 91 42 01 	lds	r22, 0x0142
    81b0:	70 91 43 01 	lds	r23, 0x0143
    81b4:	80 91 44 01 	lds	r24, 0x0144
    81b8:	90 91 45 01 	lds	r25, 0x0145
    81bc:	0e 94 e6 0f 	call	0x1fcc	; 0x1fcc <CalcStraightPath>
    81c0:	20 90 5c 01 	lds	r2, 0x015C
    81c4:	30 90 5d 01 	lds	r3, 0x015D
    81c8:	c2 01       	movw	r24, r4
    81ca:	0f b6       	in	r0, 0x3f	; 63
    81cc:	f8 94       	cli
    81ce:	de bf       	out	0x3e, r29	; 62
    81d0:	0f be       	out	0x3f, r0	; 63
    81d2:	cd bf       	out	0x3d, r28	; 61
    81d4:	99 23       	and	r25, r25
    81d6:	0c f4       	brge	.+2      	; 0x81da <MakeTrotGait+0x10fe>
    81d8:	01 96       	adiw	r24, 0x01	; 1
    81da:	2c 01       	movw	r4, r24
    81dc:	55 94       	asr	r5
    81de:	47 94       	ror	r4
    81e0:	00 91 5e 01 	lds	r16, 0x015E
    81e4:	10 91 5f 01 	lds	r17, 0x015F
    81e8:	60 91 5a 01 	lds	r22, 0x015A
    81ec:	70 91 5b 01 	lds	r23, 0x015B
    81f0:	88 27       	eor	r24, r24
    81f2:	77 fd       	sbrc	r23, 7
    81f4:	80 95       	com	r24
    81f6:	98 2f       	mov	r25, r24
    81f8:	0e 94 aa 50 	call	0xa154	; 0xa154 <__floatsisf>
    81fc:	69 83       	std	Y+1, r22	; 0x01
    81fe:	7a 83       	std	Y+2, r23	; 0x02
    8200:	e8 2e       	mov	r14, r24
    8202:	f9 2e       	mov	r15, r25
    8204:	b4 01       	movw	r22, r8
    8206:	60 0f       	add	r22, r16
    8208:	71 1f       	adc	r23, r17
    820a:	88 27       	eor	r24, r24
    820c:	77 fd       	sbrc	r23, 7
    820e:	80 95       	com	r24
    8210:	98 2f       	mov	r25, r24
    8212:	0e 94 aa 50 	call	0xa154	; 0xa154 <__floatsisf>
    8216:	5b 01       	movw	r10, r22
    8218:	6c 01       	movw	r12, r24
    821a:	ff 92       	push	r15
    821c:	ef 92       	push	r14
    821e:	3a 81       	ldd	r19, Y+2	; 0x02
    8220:	3f 93       	push	r19
    8222:	49 81       	ldd	r20, Y+1	; 0x01
    8224:	4f 93       	push	r20
    8226:	88 27       	eor	r24, r24
    8228:	99 27       	eor	r25, r25
    822a:	82 19       	sub	r24, r2
    822c:	93 09       	sbc	r25, r3
    822e:	84 19       	sub	r24, r4
    8230:	95 09       	sbc	r25, r5
    8232:	bc 01       	movw	r22, r24
    8234:	88 27       	eor	r24, r24
    8236:	77 fd       	sbrc	r23, 7
    8238:	80 95       	com	r24
    823a:	98 2f       	mov	r25, r24
    823c:	0e 94 aa 50 	call	0xa154	; 0xa154 <__floatsisf>
    8240:	9f 93       	push	r25
    8242:	8f 93       	push	r24
    8244:	7f 93       	push	r23
    8246:	6f 93       	push	r22
    8248:	08 19       	sub	r16, r8
    824a:	19 09       	sbc	r17, r9
    824c:	b8 01       	movw	r22, r16
    824e:	88 27       	eor	r24, r24
    8250:	77 fd       	sbrc	r23, 7
    8252:	80 95       	com	r24
    8254:	98 2f       	mov	r25, r24
    8256:	0e 94 aa 50 	call	0xa154	; 0xa154 <__floatsisf>
    825a:	9f 93       	push	r25
    825c:	8f 93       	push	r24
    825e:	7f 93       	push	r23
    8260:	6f 93       	push	r22
    8262:	ff 92       	push	r15
    8264:	ef 92       	push	r14
    8266:	5a 81       	ldd	r21, Y+2	; 0x02
    8268:	5f 93       	push	r21
    826a:	89 81       	ldd	r24, Y+1	; 0x01
    826c:	8f 93       	push	r24
    826e:	b2 01       	movw	r22, r4
    8270:	62 19       	sub	r22, r2
    8272:	73 09       	sbc	r23, r3
    8274:	88 27       	eor	r24, r24
    8276:	77 fd       	sbrc	r23, 7
    8278:	80 95       	com	r24
    827a:	98 2f       	mov	r25, r24
    827c:	0e 94 aa 50 	call	0xa154	; 0xa154 <__floatsisf>
    8280:	9f 93       	push	r25
    8282:	8f 93       	push	r24
    8284:	7f 93       	push	r23
    8286:	6f 93       	push	r22
    8288:	e1 2c       	mov	r14, r1
    828a:	f1 2c       	mov	r15, r1
    828c:	0b 81       	ldd	r16, Y+3	; 0x03
    828e:	1c 81       	ldd	r17, Y+4	; 0x04
    8290:	20 91 26 01 	lds	r18, 0x0126
    8294:	30 91 27 01 	lds	r19, 0x0127
    8298:	40 91 28 01 	lds	r20, 0x0128
    829c:	50 91 29 01 	lds	r21, 0x0129
    82a0:	60 91 2a 01 	lds	r22, 0x012A
    82a4:	70 91 2b 01 	lds	r23, 0x012B
    82a8:	80 91 2c 01 	lds	r24, 0x012C
    82ac:	90 91 2d 01 	lds	r25, 0x012D
    82b0:	0e 94 6b 13 	call	0x26d6	; 0x26d6 <CalcCurvedPath>
    82b4:	20 90 5c 01 	lds	r2, 0x015C
    82b8:	30 90 5d 01 	lds	r3, 0x015D
    82bc:	00 91 5e 01 	lds	r16, 0x015E
    82c0:	10 91 5f 01 	lds	r17, 0x015F
    82c4:	60 91 5a 01 	lds	r22, 0x015A
    82c8:	70 91 5b 01 	lds	r23, 0x015B
    82cc:	88 27       	eor	r24, r24
    82ce:	77 fd       	sbrc	r23, 7
    82d0:	80 95       	com	r24
    82d2:	98 2f       	mov	r25, r24
    82d4:	0e 94 aa 50 	call	0xa154	; 0xa154 <__floatsisf>
    82d8:	69 83       	std	Y+1, r22	; 0x01
    82da:	7a 83       	std	Y+2, r23	; 0x02
    82dc:	e8 2e       	mov	r14, r24
    82de:	f9 2e       	mov	r15, r25
    82e0:	b8 01       	movw	r22, r16
    82e2:	68 19       	sub	r22, r8
    82e4:	79 09       	sbc	r23, r9
    82e6:	88 27       	eor	r24, r24
    82e8:	77 fd       	sbrc	r23, 7
    82ea:	80 95       	com	r24
    82ec:	98 2f       	mov	r25, r24
    82ee:	0e 94 aa 50 	call	0xa154	; 0xa154 <__floatsisf>
    82f2:	5b 01       	movw	r10, r22
    82f4:	6c 01       	movw	r12, r24
    82f6:	ff 92       	push	r15
    82f8:	ef 92       	push	r14
    82fa:	9a 81       	ldd	r25, Y+2	; 0x02
    82fc:	9f 93       	push	r25
    82fe:	e9 81       	ldd	r30, Y+1	; 0x01
    8300:	ef 93       	push	r30
    8302:	c2 01       	movw	r24, r4
    8304:	82 19       	sub	r24, r2
    8306:	93 09       	sbc	r25, r3
    8308:	bc 01       	movw	r22, r24
    830a:	88 27       	eor	r24, r24
    830c:	77 fd       	sbrc	r23, 7
    830e:	80 95       	com	r24
    8310:	98 2f       	mov	r25, r24
    8312:	0e 94 aa 50 	call	0xa154	; 0xa154 <__floatsisf>
    8316:	9f 93       	push	r25
    8318:	8f 93       	push	r24
    831a:	7f 93       	push	r23
    831c:	6f 93       	push	r22
    831e:	08 0d       	add	r16, r8
    8320:	19 1d       	adc	r17, r9
    8322:	b8 01       	movw	r22, r16
    8324:	88 27       	eor	r24, r24
    8326:	77 fd       	sbrc	r23, 7
    8328:	80 95       	com	r24
    832a:	98 2f       	mov	r25, r24
    832c:	0e 94 aa 50 	call	0xa154	; 0xa154 <__floatsisf>
    8330:	9f 93       	push	r25
    8332:	8f 93       	push	r24
    8334:	7f 93       	push	r23
    8336:	6f 93       	push	r22
    8338:	ff 92       	push	r15
    833a:	ef 92       	push	r14
    833c:	fa 81       	ldd	r31, Y+2	; 0x02
    833e:	ff 93       	push	r31
    8340:	29 81       	ldd	r18, Y+1	; 0x01
    8342:	2f 93       	push	r18
    8344:	66 27       	eor	r22, r22
    8346:	77 27       	eor	r23, r23
    8348:	62 19       	sub	r22, r2
    834a:	73 09       	sbc	r23, r3
    834c:	64 19       	sub	r22, r4
    834e:	75 09       	sbc	r23, r5
    8350:	88 27       	eor	r24, r24
    8352:	77 fd       	sbrc	r23, 7
    8354:	80 95       	com	r24
    8356:	98 2f       	mov	r25, r24
    8358:	0e 94 aa 50 	call	0xa154	; 0xa154 <__floatsisf>
    835c:	9f 93       	push	r25
    835e:	8f 93       	push	r24
    8360:	7f 93       	push	r23
    8362:	6f 93       	push	r22
    8364:	eb 80       	ldd	r14, Y+3	; 0x03
    8366:	fc 80       	ldd	r15, Y+4	; 0x04
    8368:	87 01       	movw	r16, r14
    836a:	20 91 26 01 	lds	r18, 0x0126
    836e:	30 91 27 01 	lds	r19, 0x0127
    8372:	40 91 28 01 	lds	r20, 0x0128
    8376:	50 91 29 01 	lds	r21, 0x0129
    837a:	60 91 2a 01 	lds	r22, 0x012A
    837e:	70 91 2b 01 	lds	r23, 0x012B
    8382:	80 91 2c 01 	lds	r24, 0x012C
    8386:	90 91 2d 01 	lds	r25, 0x012D
    838a:	0e 94 e6 0f 	call	0x1fcc	; 0x1fcc <CalcStraightPath>
    838e:	20 90 5c 01 	lds	r2, 0x015C
    8392:	30 90 5d 01 	lds	r3, 0x015D
    8396:	00 91 5e 01 	lds	r16, 0x015E
    839a:	10 91 5f 01 	lds	r17, 0x015F
    839e:	60 91 5a 01 	lds	r22, 0x015A
    83a2:	70 91 5b 01 	lds	r23, 0x015B
    83a6:	88 27       	eor	r24, r24
    83a8:	77 fd       	sbrc	r23, 7
    83aa:	80 95       	com	r24
    83ac:	98 2f       	mov	r25, r24
    83ae:	0e 94 aa 50 	call	0xa154	; 0xa154 <__floatsisf>
    83b2:	69 83       	std	Y+1, r22	; 0x01
    83b4:	7a 83       	std	Y+2, r23	; 0x02
    83b6:	e8 2e       	mov	r14, r24
    83b8:	f9 2e       	mov	r15, r25
    83ba:	0f b6       	in	r0, 0x3f	; 63
    83bc:	f8 94       	cli
    83be:	de bf       	out	0x3e, r29	; 62
    83c0:	0f be       	out	0x3f, r0	; 63
    83c2:	cd bf       	out	0x3d, r28	; 61
    83c4:	66 27       	eor	r22, r22
    83c6:	77 27       	eor	r23, r23
    83c8:	60 1b       	sub	r22, r16
    83ca:	71 0b       	sbc	r23, r17
    83cc:	68 19       	sub	r22, r8
    83ce:	79 09       	sbc	r23, r9
    83d0:	88 27       	eor	r24, r24
    83d2:	77 fd       	sbrc	r23, 7
    83d4:	80 95       	com	r24
    83d6:	98 2f       	mov	r25, r24
    83d8:	0e 94 aa 50 	call	0xa154	; 0xa154 <__floatsisf>
    83dc:	5b 01       	movw	r10, r22
    83de:	6c 01       	movw	r12, r24
    83e0:	ff 92       	push	r15
    83e2:	ef 92       	push	r14
    83e4:	5a 81       	ldd	r21, Y+2	; 0x02
    83e6:	5f 93       	push	r21
    83e8:	89 81       	ldd	r24, Y+1	; 0x01
    83ea:	8f 93       	push	r24
    83ec:	c3 01       	movw	r24, r6
    83ee:	82 19       	sub	r24, r2
    83f0:	93 09       	sbc	r25, r3
    83f2:	bc 01       	movw	r22, r24
    83f4:	88 27       	eor	r24, r24
    83f6:	77 fd       	sbrc	r23, 7
    83f8:	80 95       	com	r24
    83fa:	98 2f       	mov	r25, r24
    83fc:	0e 94 aa 50 	call	0xa154	; 0xa154 <__floatsisf>
    8400:	9f 93       	push	r25
    8402:	8f 93       	push	r24
    8404:	7f 93       	push	r23
    8406:	6f 93       	push	r22
    8408:	c4 01       	movw	r24, r8
    840a:	80 1b       	sub	r24, r16
    840c:	91 0b       	sbc	r25, r17
    840e:	bc 01       	movw	r22, r24
    8410:	88 27       	eor	r24, r24
    8412:	77 fd       	sbrc	r23, 7
    8414:	80 95       	com	r24
    8416:	98 2f       	mov	r25, r24
    8418:	0e 94 aa 50 	call	0xa154	; 0xa154 <__floatsisf>
    841c:	9f 93       	push	r25
    841e:	8f 93       	push	r24
    8420:	7f 93       	push	r23
    8422:	6f 93       	push	r22
    8424:	ff 92       	push	r15
    8426:	ef 92       	push	r14
    8428:	9a 81       	ldd	r25, Y+2	; 0x02
    842a:	9f 93       	push	r25
    842c:	e9 81       	ldd	r30, Y+1	; 0x01
    842e:	ef 93       	push	r30
    8430:	66 27       	eor	r22, r22
    8432:	77 27       	eor	r23, r23
    8434:	62 19       	sub	r22, r2
    8436:	73 09       	sbc	r23, r3
    8438:	66 19       	sub	r22, r6
    843a:	77 09       	sbc	r23, r7
    843c:	88 27       	eor	r24, r24
    843e:	77 fd       	sbrc	r23, 7
    8440:	80 95       	com	r24
    8442:	98 2f       	mov	r25, r24
    8444:	0e 94 aa 50 	call	0xa154	; 0xa154 <__floatsisf>
    8448:	9f 93       	push	r25
    844a:	8f 93       	push	r24
    844c:	7f 93       	push	r23
    844e:	6f 93       	push	r22
    8450:	e1 2c       	mov	r14, r1
    8452:	f1 2c       	mov	r15, r1
    8454:	0b 81       	ldd	r16, Y+3	; 0x03
    8456:	1c 81       	ldd	r17, Y+4	; 0x04
    8458:	20 91 2e 01 	lds	r18, 0x012E
    845c:	30 91 2f 01 	lds	r19, 0x012F
    8460:	40 91 30 01 	lds	r20, 0x0130
    8464:	50 91 31 01 	lds	r21, 0x0131
    8468:	60 91 32 01 	lds	r22, 0x0132
    846c:	70 91 33 01 	lds	r23, 0x0133
    8470:	80 91 34 01 	lds	r24, 0x0134
    8474:	90 91 35 01 	lds	r25, 0x0135
    8478:	0e 94 e6 0f 	call	0x1fcc	; 0x1fcc <CalcStraightPath>
    847c:	20 90 5c 01 	lds	r2, 0x015C
    8480:	30 90 5d 01 	lds	r3, 0x015D
    8484:	00 91 5e 01 	lds	r16, 0x015E
    8488:	10 91 5f 01 	lds	r17, 0x015F
    848c:	60 91 5a 01 	lds	r22, 0x015A
    8490:	70 91 5b 01 	lds	r23, 0x015B
    8494:	88 27       	eor	r24, r24
    8496:	77 fd       	sbrc	r23, 7
    8498:	80 95       	com	r24
    849a:	98 2f       	mov	r25, r24
    849c:	0e 94 aa 50 	call	0xa154	; 0xa154 <__floatsisf>
    84a0:	69 83       	std	Y+1, r22	; 0x01
    84a2:	7a 83       	std	Y+2, r23	; 0x02
    84a4:	e8 2e       	mov	r14, r24
    84a6:	f9 2e       	mov	r15, r25
    84a8:	b4 01       	movw	r22, r8
    84aa:	60 1b       	sub	r22, r16
    84ac:	71 0b       	sbc	r23, r17
    84ae:	88 27       	eor	r24, r24
    84b0:	77 fd       	sbrc	r23, 7
    84b2:	80 95       	com	r24
    84b4:	98 2f       	mov	r25, r24
    84b6:	0e 94 aa 50 	call	0xa154	; 0xa154 <__floatsisf>
    84ba:	5b 01       	movw	r10, r22
    84bc:	6c 01       	movw	r12, r24
    84be:	ff 92       	push	r15
    84c0:	ef 92       	push	r14
    84c2:	fa 81       	ldd	r31, Y+2	; 0x02
    84c4:	ff 93       	push	r31
    84c6:	29 81       	ldd	r18, Y+1	; 0x01
    84c8:	2f 93       	push	r18
    84ca:	88 27       	eor	r24, r24
    84cc:	99 27       	eor	r25, r25
    84ce:	82 19       	sub	r24, r2
    84d0:	93 09       	sbc	r25, r3
    84d2:	86 19       	sub	r24, r6
    84d4:	97 09       	sbc	r25, r7
    84d6:	bc 01       	movw	r22, r24
    84d8:	88 27       	eor	r24, r24
    84da:	77 fd       	sbrc	r23, 7
    84dc:	80 95       	com	r24
    84de:	98 2f       	mov	r25, r24
    84e0:	0e 94 aa 50 	call	0xa154	; 0xa154 <__floatsisf>
    84e4:	9f 93       	push	r25
    84e6:	8f 93       	push	r24
    84e8:	7f 93       	push	r23
    84ea:	6f 93       	push	r22
    84ec:	11 95       	neg	r17
    84ee:	01 95       	neg	r16
    84f0:	11 09       	sbc	r17, r1
    84f2:	08 19       	sub	r16, r8
    84f4:	19 09       	sbc	r17, r9
    84f6:	b8 01       	movw	r22, r16
    84f8:	88 27       	eor	r24, r24
    84fa:	77 fd       	sbrc	r23, 7
    84fc:	80 95       	com	r24
    84fe:	98 2f       	mov	r25, r24
    8500:	0e 94 aa 50 	call	0xa154	; 0xa154 <__floatsisf>
    8504:	9f 93       	push	r25
    8506:	8f 93       	push	r24
    8508:	7f 93       	push	r23
    850a:	6f 93       	push	r22
    850c:	ff 92       	push	r15
    850e:	ef 92       	push	r14
    8510:	3a 81       	ldd	r19, Y+2	; 0x02
    8512:	3f 93       	push	r19
    8514:	49 81       	ldd	r20, Y+1	; 0x01
    8516:	4f 93       	push	r20
    8518:	b3 01       	movw	r22, r6
    851a:	62 19       	sub	r22, r2
    851c:	73 09       	sbc	r23, r3
    851e:	88 27       	eor	r24, r24
    8520:	77 fd       	sbrc	r23, 7
    8522:	80 95       	com	r24
    8524:	98 2f       	mov	r25, r24
    8526:	0e 94 aa 50 	call	0xa154	; 0xa154 <__floatsisf>
    852a:	9f 93       	push	r25
    852c:	8f 93       	push	r24
    852e:	7f 93       	push	r23
    8530:	6f 93       	push	r22
    8532:	eb 80       	ldd	r14, Y+3	; 0x03
    8534:	fc 80       	ldd	r15, Y+4	; 0x04
    8536:	87 01       	movw	r16, r14
    8538:	20 91 2e 01 	lds	r18, 0x012E
    853c:	30 91 2f 01 	lds	r19, 0x012F
    8540:	40 91 30 01 	lds	r20, 0x0130
    8544:	50 91 31 01 	lds	r21, 0x0131
    8548:	60 91 32 01 	lds	r22, 0x0132
    854c:	70 91 33 01 	lds	r23, 0x0133
    8550:	80 91 34 01 	lds	r24, 0x0134
    8554:	90 91 35 01 	lds	r25, 0x0135
    8558:	0e 94 6b 13 	call	0x26d6	; 0x26d6 <CalcCurvedPath>
    855c:	60 90 5c 01 	lds	r6, 0x015C
    8560:	70 90 5d 01 	lds	r7, 0x015D
    8564:	00 91 5e 01 	lds	r16, 0x015E
    8568:	10 91 5f 01 	lds	r17, 0x015F
    856c:	60 91 5a 01 	lds	r22, 0x015A
    8570:	70 91 5b 01 	lds	r23, 0x015B
    8574:	88 27       	eor	r24, r24
    8576:	77 fd       	sbrc	r23, 7
    8578:	80 95       	com	r24
    857a:	98 2f       	mov	r25, r24
    857c:	0e 94 aa 50 	call	0xa154	; 0xa154 <__floatsisf>
    8580:	26 2e       	mov	r2, r22
    8582:	37 2e       	mov	r3, r23
    8584:	f8 2e       	mov	r15, r24
    8586:	e9 2e       	mov	r14, r25
    8588:	0f b6       	in	r0, 0x3f	; 63
    858a:	f8 94       	cli
    858c:	de bf       	out	0x3e, r29	; 62
    858e:	0f be       	out	0x3f, r0	; 63
    8590:	cd bf       	out	0x3d, r28	; 61
    8592:	b8 01       	movw	r22, r16
    8594:	68 19       	sub	r22, r8
    8596:	79 09       	sbc	r23, r9
    8598:	88 27       	eor	r24, r24
    859a:	77 fd       	sbrc	r23, 7
    859c:	80 95       	com	r24
    859e:	98 2f       	mov	r25, r24
    85a0:	0e 94 aa 50 	call	0xa154	; 0xa154 <__floatsisf>
    85a4:	5b 01       	movw	r10, r22
    85a6:	6c 01       	movw	r12, r24
    85a8:	ef 92       	push	r14
    85aa:	ff 92       	push	r15
    85ac:	3f 92       	push	r3
    85ae:	2f 92       	push	r2
    85b0:	92 01       	movw	r18, r4
    85b2:	26 0d       	add	r18, r6
    85b4:	37 1d       	adc	r19, r7
    85b6:	b9 01       	movw	r22, r18
    85b8:	88 27       	eor	r24, r24
    85ba:	77 fd       	sbrc	r23, 7
    85bc:	80 95       	com	r24
    85be:	98 2f       	mov	r25, r24
    85c0:	0e 94 aa 50 	call	0xa154	; 0xa154 <__floatsisf>
    85c4:	9f 93       	push	r25
    85c6:	8f 93       	push	r24
    85c8:	7f 93       	push	r23
    85ca:	6f 93       	push	r22
    85cc:	b4 01       	movw	r22, r8
    85ce:	60 0f       	add	r22, r16
    85d0:	71 1f       	adc	r23, r17
    85d2:	88 27       	eor	r24, r24
    85d4:	77 fd       	sbrc	r23, 7
    85d6:	80 95       	com	r24
    85d8:	98 2f       	mov	r25, r24
    85da:	0e 94 aa 50 	call	0xa154	; 0xa154 <__floatsisf>
    85de:	9f 93       	push	r25
    85e0:	8f 93       	push	r24
    85e2:	7f 93       	push	r23
    85e4:	6f 93       	push	r22
    85e6:	ef 92       	push	r14
    85e8:	ff 92       	push	r15
    85ea:	3f 92       	push	r3
    85ec:	2f 92       	push	r2
    85ee:	b3 01       	movw	r22, r6
    85f0:	64 19       	sub	r22, r4
    85f2:	75 09       	sbc	r23, r5
    85f4:	88 27       	eor	r24, r24
    85f6:	77 fd       	sbrc	r23, 7
    85f8:	80 95       	com	r24
    85fa:	98 2f       	mov	r25, r24
    85fc:	0e 94 aa 50 	call	0xa154	; 0xa154 <__floatsisf>
    8600:	9f 93       	push	r25
    8602:	8f 93       	push	r24
    8604:	7f 93       	push	r23
    8606:	6f 93       	push	r22
    8608:	e1 2c       	mov	r14, r1
    860a:	f1 2c       	mov	r15, r1
    860c:	0b 81       	ldd	r16, Y+3	; 0x03
    860e:	1c 81       	ldd	r17, Y+4	; 0x04
    8610:	20 91 36 01 	lds	r18, 0x0136
    8614:	30 91 37 01 	lds	r19, 0x0137
    8618:	40 91 38 01 	lds	r20, 0x0138
    861c:	50 91 39 01 	lds	r21, 0x0139
    8620:	60 91 3a 01 	lds	r22, 0x013A
    8624:	70 91 3b 01 	lds	r23, 0x013B
    8628:	80 91 3c 01 	lds	r24, 0x013C
    862c:	90 91 3d 01 	lds	r25, 0x013D
    8630:	0e 94 e6 0f 	call	0x1fcc	; 0x1fcc <CalcStraightPath>
    8634:	60 90 5c 01 	lds	r6, 0x015C
    8638:	70 90 5d 01 	lds	r7, 0x015D
    863c:	00 91 5e 01 	lds	r16, 0x015E
    8640:	10 91 5f 01 	lds	r17, 0x015F
    8644:	60 91 5a 01 	lds	r22, 0x015A
    8648:	70 91 5b 01 	lds	r23, 0x015B
    864c:	88 27       	eor	r24, r24
    864e:	77 fd       	sbrc	r23, 7
    8650:	80 95       	com	r24
    8652:	98 2f       	mov	r25, r24
    8654:	0e 94 aa 50 	call	0xa154	; 0xa154 <__floatsisf>
    8658:	26 2e       	mov	r2, r22
    865a:	37 2e       	mov	r3, r23
    865c:	f8 2e       	mov	r15, r24
    865e:	e9 2e       	mov	r14, r25
    8660:	b4 01       	movw	r22, r8
    8662:	60 0f       	add	r22, r16
    8664:	71 1f       	adc	r23, r17
    8666:	88 27       	eor	r24, r24
    8668:	77 fd       	sbrc	r23, 7
    866a:	80 95       	com	r24
    866c:	98 2f       	mov	r25, r24
    866e:	0e 94 aa 50 	call	0xa154	; 0xa154 <__floatsisf>
    8672:	5b 01       	movw	r10, r22
    8674:	6c 01       	movw	r12, r24
    8676:	ef 92       	push	r14
    8678:	ff 92       	push	r15
    867a:	3f 92       	push	r3
    867c:	2f 92       	push	r2
    867e:	93 01       	movw	r18, r6
    8680:	24 19       	sub	r18, r4
    8682:	35 09       	sbc	r19, r5
    8684:	b9 01       	movw	r22, r18
    8686:	88 27       	eor	r24, r24
    8688:	77 fd       	sbrc	r23, 7
    868a:	80 95       	com	r24
    868c:	98 2f       	mov	r25, r24
    868e:	0e 94 aa 50 	call	0xa154	; 0xa154 <__floatsisf>
    8692:	9f 93       	push	r25
    8694:	8f 93       	push	r24
    8696:	7f 93       	push	r23
    8698:	6f 93       	push	r22
    869a:	b8 01       	movw	r22, r16
    869c:	68 19       	sub	r22, r8
    869e:	79 09       	sbc	r23, r9
    86a0:	88 27       	eor	r24, r24
    86a2:	77 fd       	sbrc	r23, 7
    86a4:	80 95       	com	r24
    86a6:	98 2f       	mov	r25, r24
    86a8:	0e 94 aa 50 	call	0xa154	; 0xa154 <__floatsisf>
    86ac:	9f 93       	push	r25
    86ae:	8f 93       	push	r24
    86b0:	7f 93       	push	r23
    86b2:	6f 93       	push	r22
    86b4:	ef 92       	push	r14
    86b6:	ff 92       	push	r15
    86b8:	3f 92       	push	r3
    86ba:	2f 92       	push	r2
    86bc:	b2 01       	movw	r22, r4
    86be:	66 0d       	add	r22, r6
    86c0:	77 1d       	adc	r23, r7
    86c2:	88 27       	eor	r24, r24
    86c4:	77 fd       	sbrc	r23, 7
    86c6:	80 95       	com	r24
    86c8:	98 2f       	mov	r25, r24
    86ca:	0e 94 aa 50 	call	0xa154	; 0xa154 <__floatsisf>
    86ce:	9f 93       	push	r25
    86d0:	8f 93       	push	r24
    86d2:	7f 93       	push	r23
    86d4:	6f 93       	push	r22
    86d6:	eb 80       	ldd	r14, Y+3	; 0x03
    86d8:	fc 80       	ldd	r15, Y+4	; 0x04
    86da:	87 01       	movw	r16, r14
    86dc:	20 91 36 01 	lds	r18, 0x0136
    86e0:	30 91 37 01 	lds	r19, 0x0137
    86e4:	40 91 38 01 	lds	r20, 0x0138
    86e8:	50 91 39 01 	lds	r21, 0x0139
    86ec:	60 91 3a 01 	lds	r22, 0x013A
    86f0:	70 91 3b 01 	lds	r23, 0x013B
    86f4:	80 91 3c 01 	lds	r24, 0x013C
    86f8:	90 91 3d 01 	lds	r25, 0x013D
    86fc:	0e 94 6b 13 	call	0x26d6	; 0x26d6 <CalcCurvedPath>
    8700:	0f b6       	in	r0, 0x3f	; 63
    8702:	f8 94       	cli
    8704:	de bf       	out	0x3e, r29	; 62
    8706:	0f be       	out	0x3f, r0	; 63
    8708:	cd bf       	out	0x3d, r28	; 61
    870a:	ba c6       	rjmp	.+3444   	; 0x9480 <MakeTrotGait+0x23a4>
    870c:	4c 01       	movw	r8, r24
    870e:	99 23       	and	r25, r25
    8710:	1c f4       	brge	.+6      	; 0x8718 <MakeTrotGait+0x163c>
    8712:	ff ef       	ldi	r31, 0xFF	; 255
    8714:	8f 1a       	sub	r8, r31
    8716:	9f 0a       	sbc	r9, r31
    8718:	95 94       	asr	r9
    871a:	87 94       	ror	r8
    871c:	e0 90 5c 01 	lds	r14, 0x015C
    8720:	f0 90 5d 01 	lds	r15, 0x015D
    8724:	00 91 5e 01 	lds	r16, 0x015E
    8728:	10 91 5f 01 	lds	r17, 0x015F
    872c:	13 01       	movw	r2, r6
    872e:	77 20       	and	r7, r7
    8730:	1c f4       	brge	.+6      	; 0x8738 <MakeTrotGait+0x165c>
    8732:	2f ef       	ldi	r18, 0xFF	; 255
    8734:	22 1a       	sub	r2, r18
    8736:	32 0a       	sbc	r3, r18
    8738:	35 94       	asr	r3
    873a:	27 94       	ror	r2
    873c:	60 91 5a 01 	lds	r22, 0x015A
    8740:	70 91 5b 01 	lds	r23, 0x015B
    8744:	88 27       	eor	r24, r24
    8746:	77 fd       	sbrc	r23, 7
    8748:	80 95       	com	r24
    874a:	98 2f       	mov	r25, r24
    874c:	0e 94 aa 50 	call	0xa154	; 0xa154 <__floatsisf>
    8750:	69 83       	std	Y+1, r22	; 0x01
    8752:	7a 83       	std	Y+2, r23	; 0x02
    8754:	68 2e       	mov	r6, r24
    8756:	79 2e       	mov	r7, r25
    8758:	b1 01       	movw	r22, r2
    875a:	60 1b       	sub	r22, r16
    875c:	71 0b       	sbc	r23, r17
    875e:	88 27       	eor	r24, r24
    8760:	77 fd       	sbrc	r23, 7
    8762:	80 95       	com	r24
    8764:	98 2f       	mov	r25, r24
    8766:	0e 94 aa 50 	call	0xa154	; 0xa154 <__floatsisf>
    876a:	5b 01       	movw	r10, r22
    876c:	6c 01       	movw	r12, r24
    876e:	7f 92       	push	r7
    8770:	6f 92       	push	r6
    8772:	3a 81       	ldd	r19, Y+2	; 0x02
    8774:	3f 93       	push	r19
    8776:	49 81       	ldd	r20, Y+1	; 0x01
    8778:	4f 93       	push	r20
    877a:	c4 01       	movw	r24, r8
    877c:	8e 0d       	add	r24, r14
    877e:	9f 1d       	adc	r25, r15
    8780:	bc 01       	movw	r22, r24
    8782:	88 27       	eor	r24, r24
    8784:	77 fd       	sbrc	r23, 7
    8786:	80 95       	com	r24
    8788:	98 2f       	mov	r25, r24
    878a:	0e 94 aa 50 	call	0xa154	; 0xa154 <__floatsisf>
    878e:	9f 93       	push	r25
    8790:	8f 93       	push	r24
    8792:	7f 93       	push	r23
    8794:	6f 93       	push	r22
    8796:	11 95       	neg	r17
    8798:	01 95       	neg	r16
    879a:	11 09       	sbc	r17, r1
    879c:	02 19       	sub	r16, r2
    879e:	13 09       	sbc	r17, r3
    87a0:	b8 01       	movw	r22, r16
    87a2:	88 27       	eor	r24, r24
    87a4:	77 fd       	sbrc	r23, 7
    87a6:	80 95       	com	r24
    87a8:	98 2f       	mov	r25, r24
    87aa:	0e 94 aa 50 	call	0xa154	; 0xa154 <__floatsisf>
    87ae:	9f 93       	push	r25
    87b0:	8f 93       	push	r24
    87b2:	7f 93       	push	r23
    87b4:	6f 93       	push	r22
    87b6:	7f 92       	push	r7
    87b8:	6f 92       	push	r6
    87ba:	5a 81       	ldd	r21, Y+2	; 0x02
    87bc:	5f 93       	push	r21
    87be:	89 81       	ldd	r24, Y+1	; 0x01
    87c0:	8f 93       	push	r24
    87c2:	b7 01       	movw	r22, r14
    87c4:	68 19       	sub	r22, r8
    87c6:	79 09       	sbc	r23, r9
    87c8:	88 27       	eor	r24, r24
    87ca:	77 fd       	sbrc	r23, 7
    87cc:	80 95       	com	r24
    87ce:	98 2f       	mov	r25, r24
    87d0:	0e 94 aa 50 	call	0xa154	; 0xa154 <__floatsisf>
    87d4:	9f 93       	push	r25
    87d6:	8f 93       	push	r24
    87d8:	7f 93       	push	r23
    87da:	6f 93       	push	r22
    87dc:	e1 2c       	mov	r14, r1
    87de:	f1 2c       	mov	r15, r1
    87e0:	0b 81       	ldd	r16, Y+3	; 0x03
    87e2:	1c 81       	ldd	r17, Y+4	; 0x04
    87e4:	20 91 3e 01 	lds	r18, 0x013E
    87e8:	30 91 3f 01 	lds	r19, 0x013F
    87ec:	40 91 40 01 	lds	r20, 0x0140
    87f0:	50 91 41 01 	lds	r21, 0x0141
    87f4:	60 91 42 01 	lds	r22, 0x0142
    87f8:	70 91 43 01 	lds	r23, 0x0143
    87fc:	80 91 44 01 	lds	r24, 0x0144
    8800:	90 91 45 01 	lds	r25, 0x0145
    8804:	0e 94 6b 13 	call	0x26d6	; 0x26d6 <CalcCurvedPath>
    8808:	e0 90 5c 01 	lds	r14, 0x015C
    880c:	f0 90 5d 01 	lds	r15, 0x015D
    8810:	00 91 5e 01 	lds	r16, 0x015E
    8814:	10 91 5f 01 	lds	r17, 0x015F
    8818:	60 91 5a 01 	lds	r22, 0x015A
    881c:	70 91 5b 01 	lds	r23, 0x015B
    8820:	88 27       	eor	r24, r24
    8822:	77 fd       	sbrc	r23, 7
    8824:	80 95       	com	r24
    8826:	98 2f       	mov	r25, r24
    8828:	0e 94 aa 50 	call	0xa154	; 0xa154 <__floatsisf>
    882c:	69 83       	std	Y+1, r22	; 0x01
    882e:	7a 83       	std	Y+2, r23	; 0x02
    8830:	68 2e       	mov	r6, r24
    8832:	79 2e       	mov	r7, r25
    8834:	66 27       	eor	r22, r22
    8836:	77 27       	eor	r23, r23
    8838:	60 1b       	sub	r22, r16
    883a:	71 0b       	sbc	r23, r17
    883c:	62 19       	sub	r22, r2
    883e:	73 09       	sbc	r23, r3
    8840:	88 27       	eor	r24, r24
    8842:	77 fd       	sbrc	r23, 7
    8844:	80 95       	com	r24
    8846:	98 2f       	mov	r25, r24
    8848:	0e 94 aa 50 	call	0xa154	; 0xa154 <__floatsisf>
    884c:	5b 01       	movw	r10, r22
    884e:	6c 01       	movw	r12, r24
    8850:	7f 92       	push	r7
    8852:	6f 92       	push	r6
    8854:	9a 81       	ldd	r25, Y+2	; 0x02
    8856:	9f 93       	push	r25
    8858:	e9 81       	ldd	r30, Y+1	; 0x01
    885a:	ef 93       	push	r30
    885c:	c7 01       	movw	r24, r14
    885e:	88 19       	sub	r24, r8
    8860:	99 09       	sbc	r25, r9
    8862:	bc 01       	movw	r22, r24
    8864:	88 27       	eor	r24, r24
    8866:	77 fd       	sbrc	r23, 7
    8868:	80 95       	com	r24
    886a:	98 2f       	mov	r25, r24
    886c:	0e 94 aa 50 	call	0xa154	; 0xa154 <__floatsisf>
    8870:	9f 93       	push	r25
    8872:	8f 93       	push	r24
    8874:	7f 93       	push	r23
    8876:	6f 93       	push	r22
    8878:	c1 01       	movw	r24, r2
    887a:	80 1b       	sub	r24, r16
    887c:	91 0b       	sbc	r25, r17
    887e:	bc 01       	movw	r22, r24
    8880:	88 27       	eor	r24, r24
    8882:	77 fd       	sbrc	r23, 7
    8884:	80 95       	com	r24
    8886:	98 2f       	mov	r25, r24
    8888:	0e 94 aa 50 	call	0xa154	; 0xa154 <__floatsisf>
    888c:	9f 93       	push	r25
    888e:	8f 93       	push	r24
    8890:	7f 93       	push	r23
    8892:	6f 93       	push	r22
    8894:	7f 92       	push	r7
    8896:	6f 92       	push	r6
    8898:	fa 81       	ldd	r31, Y+2	; 0x02
    889a:	ff 93       	push	r31
    889c:	29 81       	ldd	r18, Y+1	; 0x01
    889e:	2f 93       	push	r18
    88a0:	b4 01       	movw	r22, r8
    88a2:	6e 0d       	add	r22, r14
    88a4:	7f 1d       	adc	r23, r15
    88a6:	88 27       	eor	r24, r24
    88a8:	77 fd       	sbrc	r23, 7
    88aa:	80 95       	com	r24
    88ac:	98 2f       	mov	r25, r24
    88ae:	0e 94 aa 50 	call	0xa154	; 0xa154 <__floatsisf>
    88b2:	9f 93       	push	r25
    88b4:	8f 93       	push	r24
    88b6:	7f 93       	push	r23
    88b8:	6f 93       	push	r22
    88ba:	eb 80       	ldd	r14, Y+3	; 0x03
    88bc:	fc 80       	ldd	r15, Y+4	; 0x04
    88be:	87 01       	movw	r16, r14
    88c0:	20 91 3e 01 	lds	r18, 0x013E
    88c4:	30 91 3f 01 	lds	r19, 0x013F
    88c8:	40 91 40 01 	lds	r20, 0x0140
    88cc:	50 91 41 01 	lds	r21, 0x0141
    88d0:	60 91 42 01 	lds	r22, 0x0142
    88d4:	70 91 43 01 	lds	r23, 0x0143
    88d8:	80 91 44 01 	lds	r24, 0x0144
    88dc:	90 91 45 01 	lds	r25, 0x0145
    88e0:	0e 94 e6 0f 	call	0x1fcc	; 0x1fcc <CalcStraightPath>
    88e4:	e0 90 5c 01 	lds	r14, 0x015C
    88e8:	f0 90 5d 01 	lds	r15, 0x015D
    88ec:	00 91 5e 01 	lds	r16, 0x015E
    88f0:	10 91 5f 01 	lds	r17, 0x015F
    88f4:	32 01       	movw	r6, r4
    88f6:	0f b6       	in	r0, 0x3f	; 63
    88f8:	f8 94       	cli
    88fa:	de bf       	out	0x3e, r29	; 62
    88fc:	0f be       	out	0x3f, r0	; 63
    88fe:	cd bf       	out	0x3d, r28	; 61
    8900:	55 20       	and	r5, r5
    8902:	1c f4       	brge	.+6      	; 0x890a <MakeTrotGait+0x182e>
    8904:	5f ef       	ldi	r21, 0xFF	; 255
    8906:	65 1a       	sub	r6, r21
    8908:	75 0a       	sbc	r7, r21
    890a:	75 94       	asr	r7
    890c:	67 94       	ror	r6
    890e:	60 91 5a 01 	lds	r22, 0x015A
    8912:	70 91 5b 01 	lds	r23, 0x015B
    8916:	88 27       	eor	r24, r24
    8918:	77 fd       	sbrc	r23, 7
    891a:	80 95       	com	r24
    891c:	98 2f       	mov	r25, r24
    891e:	0e 94 aa 50 	call	0xa154	; 0xa154 <__floatsisf>
    8922:	69 83       	std	Y+1, r22	; 0x01
    8924:	7a 83       	std	Y+2, r23	; 0x02
    8926:	48 2e       	mov	r4, r24
    8928:	59 2e       	mov	r5, r25
    892a:	b8 01       	movw	r22, r16
    892c:	66 0d       	add	r22, r6
    892e:	77 1d       	adc	r23, r7
    8930:	88 27       	eor	r24, r24
    8932:	77 fd       	sbrc	r23, 7
    8934:	80 95       	com	r24
    8936:	98 2f       	mov	r25, r24
    8938:	0e 94 aa 50 	call	0xa154	; 0xa154 <__floatsisf>
    893c:	5b 01       	movw	r10, r22
    893e:	6c 01       	movw	r12, r24
    8940:	5f 92       	push	r5
    8942:	4f 92       	push	r4
    8944:	8a 81       	ldd	r24, Y+2	; 0x02
    8946:	8f 93       	push	r24
    8948:	99 81       	ldd	r25, Y+1	; 0x01
    894a:	9f 93       	push	r25
    894c:	c4 01       	movw	r24, r8
    894e:	8e 19       	sub	r24, r14
    8950:	9f 09       	sbc	r25, r15
    8952:	bc 01       	movw	r22, r24
    8954:	88 27       	eor	r24, r24
    8956:	77 fd       	sbrc	r23, 7
    8958:	80 95       	com	r24
    895a:	98 2f       	mov	r25, r24
    895c:	0e 94 aa 50 	call	0xa154	; 0xa154 <__floatsisf>
    8960:	9f 93       	push	r25
    8962:	8f 93       	push	r24
    8964:	7f 93       	push	r23
    8966:	6f 93       	push	r22
    8968:	06 19       	sub	r16, r6
    896a:	17 09       	sbc	r17, r7
    896c:	b8 01       	movw	r22, r16
    896e:	88 27       	eor	r24, r24
    8970:	77 fd       	sbrc	r23, 7
    8972:	80 95       	com	r24
    8974:	98 2f       	mov	r25, r24
    8976:	0e 94 aa 50 	call	0xa154	; 0xa154 <__floatsisf>
    897a:	9f 93       	push	r25
    897c:	8f 93       	push	r24
    897e:	7f 93       	push	r23
    8980:	6f 93       	push	r22
    8982:	5f 92       	push	r5
    8984:	4f 92       	push	r4
    8986:	ea 81       	ldd	r30, Y+2	; 0x02
    8988:	ef 93       	push	r30
    898a:	f9 81       	ldd	r31, Y+1	; 0x01
    898c:	ff 93       	push	r31
    898e:	66 27       	eor	r22, r22
    8990:	77 27       	eor	r23, r23
    8992:	6e 19       	sub	r22, r14
    8994:	7f 09       	sbc	r23, r15
    8996:	68 19       	sub	r22, r8
    8998:	79 09       	sbc	r23, r9
    899a:	88 27       	eor	r24, r24
    899c:	77 fd       	sbrc	r23, 7
    899e:	80 95       	com	r24
    89a0:	98 2f       	mov	r25, r24
    89a2:	0e 94 aa 50 	call	0xa154	; 0xa154 <__floatsisf>
    89a6:	9f 93       	push	r25
    89a8:	8f 93       	push	r24
    89aa:	7f 93       	push	r23
    89ac:	6f 93       	push	r22
    89ae:	e1 2c       	mov	r14, r1
    89b0:	f1 2c       	mov	r15, r1
    89b2:	0b 81       	ldd	r16, Y+3	; 0x03
    89b4:	1c 81       	ldd	r17, Y+4	; 0x04
    89b6:	20 91 26 01 	lds	r18, 0x0126
    89ba:	30 91 27 01 	lds	r19, 0x0127
    89be:	40 91 28 01 	lds	r20, 0x0128
    89c2:	50 91 29 01 	lds	r21, 0x0129
    89c6:	60 91 2a 01 	lds	r22, 0x012A
    89ca:	70 91 2b 01 	lds	r23, 0x012B
    89ce:	80 91 2c 01 	lds	r24, 0x012C
    89d2:	90 91 2d 01 	lds	r25, 0x012D
    89d6:	0e 94 6b 13 	call	0x26d6	; 0x26d6 <CalcCurvedPath>
    89da:	e0 90 5c 01 	lds	r14, 0x015C
    89de:	f0 90 5d 01 	lds	r15, 0x015D
    89e2:	00 91 5e 01 	lds	r16, 0x015E
    89e6:	10 91 5f 01 	lds	r17, 0x015F
    89ea:	60 91 5a 01 	lds	r22, 0x015A
    89ee:	70 91 5b 01 	lds	r23, 0x015B
    89f2:	88 27       	eor	r24, r24
    89f4:	77 fd       	sbrc	r23, 7
    89f6:	80 95       	com	r24
    89f8:	98 2f       	mov	r25, r24
    89fa:	0e 94 aa 50 	call	0xa154	; 0xa154 <__floatsisf>
    89fe:	69 83       	std	Y+1, r22	; 0x01
    8a00:	7a 83       	std	Y+2, r23	; 0x02
    8a02:	48 2e       	mov	r4, r24
    8a04:	59 2e       	mov	r5, r25
    8a06:	b8 01       	movw	r22, r16
    8a08:	66 19       	sub	r22, r6
    8a0a:	77 09       	sbc	r23, r7
    8a0c:	88 27       	eor	r24, r24
    8a0e:	77 fd       	sbrc	r23, 7
    8a10:	80 95       	com	r24
    8a12:	98 2f       	mov	r25, r24
    8a14:	0e 94 aa 50 	call	0xa154	; 0xa154 <__floatsisf>
    8a18:	5b 01       	movw	r10, r22
    8a1a:	6c 01       	movw	r12, r24
    8a1c:	5f 92       	push	r5
    8a1e:	4f 92       	push	r4
    8a20:	2a 81       	ldd	r18, Y+2	; 0x02
    8a22:	2f 93       	push	r18
    8a24:	39 81       	ldd	r19, Y+1	; 0x01
    8a26:	3f 93       	push	r19
    8a28:	88 27       	eor	r24, r24
    8a2a:	99 27       	eor	r25, r25
    8a2c:	8e 19       	sub	r24, r14
    8a2e:	9f 09       	sbc	r25, r15
    8a30:	88 19       	sub	r24, r8
    8a32:	99 09       	sbc	r25, r9
    8a34:	bc 01       	movw	r22, r24
    8a36:	88 27       	eor	r24, r24
    8a38:	77 fd       	sbrc	r23, 7
    8a3a:	80 95       	com	r24
    8a3c:	98 2f       	mov	r25, r24
    8a3e:	0e 94 aa 50 	call	0xa154	; 0xa154 <__floatsisf>
    8a42:	9f 93       	push	r25
    8a44:	8f 93       	push	r24
    8a46:	7f 93       	push	r23
    8a48:	6f 93       	push	r22
    8a4a:	06 0d       	add	r16, r6
    8a4c:	17 1d       	adc	r17, r7
    8a4e:	b8 01       	movw	r22, r16
    8a50:	88 27       	eor	r24, r24
    8a52:	77 fd       	sbrc	r23, 7
    8a54:	80 95       	com	r24
    8a56:	98 2f       	mov	r25, r24
    8a58:	0e 94 aa 50 	call	0xa154	; 0xa154 <__floatsisf>
    8a5c:	9f 93       	push	r25
    8a5e:	8f 93       	push	r24
    8a60:	7f 93       	push	r23
    8a62:	6f 93       	push	r22
    8a64:	5f 92       	push	r5
    8a66:	4f 92       	push	r4
    8a68:	4a 81       	ldd	r20, Y+2	; 0x02
    8a6a:	4f 93       	push	r20
    8a6c:	59 81       	ldd	r21, Y+1	; 0x01
    8a6e:	5f 93       	push	r21
    8a70:	b4 01       	movw	r22, r8
    8a72:	6e 19       	sub	r22, r14
    8a74:	7f 09       	sbc	r23, r15
    8a76:	88 27       	eor	r24, r24
    8a78:	77 fd       	sbrc	r23, 7
    8a7a:	80 95       	com	r24
    8a7c:	98 2f       	mov	r25, r24
    8a7e:	0e 94 aa 50 	call	0xa154	; 0xa154 <__floatsisf>
    8a82:	9f 93       	push	r25
    8a84:	8f 93       	push	r24
    8a86:	7f 93       	push	r23
    8a88:	6f 93       	push	r22
    8a8a:	eb 80       	ldd	r14, Y+3	; 0x03
    8a8c:	fc 80       	ldd	r15, Y+4	; 0x04
    8a8e:	87 01       	movw	r16, r14
    8a90:	20 91 26 01 	lds	r18, 0x0126
    8a94:	30 91 27 01 	lds	r19, 0x0127
    8a98:	40 91 28 01 	lds	r20, 0x0128
    8a9c:	50 91 29 01 	lds	r21, 0x0129
    8aa0:	60 91 2a 01 	lds	r22, 0x012A
    8aa4:	70 91 2b 01 	lds	r23, 0x012B
    8aa8:	80 91 2c 01 	lds	r24, 0x012C
    8aac:	90 91 2d 01 	lds	r25, 0x012D
    8ab0:	0e 94 e6 0f 	call	0x1fcc	; 0x1fcc <CalcStraightPath>
    8ab4:	e0 90 5c 01 	lds	r14, 0x015C
    8ab8:	f0 90 5d 01 	lds	r15, 0x015D
    8abc:	00 91 5e 01 	lds	r16, 0x015E
    8ac0:	10 91 5f 01 	lds	r17, 0x015F
    8ac4:	60 91 5a 01 	lds	r22, 0x015A
    8ac8:	70 91 5b 01 	lds	r23, 0x015B
    8acc:	88 27       	eor	r24, r24
    8ace:	77 fd       	sbrc	r23, 7
    8ad0:	80 95       	com	r24
    8ad2:	98 2f       	mov	r25, r24
    8ad4:	0e 94 aa 50 	call	0xa154	; 0xa154 <__floatsisf>
    8ad8:	69 83       	std	Y+1, r22	; 0x01
    8ada:	7a 83       	std	Y+2, r23	; 0x02
    8adc:	48 2e       	mov	r4, r24
    8ade:	59 2e       	mov	r5, r25
    8ae0:	0f b6       	in	r0, 0x3f	; 63
    8ae2:	f8 94       	cli
    8ae4:	de bf       	out	0x3e, r29	; 62
    8ae6:	0f be       	out	0x3f, r0	; 63
    8ae8:	cd bf       	out	0x3d, r28	; 61
    8aea:	66 27       	eor	r22, r22
    8aec:	77 27       	eor	r23, r23
    8aee:	60 1b       	sub	r22, r16
    8af0:	71 0b       	sbc	r23, r17
    8af2:	66 19       	sub	r22, r6
    8af4:	77 09       	sbc	r23, r7
    8af6:	88 27       	eor	r24, r24
    8af8:	77 fd       	sbrc	r23, 7
    8afa:	80 95       	com	r24
    8afc:	98 2f       	mov	r25, r24
    8afe:	0e 94 aa 50 	call	0xa154	; 0xa154 <__floatsisf>
    8b02:	5b 01       	movw	r10, r22
    8b04:	6c 01       	movw	r12, r24
    8b06:	5f 92       	push	r5
    8b08:	4f 92       	push	r4
    8b0a:	9a 81       	ldd	r25, Y+2	; 0x02
    8b0c:	9f 93       	push	r25
    8b0e:	e9 81       	ldd	r30, Y+1	; 0x01
    8b10:	ef 93       	push	r30
    8b12:	88 27       	eor	r24, r24
    8b14:	99 27       	eor	r25, r25
    8b16:	8e 19       	sub	r24, r14
    8b18:	9f 09       	sbc	r25, r15
    8b1a:	88 19       	sub	r24, r8
    8b1c:	99 09       	sbc	r25, r9
    8b1e:	bc 01       	movw	r22, r24
    8b20:	88 27       	eor	r24, r24
    8b22:	77 fd       	sbrc	r23, 7
    8b24:	80 95       	com	r24
    8b26:	98 2f       	mov	r25, r24
    8b28:	0e 94 aa 50 	call	0xa154	; 0xa154 <__floatsisf>
    8b2c:	9f 93       	push	r25
    8b2e:	8f 93       	push	r24
    8b30:	7f 93       	push	r23
    8b32:	6f 93       	push	r22
    8b34:	c3 01       	movw	r24, r6
    8b36:	80 1b       	sub	r24, r16
    8b38:	91 0b       	sbc	r25, r17
    8b3a:	bc 01       	movw	r22, r24
    8b3c:	88 27       	eor	r24, r24
    8b3e:	77 fd       	sbrc	r23, 7
    8b40:	80 95       	com	r24
    8b42:	98 2f       	mov	r25, r24
    8b44:	0e 94 aa 50 	call	0xa154	; 0xa154 <__floatsisf>
    8b48:	9f 93       	push	r25
    8b4a:	8f 93       	push	r24
    8b4c:	7f 93       	push	r23
    8b4e:	6f 93       	push	r22
    8b50:	5f 92       	push	r5
    8b52:	4f 92       	push	r4
    8b54:	fa 81       	ldd	r31, Y+2	; 0x02
    8b56:	ff 93       	push	r31
    8b58:	29 81       	ldd	r18, Y+1	; 0x01
    8b5a:	2f 93       	push	r18
    8b5c:	b4 01       	movw	r22, r8
    8b5e:	6e 19       	sub	r22, r14
    8b60:	7f 09       	sbc	r23, r15
    8b62:	88 27       	eor	r24, r24
    8b64:	77 fd       	sbrc	r23, 7
    8b66:	80 95       	com	r24
    8b68:	98 2f       	mov	r25, r24
    8b6a:	0e 94 aa 50 	call	0xa154	; 0xa154 <__floatsisf>
    8b6e:	9f 93       	push	r25
    8b70:	8f 93       	push	r24
    8b72:	7f 93       	push	r23
    8b74:	6f 93       	push	r22
    8b76:	e1 2c       	mov	r14, r1
    8b78:	f1 2c       	mov	r15, r1
    8b7a:	0b 81       	ldd	r16, Y+3	; 0x03
    8b7c:	1c 81       	ldd	r17, Y+4	; 0x04
    8b7e:	20 91 2e 01 	lds	r18, 0x012E
    8b82:	30 91 2f 01 	lds	r19, 0x012F
    8b86:	40 91 30 01 	lds	r20, 0x0130
    8b8a:	50 91 31 01 	lds	r21, 0x0131
    8b8e:	60 91 32 01 	lds	r22, 0x0132
    8b92:	70 91 33 01 	lds	r23, 0x0133
    8b96:	80 91 34 01 	lds	r24, 0x0134
    8b9a:	90 91 35 01 	lds	r25, 0x0135
    8b9e:	0e 94 e6 0f 	call	0x1fcc	; 0x1fcc <CalcStraightPath>
    8ba2:	e0 90 5c 01 	lds	r14, 0x015C
    8ba6:	f0 90 5d 01 	lds	r15, 0x015D
    8baa:	00 91 5e 01 	lds	r16, 0x015E
    8bae:	10 91 5f 01 	lds	r17, 0x015F
    8bb2:	60 91 5a 01 	lds	r22, 0x015A
    8bb6:	70 91 5b 01 	lds	r23, 0x015B
    8bba:	88 27       	eor	r24, r24
    8bbc:	77 fd       	sbrc	r23, 7
    8bbe:	80 95       	com	r24
    8bc0:	98 2f       	mov	r25, r24
    8bc2:	0e 94 aa 50 	call	0xa154	; 0xa154 <__floatsisf>
    8bc6:	69 83       	std	Y+1, r22	; 0x01
    8bc8:	7a 83       	std	Y+2, r23	; 0x02
    8bca:	48 2e       	mov	r4, r24
    8bcc:	59 2e       	mov	r5, r25
    8bce:	b3 01       	movw	r22, r6
    8bd0:	60 1b       	sub	r22, r16
    8bd2:	71 0b       	sbc	r23, r17
    8bd4:	88 27       	eor	r24, r24
    8bd6:	77 fd       	sbrc	r23, 7
    8bd8:	80 95       	com	r24
    8bda:	98 2f       	mov	r25, r24
    8bdc:	0e 94 aa 50 	call	0xa154	; 0xa154 <__floatsisf>
    8be0:	5b 01       	movw	r10, r22
    8be2:	6c 01       	movw	r12, r24
    8be4:	5f 92       	push	r5
    8be6:	4f 92       	push	r4
    8be8:	3a 81       	ldd	r19, Y+2	; 0x02
    8bea:	3f 93       	push	r19
    8bec:	49 81       	ldd	r20, Y+1	; 0x01
    8bee:	4f 93       	push	r20
    8bf0:	c4 01       	movw	r24, r8
    8bf2:	8e 19       	sub	r24, r14
    8bf4:	9f 09       	sbc	r25, r15
    8bf6:	bc 01       	movw	r22, r24
    8bf8:	88 27       	eor	r24, r24
    8bfa:	77 fd       	sbrc	r23, 7
    8bfc:	80 95       	com	r24
    8bfe:	98 2f       	mov	r25, r24
    8c00:	0e 94 aa 50 	call	0xa154	; 0xa154 <__floatsisf>
    8c04:	9f 93       	push	r25
    8c06:	8f 93       	push	r24
    8c08:	7f 93       	push	r23
    8c0a:	6f 93       	push	r22
    8c0c:	11 95       	neg	r17
    8c0e:	01 95       	neg	r16
    8c10:	11 09       	sbc	r17, r1
    8c12:	b8 01       	movw	r22, r16
    8c14:	66 19       	sub	r22, r6
    8c16:	77 09       	sbc	r23, r7
    8c18:	88 27       	eor	r24, r24
    8c1a:	77 fd       	sbrc	r23, 7
    8c1c:	80 95       	com	r24
    8c1e:	98 2f       	mov	r25, r24
    8c20:	0e 94 aa 50 	call	0xa154	; 0xa154 <__floatsisf>
    8c24:	9f 93       	push	r25
    8c26:	8f 93       	push	r24
    8c28:	7f 93       	push	r23
    8c2a:	6f 93       	push	r22
    8c2c:	5f 92       	push	r5
    8c2e:	4f 92       	push	r4
    8c30:	5a 81       	ldd	r21, Y+2	; 0x02
    8c32:	5f 93       	push	r21
    8c34:	89 81       	ldd	r24, Y+1	; 0x01
    8c36:	8f 93       	push	r24
    8c38:	66 27       	eor	r22, r22
    8c3a:	77 27       	eor	r23, r23
    8c3c:	6e 19       	sub	r22, r14
    8c3e:	7f 09       	sbc	r23, r15
    8c40:	68 19       	sub	r22, r8
    8c42:	79 09       	sbc	r23, r9
    8c44:	88 27       	eor	r24, r24
    8c46:	77 fd       	sbrc	r23, 7
    8c48:	80 95       	com	r24
    8c4a:	98 2f       	mov	r25, r24
    8c4c:	0e 94 aa 50 	call	0xa154	; 0xa154 <__floatsisf>
    8c50:	9f 93       	push	r25
    8c52:	8f 93       	push	r24
    8c54:	7f 93       	push	r23
    8c56:	6f 93       	push	r22
    8c58:	eb 80       	ldd	r14, Y+3	; 0x03
    8c5a:	fc 80       	ldd	r15, Y+4	; 0x04
    8c5c:	87 01       	movw	r16, r14
    8c5e:	20 91 2e 01 	lds	r18, 0x012E
    8c62:	30 91 2f 01 	lds	r19, 0x012F
    8c66:	40 91 30 01 	lds	r20, 0x0130
    8c6a:	50 91 31 01 	lds	r21, 0x0131
    8c6e:	60 91 32 01 	lds	r22, 0x0132
    8c72:	70 91 33 01 	lds	r23, 0x0133
    8c76:	80 91 34 01 	lds	r24, 0x0134
    8c7a:	90 91 35 01 	lds	r25, 0x0135
    8c7e:	0e 94 6b 13 	call	0x26d6	; 0x26d6 <CalcCurvedPath>
    8c82:	e0 90 5c 01 	lds	r14, 0x015C
    8c86:	f0 90 5d 01 	lds	r15, 0x015D
    8c8a:	00 91 5e 01 	lds	r16, 0x015E
    8c8e:	10 91 5f 01 	lds	r17, 0x015F
    8c92:	60 91 5a 01 	lds	r22, 0x015A
    8c96:	70 91 5b 01 	lds	r23, 0x015B
    8c9a:	88 27       	eor	r24, r24
    8c9c:	77 fd       	sbrc	r23, 7
    8c9e:	80 95       	com	r24
    8ca0:	98 2f       	mov	r25, r24
    8ca2:	0e 94 aa 50 	call	0xa154	; 0xa154 <__floatsisf>
    8ca6:	46 2e       	mov	r4, r22
    8ca8:	57 2e       	mov	r5, r23
    8caa:	78 2e       	mov	r7, r24
    8cac:	69 2e       	mov	r6, r25
    8cae:	0f b6       	in	r0, 0x3f	; 63
    8cb0:	f8 94       	cli
    8cb2:	de bf       	out	0x3e, r29	; 62
    8cb4:	0f be       	out	0x3f, r0	; 63
    8cb6:	cd bf       	out	0x3d, r28	; 61
    8cb8:	b8 01       	movw	r22, r16
    8cba:	62 19       	sub	r22, r2
    8cbc:	73 09       	sbc	r23, r3
    8cbe:	88 27       	eor	r24, r24
    8cc0:	77 fd       	sbrc	r23, 7
    8cc2:	80 95       	com	r24
    8cc4:	98 2f       	mov	r25, r24
    8cc6:	0e 94 aa 50 	call	0xa154	; 0xa154 <__floatsisf>
    8cca:	5b 01       	movw	r10, r22
    8ccc:	6c 01       	movw	r12, r24
    8cce:	6f 92       	push	r6
    8cd0:	7f 92       	push	r7
    8cd2:	5f 92       	push	r5
    8cd4:	4f 92       	push	r4
    8cd6:	97 01       	movw	r18, r14
    8cd8:	28 19       	sub	r18, r8
    8cda:	39 09       	sbc	r19, r9
    8cdc:	b9 01       	movw	r22, r18
    8cde:	88 27       	eor	r24, r24
    8ce0:	77 fd       	sbrc	r23, 7
    8ce2:	80 95       	com	r24
    8ce4:	98 2f       	mov	r25, r24
    8ce6:	0e 94 aa 50 	call	0xa154	; 0xa154 <__floatsisf>
    8cea:	9f 93       	push	r25
    8cec:	8f 93       	push	r24
    8cee:	7f 93       	push	r23
    8cf0:	6f 93       	push	r22
    8cf2:	b1 01       	movw	r22, r2
    8cf4:	60 0f       	add	r22, r16
    8cf6:	71 1f       	adc	r23, r17
    8cf8:	88 27       	eor	r24, r24
    8cfa:	77 fd       	sbrc	r23, 7
    8cfc:	80 95       	com	r24
    8cfe:	98 2f       	mov	r25, r24
    8d00:	0e 94 aa 50 	call	0xa154	; 0xa154 <__floatsisf>
    8d04:	9f 93       	push	r25
    8d06:	8f 93       	push	r24
    8d08:	7f 93       	push	r23
    8d0a:	6f 93       	push	r22
    8d0c:	6f 92       	push	r6
    8d0e:	7f 92       	push	r7
    8d10:	5f 92       	push	r5
    8d12:	4f 92       	push	r4
    8d14:	b4 01       	movw	r22, r8
    8d16:	6e 0d       	add	r22, r14
    8d18:	7f 1d       	adc	r23, r15
    8d1a:	88 27       	eor	r24, r24
    8d1c:	77 fd       	sbrc	r23, 7
    8d1e:	80 95       	com	r24
    8d20:	98 2f       	mov	r25, r24
    8d22:	0e 94 aa 50 	call	0xa154	; 0xa154 <__floatsisf>
    8d26:	9f 93       	push	r25
    8d28:	8f 93       	push	r24
    8d2a:	7f 93       	push	r23
    8d2c:	6f 93       	push	r22
    8d2e:	e1 2c       	mov	r14, r1
    8d30:	f1 2c       	mov	r15, r1
    8d32:	0b 81       	ldd	r16, Y+3	; 0x03
    8d34:	1c 81       	ldd	r17, Y+4	; 0x04
    8d36:	20 91 36 01 	lds	r18, 0x0136
    8d3a:	30 91 37 01 	lds	r19, 0x0137
    8d3e:	40 91 38 01 	lds	r20, 0x0138
    8d42:	50 91 39 01 	lds	r21, 0x0139
    8d46:	60 91 3a 01 	lds	r22, 0x013A
    8d4a:	70 91 3b 01 	lds	r23, 0x013B
    8d4e:	80 91 3c 01 	lds	r24, 0x013C
    8d52:	90 91 3d 01 	lds	r25, 0x013D
    8d56:	0e 94 e6 0f 	call	0x1fcc	; 0x1fcc <CalcStraightPath>
    8d5a:	e0 90 5c 01 	lds	r14, 0x015C
    8d5e:	f0 90 5d 01 	lds	r15, 0x015D
    8d62:	00 91 5e 01 	lds	r16, 0x015E
    8d66:	10 91 5f 01 	lds	r17, 0x015F
    8d6a:	60 91 5a 01 	lds	r22, 0x015A
    8d6e:	70 91 5b 01 	lds	r23, 0x015B
    8d72:	88 27       	eor	r24, r24
    8d74:	77 fd       	sbrc	r23, 7
    8d76:	80 95       	com	r24
    8d78:	98 2f       	mov	r25, r24
    8d7a:	0e 94 aa 50 	call	0xa154	; 0xa154 <__floatsisf>
    8d7e:	46 2e       	mov	r4, r22
    8d80:	57 2e       	mov	r5, r23
    8d82:	78 2e       	mov	r7, r24
    8d84:	69 2e       	mov	r6, r25
    8d86:	b1 01       	movw	r22, r2
    8d88:	60 0f       	add	r22, r16
    8d8a:	71 1f       	adc	r23, r17
    8d8c:	88 27       	eor	r24, r24
    8d8e:	77 fd       	sbrc	r23, 7
    8d90:	80 95       	com	r24
    8d92:	98 2f       	mov	r25, r24
    8d94:	0e 94 aa 50 	call	0xa154	; 0xa154 <__floatsisf>
    8d98:	5b 01       	movw	r10, r22
    8d9a:	6c 01       	movw	r12, r24
    8d9c:	6f 92       	push	r6
    8d9e:	7f 92       	push	r7
    8da0:	5f 92       	push	r5
    8da2:	4f 92       	push	r4
    8da4:	94 01       	movw	r18, r8
    8da6:	2e 0d       	add	r18, r14
    8da8:	3f 1d       	adc	r19, r15
    8daa:	b9 01       	movw	r22, r18
    8dac:	88 27       	eor	r24, r24
    8dae:	77 fd       	sbrc	r23, 7
    8db0:	80 95       	com	r24
    8db2:	98 2f       	mov	r25, r24
    8db4:	0e 94 aa 50 	call	0xa154	; 0xa154 <__floatsisf>
    8db8:	9f 93       	push	r25
    8dba:	8f 93       	push	r24
    8dbc:	7f 93       	push	r23
    8dbe:	6f 93       	push	r22
    8dc0:	b8 01       	movw	r22, r16
    8dc2:	62 19       	sub	r22, r2
    8dc4:	73 09       	sbc	r23, r3
    8dc6:	88 27       	eor	r24, r24
    8dc8:	77 fd       	sbrc	r23, 7
    8dca:	80 95       	com	r24
    8dcc:	98 2f       	mov	r25, r24
    8dce:	0e 94 aa 50 	call	0xa154	; 0xa154 <__floatsisf>
    8dd2:	9f 93       	push	r25
    8dd4:	8f 93       	push	r24
    8dd6:	7f 93       	push	r23
    8dd8:	6f 93       	push	r22
    8dda:	6f 92       	push	r6
    8ddc:	7f 92       	push	r7
    8dde:	5f 92       	push	r5
    8de0:	4f 92       	push	r4
    8de2:	b7 01       	movw	r22, r14
    8de4:	68 19       	sub	r22, r8
    8de6:	79 09       	sbc	r23, r9
    8de8:	88 27       	eor	r24, r24
    8dea:	77 fd       	sbrc	r23, 7
    8dec:	80 95       	com	r24
    8dee:	98 2f       	mov	r25, r24
    8df0:	0e 94 aa 50 	call	0xa154	; 0xa154 <__floatsisf>
    8df4:	9f 93       	push	r25
    8df6:	8f 93       	push	r24
    8df8:	7f 93       	push	r23
    8dfa:	6f 93       	push	r22
    8dfc:	eb 80       	ldd	r14, Y+3	; 0x03
    8dfe:	fc 80       	ldd	r15, Y+4	; 0x04
    8e00:	87 01       	movw	r16, r14
    8e02:	20 91 36 01 	lds	r18, 0x0136
    8e06:	30 91 37 01 	lds	r19, 0x0137
    8e0a:	40 91 38 01 	lds	r20, 0x0138
    8e0e:	50 91 39 01 	lds	r21, 0x0139
    8e12:	60 91 3a 01 	lds	r22, 0x013A
    8e16:	70 91 3b 01 	lds	r23, 0x013B
    8e1a:	80 91 3c 01 	lds	r24, 0x013C
    8e1e:	90 91 3d 01 	lds	r25, 0x013D
    8e22:	0e 94 6b 13 	call	0x26d6	; 0x26d6 <CalcCurvedPath>
    8e26:	0f b6       	in	r0, 0x3f	; 63
    8e28:	f8 94       	cli
    8e2a:	de bf       	out	0x3e, r29	; 62
    8e2c:	0f be       	out	0x3f, r0	; 63
    8e2e:	cd bf       	out	0x3d, r28	; 61
    8e30:	27 c3       	rjmp	.+1614   	; 0x9480 <MakeTrotGait+0x23a4>
    8e32:	39 01       	movw	r6, r18
    8e34:	33 23       	and	r19, r19
    8e36:	1c f4       	brge	.+6      	; 0x8e3e <MakeTrotGait+0x1d62>
    8e38:	4f ef       	ldi	r20, 0xFF	; 255
    8e3a:	64 1a       	sub	r6, r20
    8e3c:	74 0a       	sbc	r7, r20
    8e3e:	75 94       	asr	r7
    8e40:	67 94       	ror	r6
    8e42:	00 91 5c 01 	lds	r16, 0x015C
    8e46:	10 91 5d 01 	lds	r17, 0x015D
    8e4a:	60 91 5a 01 	lds	r22, 0x015A
    8e4e:	70 91 5b 01 	lds	r23, 0x015B
    8e52:	88 27       	eor	r24, r24
    8e54:	77 fd       	sbrc	r23, 7
    8e56:	80 95       	com	r24
    8e58:	98 2f       	mov	r25, r24
    8e5a:	0e 94 aa 50 	call	0xa154	; 0xa154 <__floatsisf>
    8e5e:	b6 2e       	mov	r11, r22
    8e60:	a7 2e       	mov	r10, r23
    8e62:	58 2e       	mov	r5, r24
    8e64:	49 2e       	mov	r4, r25
    8e66:	60 91 5e 01 	lds	r22, 0x015E
    8e6a:	70 91 5f 01 	lds	r23, 0x015F
    8e6e:	71 95       	neg	r23
    8e70:	61 95       	neg	r22
    8e72:	71 09       	sbc	r23, r1
    8e74:	88 27       	eor	r24, r24
    8e76:	77 fd       	sbrc	r23, 7
    8e78:	80 95       	com	r24
    8e7a:	98 2f       	mov	r25, r24
    8e7c:	0e 94 aa 50 	call	0xa154	; 0xa154 <__floatsisf>
    8e80:	c6 2e       	mov	r12, r22
    8e82:	d7 2e       	mov	r13, r23
    8e84:	e8 2e       	mov	r14, r24
    8e86:	f9 2e       	mov	r15, r25
    8e88:	4f 92       	push	r4
    8e8a:	5f 92       	push	r5
    8e8c:	af 92       	push	r10
    8e8e:	bf 92       	push	r11
    8e90:	b3 01       	movw	r22, r6
    8e92:	60 0f       	add	r22, r16
    8e94:	71 1f       	adc	r23, r17
    8e96:	88 27       	eor	r24, r24
    8e98:	77 fd       	sbrc	r23, 7
    8e9a:	80 95       	com	r24
    8e9c:	98 2f       	mov	r25, r24
    8e9e:	0e 94 aa 50 	call	0xa154	; 0xa154 <__floatsisf>
    8ea2:	9f 93       	push	r25
    8ea4:	8f 93       	push	r24
    8ea6:	7f 93       	push	r23
    8ea8:	6f 93       	push	r22
    8eaa:	ff 92       	push	r15
    8eac:	ef 92       	push	r14
    8eae:	df 92       	push	r13
    8eb0:	cf 92       	push	r12
    8eb2:	4f 92       	push	r4
    8eb4:	5f 92       	push	r5
    8eb6:	af 92       	push	r10
    8eb8:	bf 92       	push	r11
    8eba:	b8 01       	movw	r22, r16
    8ebc:	66 19       	sub	r22, r6
    8ebe:	77 09       	sbc	r23, r7
    8ec0:	88 27       	eor	r24, r24
    8ec2:	77 fd       	sbrc	r23, 7
    8ec4:	80 95       	com	r24
    8ec6:	98 2f       	mov	r25, r24
    8ec8:	0e 94 aa 50 	call	0xa154	; 0xa154 <__floatsisf>
    8ecc:	9f 93       	push	r25
    8ece:	8f 93       	push	r24
    8ed0:	7f 93       	push	r23
    8ed2:	6f 93       	push	r22
    8ed4:	ac 2c       	mov	r10, r12
    8ed6:	bd 2c       	mov	r11, r13
    8ed8:	ce 2c       	mov	r12, r14
    8eda:	df 2c       	mov	r13, r15
    8edc:	e1 2c       	mov	r14, r1
    8ede:	f1 2c       	mov	r15, r1
    8ee0:	0b 81       	ldd	r16, Y+3	; 0x03
    8ee2:	1c 81       	ldd	r17, Y+4	; 0x04
    8ee4:	20 91 3e 01 	lds	r18, 0x013E
    8ee8:	30 91 3f 01 	lds	r19, 0x013F
    8eec:	40 91 40 01 	lds	r20, 0x0140
    8ef0:	50 91 41 01 	lds	r21, 0x0141
    8ef4:	60 91 42 01 	lds	r22, 0x0142
    8ef8:	70 91 43 01 	lds	r23, 0x0143
    8efc:	80 91 44 01 	lds	r24, 0x0144
    8f00:	90 91 45 01 	lds	r25, 0x0145
    8f04:	0e 94 6b 13 	call	0x26d6	; 0x26d6 <CalcCurvedPath>
    8f08:	00 91 5c 01 	lds	r16, 0x015C
    8f0c:	10 91 5d 01 	lds	r17, 0x015D
    8f10:	60 91 5a 01 	lds	r22, 0x015A
    8f14:	70 91 5b 01 	lds	r23, 0x015B
    8f18:	88 27       	eor	r24, r24
    8f1a:	77 fd       	sbrc	r23, 7
    8f1c:	80 95       	com	r24
    8f1e:	98 2f       	mov	r25, r24
    8f20:	0e 94 aa 50 	call	0xa154	; 0xa154 <__floatsisf>
    8f24:	b6 2e       	mov	r11, r22
    8f26:	a7 2e       	mov	r10, r23
    8f28:	58 2e       	mov	r5, r24
    8f2a:	49 2e       	mov	r4, r25
    8f2c:	60 91 5e 01 	lds	r22, 0x015E
    8f30:	70 91 5f 01 	lds	r23, 0x015F
    8f34:	71 95       	neg	r23
    8f36:	61 95       	neg	r22
    8f38:	71 09       	sbc	r23, r1
    8f3a:	88 27       	eor	r24, r24
    8f3c:	77 fd       	sbrc	r23, 7
    8f3e:	80 95       	com	r24
    8f40:	98 2f       	mov	r25, r24
    8f42:	0e 94 aa 50 	call	0xa154	; 0xa154 <__floatsisf>
    8f46:	c6 2e       	mov	r12, r22
    8f48:	d7 2e       	mov	r13, r23
    8f4a:	e8 2e       	mov	r14, r24
    8f4c:	f9 2e       	mov	r15, r25
    8f4e:	4f 92       	push	r4
    8f50:	5f 92       	push	r5
    8f52:	af 92       	push	r10
    8f54:	bf 92       	push	r11
    8f56:	b8 01       	movw	r22, r16
    8f58:	66 19       	sub	r22, r6
    8f5a:	77 09       	sbc	r23, r7
    8f5c:	88 27       	eor	r24, r24
    8f5e:	77 fd       	sbrc	r23, 7
    8f60:	80 95       	com	r24
    8f62:	98 2f       	mov	r25, r24
    8f64:	0e 94 aa 50 	call	0xa154	; 0xa154 <__floatsisf>
    8f68:	9f 93       	push	r25
    8f6a:	8f 93       	push	r24
    8f6c:	7f 93       	push	r23
    8f6e:	6f 93       	push	r22
    8f70:	ff 92       	push	r15
    8f72:	ef 92       	push	r14
    8f74:	df 92       	push	r13
    8f76:	cf 92       	push	r12
    8f78:	4f 92       	push	r4
    8f7a:	5f 92       	push	r5
    8f7c:	af 92       	push	r10
    8f7e:	bf 92       	push	r11
    8f80:	b3 01       	movw	r22, r6
    8f82:	60 0f       	add	r22, r16
    8f84:	71 1f       	adc	r23, r17
    8f86:	88 27       	eor	r24, r24
    8f88:	77 fd       	sbrc	r23, 7
    8f8a:	80 95       	com	r24
    8f8c:	98 2f       	mov	r25, r24
    8f8e:	0e 94 aa 50 	call	0xa154	; 0xa154 <__floatsisf>
    8f92:	9f 93       	push	r25
    8f94:	8f 93       	push	r24
    8f96:	7f 93       	push	r23
    8f98:	6f 93       	push	r22
    8f9a:	ac 2c       	mov	r10, r12
    8f9c:	bd 2c       	mov	r11, r13
    8f9e:	ce 2c       	mov	r12, r14
    8fa0:	df 2c       	mov	r13, r15
    8fa2:	eb 80       	ldd	r14, Y+3	; 0x03
    8fa4:	fc 80       	ldd	r15, Y+4	; 0x04
    8fa6:	87 01       	movw	r16, r14
    8fa8:	20 91 3e 01 	lds	r18, 0x013E
    8fac:	30 91 3f 01 	lds	r19, 0x013F
    8fb0:	40 91 40 01 	lds	r20, 0x0140
    8fb4:	50 91 41 01 	lds	r21, 0x0141
    8fb8:	60 91 42 01 	lds	r22, 0x0142
    8fbc:	70 91 43 01 	lds	r23, 0x0143
    8fc0:	80 91 44 01 	lds	r24, 0x0144
    8fc4:	90 91 45 01 	lds	r25, 0x0145
    8fc8:	0e 94 e6 0f 	call	0x1fcc	; 0x1fcc <CalcStraightPath>
    8fcc:	c4 01       	movw	r24, r8
    8fce:	0f b6       	in	r0, 0x3f	; 63
    8fd0:	f8 94       	cli
    8fd2:	de bf       	out	0x3e, r29	; 62
    8fd4:	0f be       	out	0x3f, r0	; 63
    8fd6:	cd bf       	out	0x3d, r28	; 61
    8fd8:	99 23       	and	r25, r25
    8fda:	0c f4       	brge	.+2      	; 0x8fde <MakeTrotGait+0x1f02>
    8fdc:	01 96       	adiw	r24, 0x01	; 1
    8fde:	4c 01       	movw	r8, r24
    8fe0:	95 94       	asr	r9
    8fe2:	87 94       	ror	r8
    8fe4:	00 91 5c 01 	lds	r16, 0x015C
    8fe8:	10 91 5d 01 	lds	r17, 0x015D
    8fec:	60 91 5a 01 	lds	r22, 0x015A
    8ff0:	70 91 5b 01 	lds	r23, 0x015B
    8ff4:	88 27       	eor	r24, r24
    8ff6:	77 fd       	sbrc	r23, 7
    8ff8:	80 95       	com	r24
    8ffa:	98 2f       	mov	r25, r24
    8ffc:	0e 94 aa 50 	call	0xa154	; 0xa154 <__floatsisf>
    9000:	b6 2e       	mov	r11, r22
    9002:	a7 2e       	mov	r10, r23
    9004:	58 2e       	mov	r5, r24
    9006:	49 2e       	mov	r4, r25
    9008:	60 91 5e 01 	lds	r22, 0x015E
    900c:	70 91 5f 01 	lds	r23, 0x015F
    9010:	88 27       	eor	r24, r24
    9012:	77 fd       	sbrc	r23, 7
    9014:	80 95       	com	r24
    9016:	98 2f       	mov	r25, r24
    9018:	0e 94 aa 50 	call	0xa154	; 0xa154 <__floatsisf>
    901c:	c6 2e       	mov	r12, r22
    901e:	d7 2e       	mov	r13, r23
    9020:	e8 2e       	mov	r14, r24
    9022:	f9 2e       	mov	r15, r25
    9024:	4f 92       	push	r4
    9026:	5f 92       	push	r5
    9028:	af 92       	push	r10
    902a:	bf 92       	push	r11
    902c:	b4 01       	movw	r22, r8
    902e:	60 1b       	sub	r22, r16
    9030:	71 0b       	sbc	r23, r17
    9032:	88 27       	eor	r24, r24
    9034:	77 fd       	sbrc	r23, 7
    9036:	80 95       	com	r24
    9038:	98 2f       	mov	r25, r24
    903a:	0e 94 aa 50 	call	0xa154	; 0xa154 <__floatsisf>
    903e:	9f 93       	push	r25
    9040:	8f 93       	push	r24
    9042:	7f 93       	push	r23
    9044:	6f 93       	push	r22
    9046:	ff 92       	push	r15
    9048:	ef 92       	push	r14
    904a:	df 92       	push	r13
    904c:	cf 92       	push	r12
    904e:	4f 92       	push	r4
    9050:	5f 92       	push	r5
    9052:	af 92       	push	r10
    9054:	bf 92       	push	r11
    9056:	66 27       	eor	r22, r22
    9058:	77 27       	eor	r23, r23
    905a:	60 1b       	sub	r22, r16
    905c:	71 0b       	sbc	r23, r17
    905e:	68 19       	sub	r22, r8
    9060:	79 09       	sbc	r23, r9
    9062:	88 27       	eor	r24, r24
    9064:	77 fd       	sbrc	r23, 7
    9066:	80 95       	com	r24
    9068:	98 2f       	mov	r25, r24
    906a:	0e 94 aa 50 	call	0xa154	; 0xa154 <__floatsisf>
    906e:	9f 93       	push	r25
    9070:	8f 93       	push	r24
    9072:	7f 93       	push	r23
    9074:	6f 93       	push	r22
    9076:	ac 2c       	mov	r10, r12
    9078:	bd 2c       	mov	r11, r13
    907a:	ce 2c       	mov	r12, r14
    907c:	df 2c       	mov	r13, r15
    907e:	e1 2c       	mov	r14, r1
    9080:	f1 2c       	mov	r15, r1
    9082:	0b 81       	ldd	r16, Y+3	; 0x03
    9084:	1c 81       	ldd	r17, Y+4	; 0x04
    9086:	20 91 26 01 	lds	r18, 0x0126
    908a:	30 91 27 01 	lds	r19, 0x0127
    908e:	40 91 28 01 	lds	r20, 0x0128
    9092:	50 91 29 01 	lds	r21, 0x0129
    9096:	60 91 2a 01 	lds	r22, 0x012A
    909a:	70 91 2b 01 	lds	r23, 0x012B
    909e:	80 91 2c 01 	lds	r24, 0x012C
    90a2:	90 91 2d 01 	lds	r25, 0x012D
    90a6:	0e 94 6b 13 	call	0x26d6	; 0x26d6 <CalcCurvedPath>
    90aa:	00 91 5c 01 	lds	r16, 0x015C
    90ae:	10 91 5d 01 	lds	r17, 0x015D
    90b2:	60 91 5a 01 	lds	r22, 0x015A
    90b6:	70 91 5b 01 	lds	r23, 0x015B
    90ba:	88 27       	eor	r24, r24
    90bc:	77 fd       	sbrc	r23, 7
    90be:	80 95       	com	r24
    90c0:	98 2f       	mov	r25, r24
    90c2:	0e 94 aa 50 	call	0xa154	; 0xa154 <__floatsisf>
    90c6:	b6 2e       	mov	r11, r22
    90c8:	a7 2e       	mov	r10, r23
    90ca:	58 2e       	mov	r5, r24
    90cc:	49 2e       	mov	r4, r25
    90ce:	60 91 5e 01 	lds	r22, 0x015E
    90d2:	70 91 5f 01 	lds	r23, 0x015F
    90d6:	88 27       	eor	r24, r24
    90d8:	77 fd       	sbrc	r23, 7
    90da:	80 95       	com	r24
    90dc:	98 2f       	mov	r25, r24
    90de:	0e 94 aa 50 	call	0xa154	; 0xa154 <__floatsisf>
    90e2:	c6 2e       	mov	r12, r22
    90e4:	d7 2e       	mov	r13, r23
    90e6:	e8 2e       	mov	r14, r24
    90e8:	f9 2e       	mov	r15, r25
    90ea:	4f 92       	push	r4
    90ec:	5f 92       	push	r5
    90ee:	af 92       	push	r10
    90f0:	bf 92       	push	r11
    90f2:	66 27       	eor	r22, r22
    90f4:	77 27       	eor	r23, r23
    90f6:	60 1b       	sub	r22, r16
    90f8:	71 0b       	sbc	r23, r17
    90fa:	68 19       	sub	r22, r8
    90fc:	79 09       	sbc	r23, r9
    90fe:	88 27       	eor	r24, r24
    9100:	77 fd       	sbrc	r23, 7
    9102:	80 95       	com	r24
    9104:	98 2f       	mov	r25, r24
    9106:	0e 94 aa 50 	call	0xa154	; 0xa154 <__floatsisf>
    910a:	9f 93       	push	r25
    910c:	8f 93       	push	r24
    910e:	7f 93       	push	r23
    9110:	6f 93       	push	r22
    9112:	ff 92       	push	r15
    9114:	ef 92       	push	r14
    9116:	df 92       	push	r13
    9118:	cf 92       	push	r12
    911a:	4f 92       	push	r4
    911c:	5f 92       	push	r5
    911e:	af 92       	push	r10
    9120:	bf 92       	push	r11
    9122:	b4 01       	movw	r22, r8
    9124:	60 1b       	sub	r22, r16
    9126:	71 0b       	sbc	r23, r17
    9128:	88 27       	eor	r24, r24
    912a:	77 fd       	sbrc	r23, 7
    912c:	80 95       	com	r24
    912e:	98 2f       	mov	r25, r24
    9130:	0e 94 aa 50 	call	0xa154	; 0xa154 <__floatsisf>
    9134:	9f 93       	push	r25
    9136:	8f 93       	push	r24
    9138:	7f 93       	push	r23
    913a:	6f 93       	push	r22
    913c:	ac 2c       	mov	r10, r12
    913e:	bd 2c       	mov	r11, r13
    9140:	ce 2c       	mov	r12, r14
    9142:	df 2c       	mov	r13, r15
    9144:	eb 80       	ldd	r14, Y+3	; 0x03
    9146:	fc 80       	ldd	r15, Y+4	; 0x04
    9148:	87 01       	movw	r16, r14
    914a:	20 91 26 01 	lds	r18, 0x0126
    914e:	30 91 27 01 	lds	r19, 0x0127
    9152:	40 91 28 01 	lds	r20, 0x0128
    9156:	50 91 29 01 	lds	r21, 0x0129
    915a:	60 91 2a 01 	lds	r22, 0x012A
    915e:	70 91 2b 01 	lds	r23, 0x012B
    9162:	80 91 2c 01 	lds	r24, 0x012C
    9166:	90 91 2d 01 	lds	r25, 0x012D
    916a:	0e 94 e6 0f 	call	0x1fcc	; 0x1fcc <CalcStraightPath>
    916e:	00 91 5c 01 	lds	r16, 0x015C
    9172:	10 91 5d 01 	lds	r17, 0x015D
    9176:	60 91 5a 01 	lds	r22, 0x015A
    917a:	70 91 5b 01 	lds	r23, 0x015B
    917e:	88 27       	eor	r24, r24
    9180:	77 fd       	sbrc	r23, 7
    9182:	80 95       	com	r24
    9184:	98 2f       	mov	r25, r24
    9186:	e6 d7       	rcall	.+4044   	; 0xa154 <__floatsisf>
    9188:	b6 2e       	mov	r11, r22
    918a:	a7 2e       	mov	r10, r23
    918c:	58 2e       	mov	r5, r24
    918e:	49 2e       	mov	r4, r25
    9190:	60 91 5e 01 	lds	r22, 0x015E
    9194:	70 91 5f 01 	lds	r23, 0x015F
    9198:	71 95       	neg	r23
    919a:	61 95       	neg	r22
    919c:	71 09       	sbc	r23, r1
    919e:	88 27       	eor	r24, r24
    91a0:	77 fd       	sbrc	r23, 7
    91a2:	80 95       	com	r24
    91a4:	98 2f       	mov	r25, r24
    91a6:	d6 d7       	rcall	.+4012   	; 0xa154 <__floatsisf>
    91a8:	c6 2e       	mov	r12, r22
    91aa:	d7 2e       	mov	r13, r23
    91ac:	e8 2e       	mov	r14, r24
    91ae:	f9 2e       	mov	r15, r25
    91b0:	0f b6       	in	r0, 0x3f	; 63
    91b2:	f8 94       	cli
    91b4:	de bf       	out	0x3e, r29	; 62
    91b6:	0f be       	out	0x3f, r0	; 63
    91b8:	cd bf       	out	0x3d, r28	; 61
    91ba:	4f 92       	push	r4
    91bc:	5f 92       	push	r5
    91be:	af 92       	push	r10
    91c0:	bf 92       	push	r11
    91c2:	66 27       	eor	r22, r22
    91c4:	77 27       	eor	r23, r23
    91c6:	60 1b       	sub	r22, r16
    91c8:	71 0b       	sbc	r23, r17
    91ca:	66 19       	sub	r22, r6
    91cc:	77 09       	sbc	r23, r7
    91ce:	88 27       	eor	r24, r24
    91d0:	77 fd       	sbrc	r23, 7
    91d2:	80 95       	com	r24
    91d4:	98 2f       	mov	r25, r24
    91d6:	be d7       	rcall	.+3964   	; 0xa154 <__floatsisf>
    91d8:	9f 93       	push	r25
    91da:	8f 93       	push	r24
    91dc:	7f 93       	push	r23
    91de:	6f 93       	push	r22
    91e0:	ff 92       	push	r15
    91e2:	ef 92       	push	r14
    91e4:	df 92       	push	r13
    91e6:	cf 92       	push	r12
    91e8:	4f 92       	push	r4
    91ea:	5f 92       	push	r5
    91ec:	af 92       	push	r10
    91ee:	bf 92       	push	r11
    91f0:	b3 01       	movw	r22, r6
    91f2:	60 1b       	sub	r22, r16
    91f4:	71 0b       	sbc	r23, r17
    91f6:	88 27       	eor	r24, r24
    91f8:	77 fd       	sbrc	r23, 7
    91fa:	80 95       	com	r24
    91fc:	98 2f       	mov	r25, r24
    91fe:	aa d7       	rcall	.+3924   	; 0xa154 <__floatsisf>
    9200:	9f 93       	push	r25
    9202:	8f 93       	push	r24
    9204:	7f 93       	push	r23
    9206:	6f 93       	push	r22
    9208:	ac 2c       	mov	r10, r12
    920a:	bd 2c       	mov	r11, r13
    920c:	ce 2c       	mov	r12, r14
    920e:	df 2c       	mov	r13, r15
    9210:	e1 2c       	mov	r14, r1
    9212:	f1 2c       	mov	r15, r1
    9214:	0b 81       	ldd	r16, Y+3	; 0x03
    9216:	1c 81       	ldd	r17, Y+4	; 0x04
    9218:	20 91 2e 01 	lds	r18, 0x012E
    921c:	30 91 2f 01 	lds	r19, 0x012F
    9220:	40 91 30 01 	lds	r20, 0x0130
    9224:	50 91 31 01 	lds	r21, 0x0131
    9228:	60 91 32 01 	lds	r22, 0x0132
    922c:	70 91 33 01 	lds	r23, 0x0133
    9230:	80 91 34 01 	lds	r24, 0x0134
    9234:	90 91 35 01 	lds	r25, 0x0135
    9238:	0e 94 e6 0f 	call	0x1fcc	; 0x1fcc <CalcStraightPath>
    923c:	00 91 5c 01 	lds	r16, 0x015C
    9240:	10 91 5d 01 	lds	r17, 0x015D
    9244:	60 91 5a 01 	lds	r22, 0x015A
    9248:	70 91 5b 01 	lds	r23, 0x015B
    924c:	88 27       	eor	r24, r24
    924e:	77 fd       	sbrc	r23, 7
    9250:	80 95       	com	r24
    9252:	98 2f       	mov	r25, r24
    9254:	7f d7       	rcall	.+3838   	; 0xa154 <__floatsisf>
    9256:	b6 2e       	mov	r11, r22
    9258:	a7 2e       	mov	r10, r23
    925a:	58 2e       	mov	r5, r24
    925c:	49 2e       	mov	r4, r25
    925e:	60 91 5e 01 	lds	r22, 0x015E
    9262:	70 91 5f 01 	lds	r23, 0x015F
    9266:	71 95       	neg	r23
    9268:	61 95       	neg	r22
    926a:	71 09       	sbc	r23, r1
    926c:	88 27       	eor	r24, r24
    926e:	77 fd       	sbrc	r23, 7
    9270:	80 95       	com	r24
    9272:	98 2f       	mov	r25, r24
    9274:	6f d7       	rcall	.+3806   	; 0xa154 <__floatsisf>
    9276:	c6 2e       	mov	r12, r22
    9278:	d7 2e       	mov	r13, r23
    927a:	e8 2e       	mov	r14, r24
    927c:	f9 2e       	mov	r15, r25
    927e:	4f 92       	push	r4
    9280:	5f 92       	push	r5
    9282:	af 92       	push	r10
    9284:	bf 92       	push	r11
    9286:	b3 01       	movw	r22, r6
    9288:	60 1b       	sub	r22, r16
    928a:	71 0b       	sbc	r23, r17
    928c:	88 27       	eor	r24, r24
    928e:	77 fd       	sbrc	r23, 7
    9290:	80 95       	com	r24
    9292:	98 2f       	mov	r25, r24
    9294:	5f d7       	rcall	.+3774   	; 0xa154 <__floatsisf>
    9296:	9f 93       	push	r25
    9298:	8f 93       	push	r24
    929a:	7f 93       	push	r23
    929c:	6f 93       	push	r22
    929e:	ff 92       	push	r15
    92a0:	ef 92       	push	r14
    92a2:	df 92       	push	r13
    92a4:	cf 92       	push	r12
    92a6:	4f 92       	push	r4
    92a8:	5f 92       	push	r5
    92aa:	af 92       	push	r10
    92ac:	bf 92       	push	r11
    92ae:	66 27       	eor	r22, r22
    92b0:	77 27       	eor	r23, r23
    92b2:	60 1b       	sub	r22, r16
    92b4:	71 0b       	sbc	r23, r17
    92b6:	66 19       	sub	r22, r6
    92b8:	77 09       	sbc	r23, r7
    92ba:	88 27       	eor	r24, r24
    92bc:	77 fd       	sbrc	r23, 7
    92be:	80 95       	com	r24
    92c0:	98 2f       	mov	r25, r24
    92c2:	48 d7       	rcall	.+3728   	; 0xa154 <__floatsisf>
    92c4:	9f 93       	push	r25
    92c6:	8f 93       	push	r24
    92c8:	7f 93       	push	r23
    92ca:	6f 93       	push	r22
    92cc:	ac 2c       	mov	r10, r12
    92ce:	bd 2c       	mov	r11, r13
    92d0:	ce 2c       	mov	r12, r14
    92d2:	df 2c       	mov	r13, r15
    92d4:	eb 80       	ldd	r14, Y+3	; 0x03
    92d6:	fc 80       	ldd	r15, Y+4	; 0x04
    92d8:	87 01       	movw	r16, r14
    92da:	20 91 2e 01 	lds	r18, 0x012E
    92de:	30 91 2f 01 	lds	r19, 0x012F
    92e2:	40 91 30 01 	lds	r20, 0x0130
    92e6:	50 91 31 01 	lds	r21, 0x0131
    92ea:	60 91 32 01 	lds	r22, 0x0132
    92ee:	70 91 33 01 	lds	r23, 0x0133
    92f2:	80 91 34 01 	lds	r24, 0x0134
    92f6:	90 91 35 01 	lds	r25, 0x0135
    92fa:	0e 94 6b 13 	call	0x26d6	; 0x26d6 <CalcCurvedPath>
    92fe:	00 91 5c 01 	lds	r16, 0x015C
    9302:	10 91 5d 01 	lds	r17, 0x015D
    9306:	60 91 5a 01 	lds	r22, 0x015A
    930a:	70 91 5b 01 	lds	r23, 0x015B
    930e:	88 27       	eor	r24, r24
    9310:	77 fd       	sbrc	r23, 7
    9312:	80 95       	com	r24
    9314:	98 2f       	mov	r25, r24
    9316:	1e d7       	rcall	.+3644   	; 0xa154 <__floatsisf>
    9318:	b6 2e       	mov	r11, r22
    931a:	a7 2e       	mov	r10, r23
    931c:	78 2e       	mov	r7, r24
    931e:	69 2e       	mov	r6, r25
    9320:	60 91 5e 01 	lds	r22, 0x015E
    9324:	70 91 5f 01 	lds	r23, 0x015F
    9328:	88 27       	eor	r24, r24
    932a:	77 fd       	sbrc	r23, 7
    932c:	80 95       	com	r24
    932e:	98 2f       	mov	r25, r24
    9330:	11 d7       	rcall	.+3618   	; 0xa154 <__floatsisf>
    9332:	c6 2e       	mov	r12, r22
    9334:	d7 2e       	mov	r13, r23
    9336:	e8 2e       	mov	r14, r24
    9338:	f9 2e       	mov	r15, r25
    933a:	0f b6       	in	r0, 0x3f	; 63
    933c:	f8 94       	cli
    933e:	de bf       	out	0x3e, r29	; 62
    9340:	0f be       	out	0x3f, r0	; 63
    9342:	cd bf       	out	0x3d, r28	; 61
    9344:	6f 92       	push	r6
    9346:	7f 92       	push	r7
    9348:	af 92       	push	r10
    934a:	bf 92       	push	r11
    934c:	b8 01       	movw	r22, r16
    934e:	68 19       	sub	r22, r8
    9350:	79 09       	sbc	r23, r9
    9352:	88 27       	eor	r24, r24
    9354:	77 fd       	sbrc	r23, 7
    9356:	80 95       	com	r24
    9358:	98 2f       	mov	r25, r24
    935a:	fc d6       	rcall	.+3576   	; 0xa154 <__floatsisf>
    935c:	9f 93       	push	r25
    935e:	8f 93       	push	r24
    9360:	7f 93       	push	r23
    9362:	6f 93       	push	r22
    9364:	ff 92       	push	r15
    9366:	ef 92       	push	r14
    9368:	df 92       	push	r13
    936a:	cf 92       	push	r12
    936c:	6f 92       	push	r6
    936e:	7f 92       	push	r7
    9370:	af 92       	push	r10
    9372:	bf 92       	push	r11
    9374:	b4 01       	movw	r22, r8
    9376:	60 0f       	add	r22, r16
    9378:	71 1f       	adc	r23, r17
    937a:	88 27       	eor	r24, r24
    937c:	77 fd       	sbrc	r23, 7
    937e:	80 95       	com	r24
    9380:	98 2f       	mov	r25, r24
    9382:	e8 d6       	rcall	.+3536   	; 0xa154 <__floatsisf>
    9384:	9f 93       	push	r25
    9386:	8f 93       	push	r24
    9388:	7f 93       	push	r23
    938a:	6f 93       	push	r22
    938c:	ac 2c       	mov	r10, r12
    938e:	bd 2c       	mov	r11, r13
    9390:	ce 2c       	mov	r12, r14
    9392:	df 2c       	mov	r13, r15
    9394:	e1 2c       	mov	r14, r1
    9396:	f1 2c       	mov	r15, r1
    9398:	0b 81       	ldd	r16, Y+3	; 0x03
    939a:	1c 81       	ldd	r17, Y+4	; 0x04
    939c:	20 91 36 01 	lds	r18, 0x0136
    93a0:	30 91 37 01 	lds	r19, 0x0137
    93a4:	40 91 38 01 	lds	r20, 0x0138
    93a8:	50 91 39 01 	lds	r21, 0x0139
    93ac:	60 91 3a 01 	lds	r22, 0x013A
    93b0:	70 91 3b 01 	lds	r23, 0x013B
    93b4:	80 91 3c 01 	lds	r24, 0x013C
    93b8:	90 91 3d 01 	lds	r25, 0x013D
    93bc:	0e 94 e6 0f 	call	0x1fcc	; 0x1fcc <CalcStraightPath>
    93c0:	00 91 5c 01 	lds	r16, 0x015C
    93c4:	10 91 5d 01 	lds	r17, 0x015D
    93c8:	60 91 5a 01 	lds	r22, 0x015A
    93cc:	70 91 5b 01 	lds	r23, 0x015B
    93d0:	88 27       	eor	r24, r24
    93d2:	77 fd       	sbrc	r23, 7
    93d4:	80 95       	com	r24
    93d6:	98 2f       	mov	r25, r24
    93d8:	bd d6       	rcall	.+3450   	; 0xa154 <__floatsisf>
    93da:	b6 2e       	mov	r11, r22
    93dc:	a7 2e       	mov	r10, r23
    93de:	78 2e       	mov	r7, r24
    93e0:	69 2e       	mov	r6, r25
    93e2:	60 91 5e 01 	lds	r22, 0x015E
    93e6:	70 91 5f 01 	lds	r23, 0x015F
    93ea:	88 27       	eor	r24, r24
    93ec:	77 fd       	sbrc	r23, 7
    93ee:	80 95       	com	r24
    93f0:	98 2f       	mov	r25, r24
    93f2:	b0 d6       	rcall	.+3424   	; 0xa154 <__floatsisf>
    93f4:	c6 2e       	mov	r12, r22
    93f6:	d7 2e       	mov	r13, r23
    93f8:	e8 2e       	mov	r14, r24
    93fa:	f9 2e       	mov	r15, r25
    93fc:	6f 92       	push	r6
    93fe:	7f 92       	push	r7
    9400:	af 92       	push	r10
    9402:	bf 92       	push	r11
    9404:	b4 01       	movw	r22, r8
    9406:	60 0f       	add	r22, r16
    9408:	71 1f       	adc	r23, r17
    940a:	88 27       	eor	r24, r24
    940c:	77 fd       	sbrc	r23, 7
    940e:	80 95       	com	r24
    9410:	98 2f       	mov	r25, r24
    9412:	a0 d6       	rcall	.+3392   	; 0xa154 <__floatsisf>
    9414:	9f 93       	push	r25
    9416:	8f 93       	push	r24
    9418:	7f 93       	push	r23
    941a:	6f 93       	push	r22
    941c:	ff 92       	push	r15
    941e:	ef 92       	push	r14
    9420:	df 92       	push	r13
    9422:	cf 92       	push	r12
    9424:	6f 92       	push	r6
    9426:	7f 92       	push	r7
    9428:	af 92       	push	r10
    942a:	bf 92       	push	r11
    942c:	b8 01       	movw	r22, r16
    942e:	68 19       	sub	r22, r8
    9430:	79 09       	sbc	r23, r9
    9432:	88 27       	eor	r24, r24
    9434:	77 fd       	sbrc	r23, 7
    9436:	80 95       	com	r24
    9438:	98 2f       	mov	r25, r24
    943a:	8c d6       	rcall	.+3352   	; 0xa154 <__floatsisf>
    943c:	9f 93       	push	r25
    943e:	8f 93       	push	r24
    9440:	7f 93       	push	r23
    9442:	6f 93       	push	r22
    9444:	ac 2c       	mov	r10, r12
    9446:	bd 2c       	mov	r11, r13
    9448:	ce 2c       	mov	r12, r14
    944a:	df 2c       	mov	r13, r15
    944c:	eb 80       	ldd	r14, Y+3	; 0x03
    944e:	fc 80       	ldd	r15, Y+4	; 0x04
    9450:	87 01       	movw	r16, r14
    9452:	20 91 36 01 	lds	r18, 0x0136
    9456:	30 91 37 01 	lds	r19, 0x0137
    945a:	40 91 38 01 	lds	r20, 0x0138
    945e:	50 91 39 01 	lds	r21, 0x0139
    9462:	60 91 3a 01 	lds	r22, 0x013A
    9466:	70 91 3b 01 	lds	r23, 0x013B
    946a:	80 91 3c 01 	lds	r24, 0x013C
    946e:	90 91 3d 01 	lds	r25, 0x013D
    9472:	0e 94 6b 13 	call	0x26d6	; 0x26d6 <CalcCurvedPath>
    9476:	0f b6       	in	r0, 0x3f	; 63
    9478:	f8 94       	cli
    947a:	de bf       	out	0x3e, r29	; 62
    947c:	0f be       	out	0x3f, r0	; 63
    947e:	cd bf       	out	0x3d, r28	; 61
    9480:	0f 90       	pop	r0
    9482:	0f 90       	pop	r0
    9484:	0f 90       	pop	r0
    9486:	0f 90       	pop	r0
    9488:	df 91       	pop	r29
    948a:	cf 91       	pop	r28
    948c:	1f 91       	pop	r17
    948e:	0f 91       	pop	r16
    9490:	ff 90       	pop	r15
    9492:	ef 90       	pop	r14
    9494:	df 90       	pop	r13
    9496:	cf 90       	pop	r12
    9498:	bf 90       	pop	r11
    949a:	af 90       	pop	r10
    949c:	9f 90       	pop	r9
    949e:	8f 90       	pop	r8
    94a0:	7f 90       	pop	r7
    94a2:	6f 90       	pop	r6
    94a4:	5f 90       	pop	r5
    94a6:	4f 90       	pop	r4
    94a8:	3f 90       	pop	r3
    94aa:	2f 90       	pop	r2
    94ac:	08 95       	ret

000094ae <increaseLegWidth>:
    94ae:	80 91 5e 01 	lds	r24, 0x015E
    94b2:	90 91 5f 01 	lds	r25, 0x015F
    94b6:	86 39       	cpi	r24, 0x96	; 150
    94b8:	91 05       	cpc	r25, r1
    94ba:	94 f4       	brge	.+36     	; 0x94e0 <increaseLegWidth+0x32>
    94bc:	20 91 5c 01 	lds	r18, 0x015C
    94c0:	30 91 5d 01 	lds	r19, 0x015D
    94c4:	26 39       	cpi	r18, 0x96	; 150
    94c6:	31 05       	cpc	r19, r1
    94c8:	5c f4       	brge	.+22     	; 0x94e0 <increaseLegWidth+0x32>
    94ca:	02 96       	adiw	r24, 0x02	; 2
    94cc:	90 93 5f 01 	sts	0x015F, r25
    94d0:	80 93 5e 01 	sts	0x015E, r24
    94d4:	2e 5f       	subi	r18, 0xFE	; 254
    94d6:	3f 4f       	sbci	r19, 0xFF	; 255
    94d8:	30 93 5d 01 	sts	0x015D, r19
    94dc:	20 93 5c 01 	sts	0x015C, r18
    94e0:	08 95       	ret

000094e2 <decreaseLegWidth>:
    94e2:	80 91 5e 01 	lds	r24, 0x015E
    94e6:	90 91 5f 01 	lds	r25, 0x015F
    94ea:	18 16       	cp	r1, r24
    94ec:	19 06       	cpc	r1, r25
    94ee:	94 f4       	brge	.+36     	; 0x9514 <decreaseLegWidth+0x32>
    94f0:	20 91 5c 01 	lds	r18, 0x015C
    94f4:	30 91 5d 01 	lds	r19, 0x015D
    94f8:	12 16       	cp	r1, r18
    94fa:	13 06       	cpc	r1, r19
    94fc:	5c f4       	brge	.+22     	; 0x9514 <decreaseLegWidth+0x32>
    94fe:	02 97       	sbiw	r24, 0x02	; 2
    9500:	90 93 5f 01 	sts	0x015F, r25
    9504:	80 93 5e 01 	sts	0x015E, r24
    9508:	22 50       	subi	r18, 0x02	; 2
    950a:	31 09       	sbc	r19, r1
    950c:	30 93 5d 01 	sts	0x015D, r19
    9510:	20 93 5c 01 	sts	0x015C, r18
    9514:	08 95       	ret

00009516 <decreaseLegHeight>:
    9516:	80 91 5a 01 	lds	r24, 0x015A
    951a:	90 91 5b 01 	lds	r25, 0x015B
    951e:	84 3c       	cpi	r24, 0xC4	; 196
    9520:	2f ef       	ldi	r18, 0xFF	; 255
    9522:	92 07       	cpc	r25, r18
    9524:	2c f4       	brge	.+10     	; 0x9530 <decreaseLegHeight+0x1a>
    9526:	02 96       	adiw	r24, 0x02	; 2
    9528:	90 93 5b 01 	sts	0x015B, r25
    952c:	80 93 5a 01 	sts	0x015A, r24
    9530:	08 95       	ret

00009532 <increaseLegHeight>:
    9532:	80 91 5a 01 	lds	r24, 0x015A
    9536:	90 91 5b 01 	lds	r25, 0x015B
    953a:	8d 34       	cpi	r24, 0x4D	; 77
    953c:	2f ef       	ldi	r18, 0xFF	; 255
    953e:	92 07       	cpc	r25, r18
    9540:	2c f0       	brlt	.+10     	; 0x954c <increaseLegHeight+0x1a>
    9542:	02 97       	sbiw	r24, 0x02	; 2
    9544:	90 93 5b 01 	sts	0x015B, r25
    9548:	80 93 5a 01 	sts	0x015A, r24
    954c:	08 95       	ret

0000954e <increaseStepLength>:
    954e:	80 91 60 01 	lds	r24, 0x0160
    9552:	90 91 61 01 	lds	r25, 0x0161
    9556:	80 3a       	cpi	r24, 0xA0	; 160
    9558:	91 05       	cpc	r25, r1
    955a:	2c f4       	brge	.+10     	; 0x9566 <increaseStepLength+0x18>
    955c:	02 96       	adiw	r24, 0x02	; 2
    955e:	90 93 61 01 	sts	0x0161, r25
    9562:	80 93 60 01 	sts	0x0160, r24
    9566:	08 95       	ret

00009568 <decreaseStepLength>:
    9568:	80 91 60 01 	lds	r24, 0x0160
    956c:	90 91 61 01 	lds	r25, 0x0161
    9570:	8b 30       	cpi	r24, 0x0B	; 11
    9572:	91 05       	cpc	r25, r1
    9574:	2c f0       	brlt	.+10     	; 0x9580 <decreaseStepLength+0x18>
    9576:	02 97       	sbiw	r24, 0x02	; 2
    9578:	90 93 61 01 	sts	0x0161, r25
    957c:	80 93 60 01 	sts	0x0160, r24
    9580:	08 95       	ret

00009582 <increaseGaitResolutionTime>:
    9582:	60 91 52 01 	lds	r22, 0x0152
    9586:	70 91 53 01 	lds	r23, 0x0153
    958a:	cb 01       	movw	r24, r22
    958c:	4e 97       	sbiw	r24, 0x1e	; 30
    958e:	86 34       	cpi	r24, 0x46	; 70
    9590:	91 05       	cpc	r25, r1
    9592:	58 f4       	brcc	.+22     	; 0x95aa <increaseGaitResolutionTime+0x28>
    9594:	66 5f       	subi	r22, 0xF6	; 246
    9596:	7f 4f       	sbci	r23, 0xFF	; 255
    9598:	70 93 53 01 	sts	0x0153, r23
    959c:	60 93 52 01 	sts	0x0152, r22
    95a0:	80 e0       	ldi	r24, 0x00	; 0
    95a2:	90 e0       	ldi	r25, 0x00	; 0
    95a4:	0c 94 28 07 	jmp	0xe50	; 0xe50 <setTimerPeriod>
    95a8:	08 95       	ret
    95aa:	cb 01       	movw	r24, r22
    95ac:	84 56       	subi	r24, 0x64	; 100
    95ae:	91 09       	sbc	r25, r1
    95b0:	80 39       	cpi	r24, 0x90	; 144
    95b2:	91 40       	sbci	r25, 0x01	; 1
    95b4:	50 f4       	brcc	.+20     	; 0x95ca <increaseGaitResolutionTime+0x48>
    95b6:	6c 59       	subi	r22, 0x9C	; 156
    95b8:	7f 4f       	sbci	r23, 0xFF	; 255
    95ba:	70 93 53 01 	sts	0x0153, r23
    95be:	60 93 52 01 	sts	0x0152, r22
    95c2:	80 e0       	ldi	r24, 0x00	; 0
    95c4:	90 e0       	ldi	r25, 0x00	; 0
    95c6:	0c 94 28 07 	jmp	0xe50	; 0xe50 <setTimerPeriod>
    95ca:	08 95       	ret

000095cc <decreaseGaitResolutionTime>:
    95cc:	60 91 52 01 	lds	r22, 0x0152
    95d0:	70 91 53 01 	lds	r23, 0x0153
    95d4:	cb 01       	movw	r24, r22
    95d6:	4f 97       	sbiw	r24, 0x1f	; 31
    95d8:	86 34       	cpi	r24, 0x46	; 70
    95da:	91 05       	cpc	r25, r1
    95dc:	58 f4       	brcc	.+22     	; 0x95f4 <decreaseGaitResolutionTime+0x28>
    95de:	6a 50       	subi	r22, 0x0A	; 10
    95e0:	71 09       	sbc	r23, r1
    95e2:	70 93 53 01 	sts	0x0153, r23
    95e6:	60 93 52 01 	sts	0x0152, r22
    95ea:	80 e0       	ldi	r24, 0x00	; 0
    95ec:	90 e0       	ldi	r25, 0x00	; 0
    95ee:	0c 94 28 07 	jmp	0xe50	; 0xe50 <setTimerPeriod>
    95f2:	08 95       	ret
    95f4:	cb 01       	movw	r24, r22
    95f6:	85 56       	subi	r24, 0x65	; 101
    95f8:	91 09       	sbc	r25, r1
    95fa:	80 39       	cpi	r24, 0x90	; 144
    95fc:	91 40       	sbci	r25, 0x01	; 1
    95fe:	50 f4       	brcc	.+20     	; 0x9614 <decreaseGaitResolutionTime+0x48>
    9600:	64 56       	subi	r22, 0x64	; 100
    9602:	71 09       	sbc	r23, r1
    9604:	70 93 53 01 	sts	0x0153, r23
    9608:	60 93 52 01 	sts	0x0152, r22
    960c:	80 e0       	ldi	r24, 0x00	; 0
    960e:	90 e0       	ldi	r25, 0x00	; 0
    9610:	0c 94 28 07 	jmp	0xe50	; 0xe50 <setTimerPeriod>
    9614:	08 95       	ret

00009616 <increaseStepHeight>:
    9616:	80 91 58 01 	lds	r24, 0x0158
    961a:	90 91 59 01 	lds	r25, 0x0159
    961e:	80 35       	cpi	r24, 0x50	; 80
    9620:	91 05       	cpc	r25, r1
    9622:	2c f4       	brge	.+10     	; 0x962e <increaseStepHeight+0x18>
    9624:	02 96       	adiw	r24, 0x02	; 2
    9626:	90 93 59 01 	sts	0x0159, r25
    962a:	80 93 58 01 	sts	0x0158, r24
    962e:	08 95       	ret

00009630 <decreaseStepHeight>:
    9630:	80 91 58 01 	lds	r24, 0x0158
    9634:	90 91 59 01 	lds	r25, 0x0159
    9638:	8b 30       	cpi	r24, 0x0B	; 11
    963a:	91 05       	cpc	r25, r1
    963c:	2c f0       	brlt	.+10     	; 0x9648 <decreaseStepHeight+0x18>
    963e:	02 97       	sbiw	r24, 0x02	; 2
    9640:	90 93 59 01 	sts	0x0159, r25
    9644:	80 93 58 01 	sts	0x0158, r24
    9648:	08 95       	ret

0000964a <increaseKTranslation>:
    964a:	cf 92       	push	r12
    964c:	df 92       	push	r13
    964e:	ef 92       	push	r14
    9650:	ff 92       	push	r15
    9652:	c0 90 4a 01 	lds	r12, 0x014A
    9656:	d0 90 4b 01 	lds	r13, 0x014B
    965a:	e0 90 4c 01 	lds	r14, 0x014C
    965e:	f0 90 4d 01 	lds	r15, 0x014D
    9662:	20 e0       	ldi	r18, 0x00	; 0
    9664:	30 e0       	ldi	r19, 0x00	; 0
    9666:	40 e8       	ldi	r20, 0x80	; 128
    9668:	5f e3       	ldi	r21, 0x3F	; 63
    966a:	c7 01       	movw	r24, r14
    966c:	b6 01       	movw	r22, r12
    966e:	d3 d4       	rcall	.+2470   	; 0xa016 <__cmpsf2>
    9670:	88 23       	and	r24, r24
    9672:	7c f4       	brge	.+30     	; 0x9692 <increaseKTranslation+0x48>
    9674:	2d ec       	ldi	r18, 0xCD	; 205
    9676:	3c ec       	ldi	r19, 0xCC	; 204
    9678:	4c ec       	ldi	r20, 0xCC	; 204
    967a:	5d e3       	ldi	r21, 0x3D	; 61
    967c:	c7 01       	movw	r24, r14
    967e:	b6 01       	movw	r22, r12
    9680:	04 d4       	rcall	.+2056   	; 0x9e8a <__addsf3>
    9682:	60 93 4a 01 	sts	0x014A, r22
    9686:	70 93 4b 01 	sts	0x014B, r23
    968a:	80 93 4c 01 	sts	0x014C, r24
    968e:	90 93 4d 01 	sts	0x014D, r25
    9692:	ff 90       	pop	r15
    9694:	ef 90       	pop	r14
    9696:	df 90       	pop	r13
    9698:	cf 90       	pop	r12
    969a:	08 95       	ret

0000969c <decreaseKTranslation>:
    969c:	cf 92       	push	r12
    969e:	df 92       	push	r13
    96a0:	ef 92       	push	r14
    96a2:	ff 92       	push	r15
    96a4:	c0 90 4a 01 	lds	r12, 0x014A
    96a8:	d0 90 4b 01 	lds	r13, 0x014B
    96ac:	e0 90 4c 01 	lds	r14, 0x014C
    96b0:	f0 90 4d 01 	lds	r15, 0x014D
    96b4:	2d ec       	ldi	r18, 0xCD	; 205
    96b6:	3c ec       	ldi	r19, 0xCC	; 204
    96b8:	4c ec       	ldi	r20, 0xCC	; 204
    96ba:	5d e3       	ldi	r21, 0x3D	; 61
    96bc:	c7 01       	movw	r24, r14
    96be:	b6 01       	movw	r22, r12
    96c0:	39 d6       	rcall	.+3186   	; 0xa334 <__gesf2>
    96c2:	18 16       	cp	r1, r24
    96c4:	7c f4       	brge	.+30     	; 0x96e4 <decreaseKTranslation+0x48>
    96c6:	2d ec       	ldi	r18, 0xCD	; 205
    96c8:	3c ec       	ldi	r19, 0xCC	; 204
    96ca:	4c ec       	ldi	r20, 0xCC	; 204
    96cc:	5d e3       	ldi	r21, 0x3D	; 61
    96ce:	c7 01       	movw	r24, r14
    96d0:	b6 01       	movw	r22, r12
    96d2:	da d3       	rcall	.+1972   	; 0x9e88 <__subsf3>
    96d4:	60 93 4a 01 	sts	0x014A, r22
    96d8:	70 93 4b 01 	sts	0x014B, r23
    96dc:	80 93 4c 01 	sts	0x014C, r24
    96e0:	90 93 4d 01 	sts	0x014D, r25
    96e4:	ff 90       	pop	r15
    96e6:	ef 90       	pop	r14
    96e8:	df 90       	pop	r13
    96ea:	cf 90       	pop	r12
    96ec:	08 95       	ret

000096ee <increaseKRotation>:
    96ee:	cf 92       	push	r12
    96f0:	df 92       	push	r13
    96f2:	ef 92       	push	r14
    96f4:	ff 92       	push	r15
    96f6:	c0 90 46 01 	lds	r12, 0x0146
    96fa:	d0 90 47 01 	lds	r13, 0x0147
    96fe:	e0 90 48 01 	lds	r14, 0x0148
    9702:	f0 90 49 01 	lds	r15, 0x0149
    9706:	20 e0       	ldi	r18, 0x00	; 0
    9708:	30 e0       	ldi	r19, 0x00	; 0
    970a:	40 e8       	ldi	r20, 0x80	; 128
    970c:	5f e3       	ldi	r21, 0x3F	; 63
    970e:	c7 01       	movw	r24, r14
    9710:	b6 01       	movw	r22, r12
    9712:	81 d4       	rcall	.+2306   	; 0xa016 <__cmpsf2>
    9714:	88 23       	and	r24, r24
    9716:	7c f4       	brge	.+30     	; 0x9736 <increaseKRotation+0x48>
    9718:	2d ec       	ldi	r18, 0xCD	; 205
    971a:	3c ec       	ldi	r19, 0xCC	; 204
    971c:	4c ec       	ldi	r20, 0xCC	; 204
    971e:	5d e3       	ldi	r21, 0x3D	; 61
    9720:	c7 01       	movw	r24, r14
    9722:	b6 01       	movw	r22, r12
    9724:	b2 d3       	rcall	.+1892   	; 0x9e8a <__addsf3>
    9726:	60 93 46 01 	sts	0x0146, r22
    972a:	70 93 47 01 	sts	0x0147, r23
    972e:	80 93 48 01 	sts	0x0148, r24
    9732:	90 93 49 01 	sts	0x0149, r25
    9736:	ff 90       	pop	r15
    9738:	ef 90       	pop	r14
    973a:	df 90       	pop	r13
    973c:	cf 90       	pop	r12
    973e:	08 95       	ret

00009740 <decreaseKRotation>:
    9740:	cf 92       	push	r12
    9742:	df 92       	push	r13
    9744:	ef 92       	push	r14
    9746:	ff 92       	push	r15
    9748:	c0 90 46 01 	lds	r12, 0x0146
    974c:	d0 90 47 01 	lds	r13, 0x0147
    9750:	e0 90 48 01 	lds	r14, 0x0148
    9754:	f0 90 49 01 	lds	r15, 0x0149
    9758:	20 e0       	ldi	r18, 0x00	; 0
    975a:	30 e0       	ldi	r19, 0x00	; 0
    975c:	40 e8       	ldi	r20, 0x80	; 128
    975e:	5f eb       	ldi	r21, 0xBF	; 191
    9760:	c7 01       	movw	r24, r14
    9762:	b6 01       	movw	r22, r12
    9764:	e7 d5       	rcall	.+3022   	; 0xa334 <__gesf2>
    9766:	18 16       	cp	r1, r24
    9768:	7c f4       	brge	.+30     	; 0x9788 <decreaseKRotation+0x48>
    976a:	2d ec       	ldi	r18, 0xCD	; 205
    976c:	3c ec       	ldi	r19, 0xCC	; 204
    976e:	4c ec       	ldi	r20, 0xCC	; 204
    9770:	5d e3       	ldi	r21, 0x3D	; 61
    9772:	c7 01       	movw	r24, r14
    9774:	b6 01       	movw	r22, r12
    9776:	88 d3       	rcall	.+1808   	; 0x9e88 <__subsf3>
    9778:	60 93 46 01 	sts	0x0146, r22
    977c:	70 93 47 01 	sts	0x0147, r23
    9780:	80 93 48 01 	sts	0x0148, r24
    9784:	90 93 49 01 	sts	0x0149, r25
    9788:	ff 90       	pop	r15
    978a:	ef 90       	pop	r14
    978c:	df 90       	pop	r13
    978e:	cf 90       	pop	r12
    9790:	08 95       	ret

00009792 <gaitController>:
        }
    }
}
void gaitController()
{
	if ((currentPos_g == posToCalcGait) && (currentControlMode_g != manual)) // hmtar information frn sensorenheten varje gng det r dags att berkna gngen
    9792:	20 91 80 01 	lds	r18, 0x0180
    9796:	30 91 81 01 	lds	r19, 0x0181
    979a:	80 91 5b 14 	lds	r24, 0x145B
    979e:	90 91 5c 14 	lds	r25, 0x145C
    97a2:	28 17       	cp	r18, r24
    97a4:	39 07       	cpc	r19, r25
    97a6:	b9 f5       	brne	.+110    	; 0x9816 <gaitController+0x84>
    97a8:	80 91 97 01 	lds	r24, 0x0197
    97ac:	88 23       	and	r24, r24
    97ae:	89 f0       	breq	.+34     	; 0x97d2 <gaitController+0x40>
	{
		calcRegulation(decideRegulationDirection(), TRUE);
    97b0:	0e 94 bf 1d 	call	0x3b7e	; 0x3b7e <decideRegulationDirection>
    97b4:	61 e0       	ldi	r22, 0x01	; 1
    97b6:	70 e0       	ldi	r23, 0x00	; 0
    97b8:	0e 94 86 1c 	call	0x390c	; 0x390c <calcRegulation>
	}

    if((currentPos_g == posToCalcGait) && (needToCalcGait))
    97bc:	20 91 80 01 	lds	r18, 0x0180
    97c0:	30 91 81 01 	lds	r19, 0x0181
    97c4:	80 91 5b 14 	lds	r24, 0x145B
    97c8:	90 91 5c 14 	lds	r25, 0x145C
    97cc:	28 17       	cp	r18, r24
    97ce:	39 07       	cpc	r19, r25
    97d0:	11 f5       	brne	.+68     	; 0x9816 <gaitController+0x84>
    97d2:	80 91 50 01 	lds	r24, 0x0150
    97d6:	90 91 51 01 	lds	r25, 0x0151
    97da:	89 2b       	or	r24, r25
    97dc:	e1 f0       	breq	.+56     	; 0x9816 <gaitController+0x84>
    {
       
        switch(currentGait)
    97de:	80 91 82 01 	lds	r24, 0x0182
    97e2:	81 30       	cpi	r24, 0x01	; 1
    97e4:	39 f0       	breq	.+14     	; 0x97f4 <gaitController+0x62>
    97e6:	18 f0       	brcs	.+6      	; 0x97ee <gaitController+0x5c>
    97e8:	82 30       	cpi	r24, 0x02	; 2
    97ea:	59 f0       	breq	.+22     	; 0x9802 <gaitController+0x70>
    97ec:	10 c0       	rjmp	.+32     	; 0x980e <gaitController+0x7c>
        {
            case standStill:
            {
                standStillGait();
    97ee:	0e 94 db 36 	call	0x6db6	; 0x6db6 <standStillGait>
                break;
    97f2:	0d c0       	rjmp	.+26     	; 0x980e <gaitController+0x7c>
            }
            case trotGait:
            {
    
                MakeTrotGait(gaitResolution_g);
    97f4:	80 91 56 01 	lds	r24, 0x0156
    97f8:	90 91 57 01 	lds	r25, 0x0157
    97fc:	0e 94 6e 38 	call	0x70dc	; 0x70dc <MakeTrotGait>
                break;
    9800:	06 c0       	rjmp	.+12     	; 0x980e <gaitController+0x7c>
            }
            case creepGait:
            {
                makeCreepGait(gaitResolution_g);
    9802:	80 91 56 01 	lds	r24, 0x0156
    9806:	90 91 57 01 	lds	r25, 0x0157
    980a:	0e 94 85 24 	call	0x490a	; 0x490a <makeCreepGait>
                break;
            }
        }
        needToCalcGait = FALSE;
    980e:	10 92 51 01 	sts	0x0151, r1
    9812:	10 92 50 01 	sts	0x0150, r1
    }
    if (currentControlMode_g == manual)
    9816:	80 91 97 01 	lds	r24, 0x0197
    981a:	81 11       	cpse	r24, r1
    981c:	18 c1       	rjmp	.+560    	; 0x9a4e <gaitController+0x2bc>
    {
        if (directionHasChanged)
    981e:	80 91 2b 0c 	lds	r24, 0x0C2B
    9822:	90 91 2c 0c 	lds	r25, 0x0C2C
    9826:	89 2b       	or	r24, r25
    9828:	09 f4       	brne	.+2      	; 0x982c <gaitController+0x9a>
    982a:	6a c1       	rjmp	.+724    	; 0x9b00 <gaitController+0x36e>
        {
            directionHasChanged = FALSE;
    982c:	10 92 2c 0c 	sts	0x0C2C, r1
    9830:	10 92 2b 0c 	sts	0x0C2B, r1
            needToCalcGait = TRUE;
    9834:	81 e0       	ldi	r24, 0x01	; 1
    9836:	90 e0       	ldi	r25, 0x00	; 0
    9838:	90 93 51 01 	sts	0x0151, r25
    983c:	80 93 50 01 	sts	0x0150, r24
            switch(currentRotationInstruction) // ndrar rotation om den finns en instruktion fr att rotera.
    9840:	80 91 93 01 	lds	r24, 0x0193
    9844:	90 91 94 01 	lds	r25, 0x0194
    9848:	81 30       	cpi	r24, 0x01	; 1
    984a:	91 05       	cpc	r25, r1
    984c:	39 f0       	breq	.+14     	; 0x985c <gaitController+0xca>
    984e:	82 30       	cpi	r24, 0x02	; 2
    9850:	91 05       	cpc	r25, r1
    9852:	e9 f0       	breq	.+58     	; 0x988e <gaitController+0xfc>
    9854:	89 2b       	or	r24, r25
    9856:	09 f0       	breq	.+2      	; 0x985a <gaitController+0xc8>
    9858:	48 c0       	rjmp	.+144    	; 0x98ea <gaitController+0x158>
    985a:	33 c0       	rjmp	.+102    	; 0x98c2 <gaitController+0x130>
            {
                case CW_ROTATION:
                {
                    if (currentGait == standStill)
    985c:	80 91 82 01 	lds	r24, 0x0182
    9860:	81 11       	cpse	r24, r1
    9862:	05 c0       	rjmp	.+10     	; 0x986e <gaitController+0xdc>
                    {
                        transitionStartToTrot();
    9864:	0e 94 c5 22 	call	0x458a	; 0x458a <transitionStartToTrot>
                        currentGait = trotGait;
    9868:	81 e0       	ldi	r24, 0x01	; 1
    986a:	80 93 82 01 	sts	0x0182, r24
                    }
                    regulation_g[1] = stepLengthRotationAdjust;
    986e:	80 91 54 01 	lds	r24, 0x0154
    9872:	90 91 55 01 	lds	r25, 0x0155
    9876:	90 93 48 10 	sts	0x1048, r25
    987a:	80 93 47 10 	sts	0x1047, r24
                    regulation_g[2] = -stepLengthRotationAdjust;
    987e:	91 95       	neg	r25
    9880:	81 95       	neg	r24
    9882:	91 09       	sbc	r25, r1
    9884:	90 93 4a 10 	sts	0x104A, r25
    9888:	80 93 49 10 	sts	0x1049, r24
                    break;
    988c:	2e c0       	rjmp	.+92     	; 0x98ea <gaitController+0x158>
                }
                case CCW_ROTATION:
                {
                    if (currentGait == standStill)
    988e:	80 91 82 01 	lds	r24, 0x0182
    9892:	81 11       	cpse	r24, r1
    9894:	05 c0       	rjmp	.+10     	; 0x98a0 <gaitController+0x10e>
                    {
                        transitionStartToTrot();
    9896:	0e 94 c5 22 	call	0x458a	; 0x458a <transitionStartToTrot>
                        currentGait = trotGait;
    989a:	81 e0       	ldi	r24, 0x01	; 1
    989c:	80 93 82 01 	sts	0x0182, r24
                    }
                    regulation_g[1] = -stepLengthRotationAdjust;
    98a0:	80 91 54 01 	lds	r24, 0x0154
    98a4:	90 91 55 01 	lds	r25, 0x0155
    98a8:	22 27       	eor	r18, r18
    98aa:	33 27       	eor	r19, r19
    98ac:	28 1b       	sub	r18, r24
    98ae:	39 0b       	sbc	r19, r25
    98b0:	30 93 48 10 	sts	0x1048, r19
    98b4:	20 93 47 10 	sts	0x1047, r18
                    regulation_g[2] = stepLengthRotationAdjust;
    98b8:	90 93 4a 10 	sts	0x104A, r25
    98bc:	80 93 49 10 	sts	0x1049, r24
                    break;
    98c0:	14 c0       	rjmp	.+40     	; 0x98ea <gaitController+0x158>
                }
                case NO_ROTATION:
                {
                    if ((currentDirection_g == noDirection) && (currentGait == trotGait))
    98c2:	80 91 98 01 	lds	r24, 0x0198
    98c6:	84 30       	cpi	r24, 0x04	; 4
    98c8:	41 f4       	brne	.+16     	; 0x98da <gaitController+0x148>
    98ca:	80 91 82 01 	lds	r24, 0x0182
    98ce:	81 30       	cpi	r24, 0x01	; 1
    98d0:	21 f4       	brne	.+8      	; 0x98da <gaitController+0x148>
                    {
                        returnToStartPosition();
    98d2:	0e 94 04 1e 	call	0x3c08	; 0x3c08 <returnToStartPosition>
                        currentGait = standStill;
    98d6:	10 92 82 01 	sts	0x0182, r1
                    }
                    regulation_g[1] = 0;
    98da:	10 92 48 10 	sts	0x1048, r1
    98de:	10 92 47 10 	sts	0x1047, r1
                    regulation_g[2] = 0;
    98e2:	10 92 4a 10 	sts	0x104A, r1
    98e6:	10 92 49 10 	sts	0x1049, r1
                    break;
                }
            }
            switch(currentDirectionInstruction) // Vljer riktning beroende p vad anvndaren matat in
    98ea:	80 91 95 01 	lds	r24, 0x0195
    98ee:	90 91 96 01 	lds	r25, 0x0196
    98f2:	8b 30       	cpi	r24, 0x0B	; 11
    98f4:	91 05       	cpc	r25, r1
    98f6:	08 f0       	brcs	.+2      	; 0x98fa <gaitController+0x168>
    98f8:	03 c1       	rjmp	.+518    	; 0x9b00 <gaitController+0x36e>
    98fa:	fc 01       	movw	r30, r24
    98fc:	ea 5b       	subi	r30, 0xBA	; 186
    98fe:	ff 4f       	sbci	r31, 0xFF	; 255
    9900:	10 c6       	rjmp	.+3104   	; 0xa522 <__tablejump2__>
            {
                case NORTH_HEADER:
                {
                    if (currentGait == standStill)
    9902:	80 91 82 01 	lds	r24, 0x0182
    9906:	81 11       	cpse	r24, r1
    9908:	02 c0       	rjmp	.+4      	; 0x990e <gaitController+0x17c>
                    {
                        transitionStartToTrot();
    990a:	0e 94 c5 22 	call	0x458a	; 0x458a <transitionStartToTrot>
                    }
                    currentGait = trotGait;
    990e:	81 e0       	ldi	r24, 0x01	; 1
    9910:	80 93 82 01 	sts	0x0182, r24
                    currentDirection_g = north;
    9914:	10 92 98 01 	sts	0x0198, r1
                    regulation_g[0] = 0;
    9918:	10 92 46 10 	sts	0x1046, r1
    991c:	10 92 45 10 	sts	0x1045, r1
                    break;
    9920:	ef c0       	rjmp	.+478    	; 0x9b00 <gaitController+0x36e>
                }
                case NORTH_EAST_HEADER:
                {
                    if (currentGait == standStill)
    9922:	80 91 82 01 	lds	r24, 0x0182
    9926:	81 11       	cpse	r24, r1
    9928:	02 c0       	rjmp	.+4      	; 0x992e <gaitController+0x19c>
                    {
                        transitionStartToTrot();
    992a:	0e 94 c5 22 	call	0x458a	; 0x458a <transitionStartToTrot>
                    }
                    // Huvudsaklig rrelseriktning norr. stlig offset hanteres genom en hrdkodad reglering t hger
                    currentGait = trotGait;
    992e:	81 e0       	ldi	r24, 0x01	; 1
    9930:	80 93 82 01 	sts	0x0182, r24
                    currentDirection_g = north;
    9934:	10 92 98 01 	sts	0x0198, r1
                    regulation_g[0] = stepLength_g;
    9938:	80 91 60 01 	lds	r24, 0x0160
    993c:	90 91 61 01 	lds	r25, 0x0161
    9940:	90 93 46 10 	sts	0x1046, r25
    9944:	80 93 45 10 	sts	0x1045, r24
                    break;
    9948:	db c0       	rjmp	.+438    	; 0x9b00 <gaitController+0x36e>
                }
                case EAST_HEADER:
                {
                    if (currentGait == standStill)
    994a:	80 91 82 01 	lds	r24, 0x0182
    994e:	81 11       	cpse	r24, r1
    9950:	02 c0       	rjmp	.+4      	; 0x9956 <gaitController+0x1c4>
                    {
                        transitionStartToTrot();
    9952:	0e 94 c5 22 	call	0x458a	; 0x458a <transitionStartToTrot>
                    }
                    currentGait = trotGait;
    9956:	81 e0       	ldi	r24, 0x01	; 1
    9958:	80 93 82 01 	sts	0x0182, r24
                    currentDirection_g = east;
    995c:	80 93 98 01 	sts	0x0198, r24
                    regulation_g[0] = 0;
    9960:	10 92 46 10 	sts	0x1046, r1
    9964:	10 92 45 10 	sts	0x1045, r1
                    break;
    9968:	cb c0       	rjmp	.+406    	; 0x9b00 <gaitController+0x36e>
                    }
                case SOUTH_EAST_HEADER:
                {
                    if (currentGait == standStill)
    996a:	80 91 82 01 	lds	r24, 0x0182
    996e:	81 11       	cpse	r24, r1
    9970:	02 c0       	rjmp	.+4      	; 0x9976 <gaitController+0x1e4>
                    {
                        transitionStartToTrot();
    9972:	0e 94 c5 22 	call	0x458a	; 0x458a <transitionStartToTrot>
                    }
                    // Huvudsaklig rrelseriktning ster. Sydlig offset hanteres genom en hrdkodad reglering t hger
                    currentGait = trotGait;
    9976:	81 e0       	ldi	r24, 0x01	; 1
    9978:	80 93 82 01 	sts	0x0182, r24
                    currentDirection_g = east;
    997c:	80 93 98 01 	sts	0x0198, r24
                    regulation_g[0] = stepLength_g;
    9980:	80 91 60 01 	lds	r24, 0x0160
    9984:	90 91 61 01 	lds	r25, 0x0161
    9988:	90 93 46 10 	sts	0x1046, r25
    998c:	80 93 45 10 	sts	0x1045, r24
                    break;
    9990:	b7 c0       	rjmp	.+366    	; 0x9b00 <gaitController+0x36e>
                }
                case SOUTH_HEADER:
                {
                    if (currentGait == standStill)
    9992:	80 91 82 01 	lds	r24, 0x0182
    9996:	81 11       	cpse	r24, r1
    9998:	02 c0       	rjmp	.+4      	; 0x999e <gaitController+0x20c>
                    {
                        transitionStartToTrot();
    999a:	0e 94 c5 22 	call	0x458a	; 0x458a <transitionStartToTrot>
                    }
                    currentGait = trotGait;
    999e:	81 e0       	ldi	r24, 0x01	; 1
    99a0:	80 93 82 01 	sts	0x0182, r24
                    currentDirection_g = south;
    99a4:	82 e0       	ldi	r24, 0x02	; 2
    99a6:	80 93 98 01 	sts	0x0198, r24
                    regulation_g[0] = 0;
    99aa:	10 92 46 10 	sts	0x1046, r1
    99ae:	10 92 45 10 	sts	0x1045, r1
                    break;
    99b2:	a6 c0       	rjmp	.+332    	; 0x9b00 <gaitController+0x36e>
                }
                case SOUTH_WEST_HEADER:
                {
                    if (currentGait == standStill)
    99b4:	80 91 82 01 	lds	r24, 0x0182
    99b8:	81 11       	cpse	r24, r1
    99ba:	02 c0       	rjmp	.+4      	; 0x99c0 <gaitController+0x22e>
                    {
                        transitionStartToTrot();
    99bc:	0e 94 c5 22 	call	0x458a	; 0x458a <transitionStartToTrot>
                    }
                    // Huvudsaklig rrelseriktning sder. Vstlig offset hanteres genom en hrdkodad reglering t hger
                    currentGait = trotGait;
    99c0:	81 e0       	ldi	r24, 0x01	; 1
    99c2:	80 93 82 01 	sts	0x0182, r24
                    currentDirection_g = south;
    99c6:	82 e0       	ldi	r24, 0x02	; 2
    99c8:	80 93 98 01 	sts	0x0198, r24
                    regulation_g[0] = stepLength_g;
    99cc:	80 91 60 01 	lds	r24, 0x0160
    99d0:	90 91 61 01 	lds	r25, 0x0161
    99d4:	90 93 46 10 	sts	0x1046, r25
    99d8:	80 93 45 10 	sts	0x1045, r24
                    break;
    99dc:	91 c0       	rjmp	.+290    	; 0x9b00 <gaitController+0x36e>
                }
                case WEST_HEADER:
                {
                    if (currentGait == standStill)
    99de:	80 91 82 01 	lds	r24, 0x0182
    99e2:	81 11       	cpse	r24, r1
    99e4:	02 c0       	rjmp	.+4      	; 0x99ea <gaitController+0x258>
                    {
                        transitionStartToTrot();
    99e6:	0e 94 c5 22 	call	0x458a	; 0x458a <transitionStartToTrot>
                    }
                    currentGait = trotGait;
    99ea:	81 e0       	ldi	r24, 0x01	; 1
    99ec:	80 93 82 01 	sts	0x0182, r24
                    currentDirection_g = west;
    99f0:	83 e0       	ldi	r24, 0x03	; 3
    99f2:	80 93 98 01 	sts	0x0198, r24
                    regulation_g[0] = 0;
    99f6:	10 92 46 10 	sts	0x1046, r1
    99fa:	10 92 45 10 	sts	0x1045, r1
                    break;
    99fe:	80 c0       	rjmp	.+256    	; 0x9b00 <gaitController+0x36e>
                }
                case NORTH_WEST_HEADER:
                {
                    if (currentGait == standStill)
    9a00:	80 91 82 01 	lds	r24, 0x0182
    9a04:	81 11       	cpse	r24, r1
    9a06:	02 c0       	rjmp	.+4      	; 0x9a0c <gaitController+0x27a>
                    {
                        transitionStartToTrot();
    9a08:	0e 94 c5 22 	call	0x458a	; 0x458a <transitionStartToTrot>
                    }
                    // Huvudsaklig rrelseriktning vster. Nordlig offset hanteres genom en hrdkodad reglering t hger
                    currentGait = trotGait;
    9a0c:	81 e0       	ldi	r24, 0x01	; 1
    9a0e:	80 93 82 01 	sts	0x0182, r24
                    currentDirection_g = west;
    9a12:	83 e0       	ldi	r24, 0x03	; 3
    9a14:	80 93 98 01 	sts	0x0198, r24
                    regulation_g[0] = stepLength_g;
    9a18:	80 91 60 01 	lds	r24, 0x0160
    9a1c:	90 91 61 01 	lds	r25, 0x0161
    9a20:	90 93 46 10 	sts	0x1046, r25
    9a24:	80 93 45 10 	sts	0x1045, r24
                    break;
    9a28:	6b c0       	rjmp	.+214    	; 0x9b00 <gaitController+0x36e>
                }
                case NO_MOVEMENT_DIRECTION_HEADER:
                {
                    if(currentRotationInstruction == NO_ROTATION)
    9a2a:	80 91 93 01 	lds	r24, 0x0193
    9a2e:	90 91 94 01 	lds	r25, 0x0194
    9a32:	89 2b       	or	r24, r25
    9a34:	21 f4       	brne	.+8      	; 0x9a3e <gaitController+0x2ac>
                    {
                        returnToStartPosition();
    9a36:	0e 94 04 1e 	call	0x3c08	; 0x3c08 <returnToStartPosition>
                        currentGait = standStill;
    9a3a:	10 92 82 01 	sts	0x0182, r1
                    }
                    currentDirection_g = noDirection;
    9a3e:	84 e0       	ldi	r24, 0x04	; 4
    9a40:	80 93 98 01 	sts	0x0198, r24
                    regulation_g[0] = 0;
    9a44:	10 92 46 10 	sts	0x1046, r1
    9a48:	10 92 45 10 	sts	0x1045, r1
                    break;
    9a4c:	59 c0       	rjmp	.+178    	; 0x9b00 <gaitController+0x36e>
            }
        }
	}
    else // Controlmode r ngot annat n manuellt
    {
        if(directionHasChanged) // nodesAndControl har tagit ett styrbeslut
    9a4e:	80 91 2b 0c 	lds	r24, 0x0C2B
    9a52:	90 91 2c 0c 	lds	r25, 0x0C2C
    9a56:	89 2b       	or	r24, r25
    9a58:	09 f4       	brne	.+2      	; 0x9a5c <gaitController+0x2ca>
    9a5a:	52 c0       	rjmp	.+164    	; 0x9b00 <gaitController+0x36e>
        {
            directionHasChanged = FALSE;
    9a5c:	10 92 2c 0c 	sts	0x0C2C, r1
    9a60:	10 92 2b 0c 	sts	0x0C2B, r1
            needToCalcGait = TRUE;
    9a64:	81 e0       	ldi	r24, 0x01	; 1
    9a66:	90 e0       	ldi	r25, 0x00	; 0
    9a68:	90 93 51 01 	sts	0x0151, r25
    9a6c:	80 93 50 01 	sts	0x0150, r24
            switch(nextDirection_g)
    9a70:	80 91 2d 0c 	lds	r24, 0x0C2D
    9a74:	82 30       	cpi	r24, 0x02	; 2
    9a76:	19 f1       	breq	.+70     	; 0x9abe <gaitController+0x32c>
    9a78:	28 f4       	brcc	.+10     	; 0x9a84 <gaitController+0x2f2>
    9a7a:	88 23       	and	r24, r24
    9a7c:	41 f0       	breq	.+16     	; 0x9a8e <gaitController+0x2fc>
    9a7e:	81 30       	cpi	r24, 0x01	; 1
    9a80:	91 f0       	breq	.+36     	; 0x9aa6 <gaitController+0x314>
    9a82:	3e c0       	rjmp	.+124    	; 0x9b00 <gaitController+0x36e>
    9a84:	83 30       	cpi	r24, 0x03	; 3
    9a86:	41 f1       	breq	.+80     	; 0x9ad8 <gaitController+0x346>
    9a88:	84 30       	cpi	r24, 0x04	; 4
    9a8a:	99 f1       	breq	.+102    	; 0x9af2 <gaitController+0x360>
    9a8c:	39 c0       	rjmp	.+114    	; 0x9b00 <gaitController+0x36e>
            {
                case north:
                {
                    if (currentGait == standStill)
    9a8e:	80 91 82 01 	lds	r24, 0x0182
    9a92:	81 11       	cpse	r24, r1
    9a94:	02 c0       	rjmp	.+4      	; 0x9a9a <gaitController+0x308>
                    {
                        transitionStartToTrot();
    9a96:	0e 94 c5 22 	call	0x458a	; 0x458a <transitionStartToTrot>
                    }
                    currentGait = trotGait;
    9a9a:	81 e0       	ldi	r24, 0x01	; 1
    9a9c:	80 93 82 01 	sts	0x0182, r24
                    currentDirection_g = north;
    9aa0:	10 92 98 01 	sts	0x0198, r1
                    break;
    9aa4:	2d c0       	rjmp	.+90     	; 0x9b00 <gaitController+0x36e>
                }
                case east:
                {
                    if (currentGait == standStill)
    9aa6:	80 91 82 01 	lds	r24, 0x0182
    9aaa:	81 11       	cpse	r24, r1
    9aac:	02 c0       	rjmp	.+4      	; 0x9ab2 <gaitController+0x320>
                    {
                        transitionStartToTrot();
    9aae:	0e 94 c5 22 	call	0x458a	; 0x458a <transitionStartToTrot>
                    }
                    currentGait = trotGait;
    9ab2:	81 e0       	ldi	r24, 0x01	; 1
    9ab4:	80 93 82 01 	sts	0x0182, r24
                    currentDirection_g = east;
    9ab8:	80 93 98 01 	sts	0x0198, r24
                    break;
    9abc:	21 c0       	rjmp	.+66     	; 0x9b00 <gaitController+0x36e>
                }
                case south:
                {
                    if (currentGait == standStill)
    9abe:	80 91 82 01 	lds	r24, 0x0182
    9ac2:	81 11       	cpse	r24, r1
    9ac4:	02 c0       	rjmp	.+4      	; 0x9aca <gaitController+0x338>
                    {
                        transitionStartToTrot();
    9ac6:	0e 94 c5 22 	call	0x458a	; 0x458a <transitionStartToTrot>
                    }
                    currentGait = trotGait;
    9aca:	81 e0       	ldi	r24, 0x01	; 1
    9acc:	80 93 82 01 	sts	0x0182, r24
                    currentDirection_g = south;
    9ad0:	82 e0       	ldi	r24, 0x02	; 2
    9ad2:	80 93 98 01 	sts	0x0198, r24
                    break;
    9ad6:	14 c0       	rjmp	.+40     	; 0x9b00 <gaitController+0x36e>
                }
                case west:
                {
                    if (currentGait == standStill)
    9ad8:	80 91 82 01 	lds	r24, 0x0182
    9adc:	81 11       	cpse	r24, r1
    9ade:	02 c0       	rjmp	.+4      	; 0x9ae4 <gaitController+0x352>
                    {
                        transitionStartToTrot();
    9ae0:	0e 94 c5 22 	call	0x458a	; 0x458a <transitionStartToTrot>
                    }
                    currentGait = trotGait;
    9ae4:	81 e0       	ldi	r24, 0x01	; 1
    9ae6:	80 93 82 01 	sts	0x0182, r24
                    currentDirection_g = west;
    9aea:	83 e0       	ldi	r24, 0x03	; 3
    9aec:	80 93 98 01 	sts	0x0198, r24
                    break;
    9af0:	07 c0       	rjmp	.+14     	; 0x9b00 <gaitController+0x36e>
                }
                case noDirection:
                {
                    returnToStartPosition();
    9af2:	0e 94 04 1e 	call	0x3c08	; 0x3c08 <returnToStartPosition>
                    currentGait = standStill;
    9af6:	10 92 82 01 	sts	0x0182, r1
                    currentDirection_g = noDirection;                    
    9afa:	84 e0       	ldi	r24, 0x04	; 4
    9afc:	80 93 98 01 	sts	0x0198, r24
                    break;
                }
            }
        }
    }
    if(optionsHasChanged_g == 1)
    9b00:	80 91 91 01 	lds	r24, 0x0191
    9b04:	90 91 92 01 	lds	r25, 0x0192
    9b08:	01 97       	sbiw	r24, 0x01	; 1
    9b0a:	09 f0       	breq	.+2      	; 0x9b0e <gaitController+0x37c>
    9b0c:	86 c0       	rjmp	.+268    	; 0x9c1a <gaitController+0x488>
    {
        optionsHasChanged_g = FALSE;
    9b0e:	10 92 92 01 	sts	0x0192, r1
    9b12:	10 92 91 01 	sts	0x0191, r1
        needToCalcGait = TRUE;
    9b16:	81 e0       	ldi	r24, 0x01	; 1
    9b18:	90 e0       	ldi	r25, 0x00	; 0
    9b1a:	90 93 51 01 	sts	0x0151, r25
    9b1e:	80 93 50 01 	sts	0x0150, r24
        switch (currentOptionInstruction_g)
    9b22:	e0 91 af 01 	lds	r30, 0x01AF
    9b26:	f0 91 b0 01 	lds	r31, 0x01B0
    9b2a:	e0 58       	subi	r30, 0x80	; 128
    9b2c:	f1 09       	sbc	r31, r1
    9b2e:	ee 30       	cpi	r30, 0x0E	; 14
    9b30:	f1 05       	cpc	r31, r1
    9b32:	08 f0       	brcs	.+2      	; 0x9b36 <gaitController+0x3a4>
    9b34:	72 c0       	rjmp	.+228    	; 0x9c1a <gaitController+0x488>
    9b36:	ef 5a       	subi	r30, 0xAF	; 175
    9b38:	ff 4f       	sbci	r31, 0xFF	; 255
    9b3a:	f3 c4       	rjmp	.+2534   	; 0xa522 <__tablejump2__>
        {
            case INCREASE_LEG_WIDTH:
            {
                increaseLegWidth();
    9b3c:	b8 dc       	rcall	.-1680   	; 0x94ae <increaseLegWidth>
                sendLegWidth = TRUE;
    9b3e:	81 e0       	ldi	r24, 0x01	; 1
    9b40:	90 e0       	ldi	r25, 0x00	; 0
    9b42:	90 93 90 01 	sts	0x0190, r25
    9b46:	80 93 8f 01 	sts	0x018F, r24
                break;
    9b4a:	08 95       	ret
            }
            
            case DECREASE_LEG_WIDTH:
            {
                decreaseLegWidth();
    9b4c:	ca dc       	rcall	.-1644   	; 0x94e2 <decreaseLegWidth>
                sendLegWidth = TRUE;
    9b4e:	81 e0       	ldi	r24, 0x01	; 1
    9b50:	90 e0       	ldi	r25, 0x00	; 0
    9b52:	90 93 90 01 	sts	0x0190, r25
    9b56:	80 93 8f 01 	sts	0x018F, r24
                break;
    9b5a:	08 95       	ret
            }
            
            case INCREASE_LEG_HEIGHT:
            {
                increaseLegHeight();
    9b5c:	ea dc       	rcall	.-1580   	; 0x9532 <increaseLegHeight>
                sendRobotHeight = TRUE;
    9b5e:	81 e0       	ldi	r24, 0x01	; 1
    9b60:	90 e0       	ldi	r25, 0x00	; 0
    9b62:	90 93 8c 01 	sts	0x018C, r25
    9b66:	80 93 8b 01 	sts	0x018B, r24
                break;
    9b6a:	08 95       	ret
            }
            
            case DECREASE_LEG_HEIGHT:
            {
                decreaseLegHeight();
    9b6c:	d4 dc       	rcall	.-1624   	; 0x9516 <decreaseLegHeight>
                sendRobotHeight = TRUE;
    9b6e:	81 e0       	ldi	r24, 0x01	; 1
    9b70:	90 e0       	ldi	r25, 0x00	; 0
    9b72:	90 93 8c 01 	sts	0x018C, r25
    9b76:	80 93 8b 01 	sts	0x018B, r24
                break;
    9b7a:	08 95       	ret
            }
            
            case INCREASE_STEP_LENGTH:
            {
                increaseStepLength();
    9b7c:	e8 dc       	rcall	.-1584   	; 0x954e <increaseStepLength>
                sendStepLength = TRUE;
    9b7e:	81 e0       	ldi	r24, 0x01	; 1
    9b80:	90 e0       	ldi	r25, 0x00	; 0
    9b82:	90 93 8a 01 	sts	0x018A, r25
    9b86:	80 93 89 01 	sts	0x0189, r24
                break;
    9b8a:	08 95       	ret
            }
            
            case DECREASE_STEP_LENGTH:
            {
                decreaseStepLength();
    9b8c:	ed dc       	rcall	.-1574   	; 0x9568 <decreaseStepLength>
                sendStepLength = TRUE;
    9b8e:	81 e0       	ldi	r24, 0x01	; 1
    9b90:	90 e0       	ldi	r25, 0x00	; 0
    9b92:	90 93 8a 01 	sts	0x018A, r25
    9b96:	80 93 89 01 	sts	0x0189, r24
                break;
    9b9a:	08 95       	ret
            }
            
            case INCREASE_STEP_HEIGHT:
            {
                increaseStepHeight();
    9b9c:	3c dd       	rcall	.-1416   	; 0x9616 <increaseStepHeight>
                sendStepHeight = TRUE;
    9b9e:	81 e0       	ldi	r24, 0x01	; 1
    9ba0:	90 e0       	ldi	r25, 0x00	; 0
    9ba2:	90 93 8e 01 	sts	0x018E, r25
    9ba6:	80 93 8d 01 	sts	0x018D, r24
                break;
    9baa:	08 95       	ret
            }
            
            case DECREASE_STEP_HEIGHT:
            {
                decreaseStepHeight();
    9bac:	41 dd       	rcall	.-1406   	; 0x9630 <decreaseStepHeight>
                sendStepHeight = TRUE;
    9bae:	81 e0       	ldi	r24, 0x01	; 1
    9bb0:	90 e0       	ldi	r25, 0x00	; 0
    9bb2:	90 93 8e 01 	sts	0x018E, r25
    9bb6:	80 93 8d 01 	sts	0x018D, r24
                break;
    9bba:	08 95       	ret
            }
            
            case INCREASE_GAIT_RESOLUTION_TIME:
            {
                increaseGaitResolutionTime();
    9bbc:	e2 dc       	rcall	.-1596   	; 0x9582 <increaseGaitResolutionTime>
                sendGaitResTime = TRUE;
    9bbe:	81 e0       	ldi	r24, 0x01	; 1
    9bc0:	90 e0       	ldi	r25, 0x00	; 0
    9bc2:	90 93 84 01 	sts	0x0184, r25
    9bc6:	80 93 83 01 	sts	0x0183, r24
                break;
    9bca:	08 95       	ret
            }
            
            case DECREASE_GAIT_RESOLUTION_TIME:
            {
                decreaseGaitResolutionTime();
    9bcc:	ff dc       	rcall	.-1538   	; 0x95cc <decreaseGaitResolutionTime>
                sendGaitResTime = TRUE;
    9bce:	81 e0       	ldi	r24, 0x01	; 1
    9bd0:	90 e0       	ldi	r25, 0x00	; 0
    9bd2:	90 93 84 01 	sts	0x0184, r25
    9bd6:	80 93 83 01 	sts	0x0183, r24
                break;
    9bda:	08 95       	ret
            }
            
            case INCREASE_K_TRANSLATION:
            {
                increaseKTranslation();
    9bdc:	36 dd       	rcall	.-1428   	; 0x964a <increaseKTranslation>
                sendKPTrans = TRUE;
    9bde:	81 e0       	ldi	r24, 0x01	; 1
    9be0:	90 e0       	ldi	r25, 0x00	; 0
    9be2:	90 93 86 01 	sts	0x0186, r25
    9be6:	80 93 85 01 	sts	0x0185, r24
                break;
    9bea:	08 95       	ret
            }
            
            case DECREASE_K_TRANSLATION:
            {
                decreaseKTranslation();
    9bec:	57 dd       	rcall	.-1362   	; 0x969c <decreaseKTranslation>
                sendKPTrans = TRUE;
    9bee:	81 e0       	ldi	r24, 0x01	; 1
    9bf0:	90 e0       	ldi	r25, 0x00	; 0
    9bf2:	90 93 86 01 	sts	0x0186, r25
    9bf6:	80 93 85 01 	sts	0x0185, r24
                break;
    9bfa:	08 95       	ret
            }
            
            case INCREASE_K_ROTATION:
            {
                increaseKRotation();
    9bfc:	78 dd       	rcall	.-1296   	; 0x96ee <increaseKRotation>
                sendKPAngle = TRUE;
    9bfe:	81 e0       	ldi	r24, 0x01	; 1
    9c00:	90 e0       	ldi	r25, 0x00	; 0
    9c02:	90 93 88 01 	sts	0x0188, r25
    9c06:	80 93 87 01 	sts	0x0187, r24
                break;
    9c0a:	08 95       	ret
            }
            
            case DECREASE_K_ROTATION:
            {
                decreaseKRotation();
    9c0c:	99 dd       	rcall	.-1230   	; 0x9740 <decreaseKRotation>
                sendKPAngle = TRUE;
    9c0e:	81 e0       	ldi	r24, 0x01	; 1
    9c10:	90 e0       	ldi	r25, 0x00	; 0
    9c12:	90 93 88 01 	sts	0x0188, r25
    9c16:	80 93 87 01 	sts	0x0187, r24
    9c1a:	08 95       	ret

00009c1c <sendChangedRobotParameters>:
    }
}

void sendChangedRobotParameters()
{
    if (sendLegWidth)
    9c1c:	80 91 8f 01 	lds	r24, 0x018F
    9c20:	90 91 90 01 	lds	r25, 0x0190
    9c24:	89 2b       	or	r24, r25
    9c26:	61 f0       	breq	.+24     	; 0x9c40 <sendChangedRobotParameters+0x24>
    {
        transmitDataToCommUnit(LEG_DISTANCE_HEADER, startPositionX_g);
    9c28:	60 91 5e 01 	lds	r22, 0x015E
    9c2c:	70 91 5f 01 	lds	r23, 0x015F
    9c30:	80 e4       	ldi	r24, 0x40	; 64
    9c32:	90 e0       	ldi	r25, 0x00	; 0
    9c34:	0e 94 4f 08 	call	0x109e	; 0x109e <transmitDataToCommUnit>
        sendLegWidth = FALSE;
    9c38:	10 92 90 01 	sts	0x0190, r1
    9c3c:	10 92 8f 01 	sts	0x018F, r1
    }        
    if (sendStepHeight)
    9c40:	80 91 8d 01 	lds	r24, 0x018D
    9c44:	90 91 8e 01 	lds	r25, 0x018E
    9c48:	89 2b       	or	r24, r25
    9c4a:	61 f0       	breq	.+24     	; 0x9c64 <sendChangedRobotParameters+0x48>
    {
        transmitDataToCommUnit(STEP_HEIGHT_HEADER, stepHeight_g);
    9c4c:	60 91 58 01 	lds	r22, 0x0158
    9c50:	70 91 59 01 	lds	r23, 0x0159
    9c54:	88 e4       	ldi	r24, 0x48	; 72
    9c56:	90 e0       	ldi	r25, 0x00	; 0
    9c58:	0e 94 4f 08 	call	0x109e	; 0x109e <transmitDataToCommUnit>
        sendStepHeight = FALSE;
    9c5c:	10 92 8e 01 	sts	0x018E, r1
    9c60:	10 92 8d 01 	sts	0x018D, r1
    }
    if (sendRobotHeight)
    9c64:	80 91 8b 01 	lds	r24, 0x018B
    9c68:	90 91 8c 01 	lds	r25, 0x018C
    9c6c:	89 2b       	or	r24, r25
    9c6e:	79 f0       	breq	.+30     	; 0x9c8e <sendChangedRobotParameters+0x72>
    {
        transmitDataToCommUnit(ROBOT_HEIGHT_HEADER, -startPositionZ_g);
    9c70:	60 91 5a 01 	lds	r22, 0x015A
    9c74:	70 91 5b 01 	lds	r23, 0x015B
    9c78:	71 95       	neg	r23
    9c7a:	61 95       	neg	r22
    9c7c:	71 09       	sbc	r23, r1
    9c7e:	88 e3       	ldi	r24, 0x38	; 56
    9c80:	90 e0       	ldi	r25, 0x00	; 0
    9c82:	0e 94 4f 08 	call	0x109e	; 0x109e <transmitDataToCommUnit>
        sendRobotHeight = FALSE;
    9c86:	10 92 8c 01 	sts	0x018C, r1
    9c8a:	10 92 8b 01 	sts	0x018B, r1
    }
    if (sendStepLength) 
    9c8e:	80 91 89 01 	lds	r24, 0x0189
    9c92:	90 91 8a 01 	lds	r25, 0x018A
    9c96:	89 2b       	or	r24, r25
    9c98:	61 f0       	breq	.+24     	; 0x9cb2 <sendChangedRobotParameters+0x96>
    {
        transmitDataToCommUnit(STEP_LENGTH_HEADER, stepLength_g);
    9c9a:	60 91 60 01 	lds	r22, 0x0160
    9c9e:	70 91 61 01 	lds	r23, 0x0161
    9ca2:	80 e5       	ldi	r24, 0x50	; 80
    9ca4:	90 e0       	ldi	r25, 0x00	; 0
    9ca6:	0e 94 4f 08 	call	0x109e	; 0x109e <transmitDataToCommUnit>
        sendStepLength = FALSE;
    9caa:	10 92 8a 01 	sts	0x018A, r1
    9cae:	10 92 89 01 	sts	0x0189, r1
    }
    if (sendKPAngle) 
    9cb2:	80 91 87 01 	lds	r24, 0x0187
    9cb6:	90 91 88 01 	lds	r25, 0x0188
    9cba:	89 2b       	or	r24, r25
    9cbc:	b1 f0       	breq	.+44     	; 0x9cea <sendChangedRobotParameters+0xce>
    {
        transmitDataToCommUnit(K_P_ANGLE_HEADER, 100*kProportionalAngle_g);
    9cbe:	20 e0       	ldi	r18, 0x00	; 0
    9cc0:	30 e0       	ldi	r19, 0x00	; 0
    9cc2:	48 ec       	ldi	r20, 0xC8	; 200
    9cc4:	52 e4       	ldi	r21, 0x42	; 66
    9cc6:	60 91 46 01 	lds	r22, 0x0146
    9cca:	70 91 47 01 	lds	r23, 0x0147
    9cce:	80 91 48 01 	lds	r24, 0x0148
    9cd2:	90 91 49 01 	lds	r25, 0x0149
    9cd6:	39 d3       	rcall	.+1650   	; 0xa34a <__mulsf3>
    9cd8:	0a d2       	rcall	.+1044   	; 0xa0ee <__fixsfsi>
    9cda:	80 e3       	ldi	r24, 0x30	; 48
    9cdc:	90 e0       	ldi	r25, 0x00	; 0
    9cde:	0e 94 4f 08 	call	0x109e	; 0x109e <transmitDataToCommUnit>
        sendKPAngle = FALSE;
    9ce2:	10 92 88 01 	sts	0x0188, r1
    9ce6:	10 92 87 01 	sts	0x0187, r1
    }
    if (sendKPTrans) 
    9cea:	80 91 85 01 	lds	r24, 0x0185
    9cee:	90 91 86 01 	lds	r25, 0x0186
    9cf2:	89 2b       	or	r24, r25
    9cf4:	b1 f0       	breq	.+44     	; 0x9d22 <sendChangedRobotParameters+0x106>
    {
        transmitDataToCommUnit(K_P_TRANS_HEADER, 100*kProportionalTranslation_g);
    9cf6:	20 e0       	ldi	r18, 0x00	; 0
    9cf8:	30 e0       	ldi	r19, 0x00	; 0
    9cfa:	48 ec       	ldi	r20, 0xC8	; 200
    9cfc:	52 e4       	ldi	r21, 0x42	; 66
    9cfe:	60 91 4a 01 	lds	r22, 0x014A
    9d02:	70 91 4b 01 	lds	r23, 0x014B
    9d06:	80 91 4c 01 	lds	r24, 0x014C
    9d0a:	90 91 4d 01 	lds	r25, 0x014D
    9d0e:	1d d3       	rcall	.+1594   	; 0xa34a <__mulsf3>
    9d10:	ee d1       	rcall	.+988    	; 0xa0ee <__fixsfsi>
    9d12:	88 e2       	ldi	r24, 0x28	; 40
    9d14:	90 e0       	ldi	r25, 0x00	; 0
    9d16:	0e 94 4f 08 	call	0x109e	; 0x109e <transmitDataToCommUnit>
        sendKPTrans = FALSE;
    9d1a:	10 92 86 01 	sts	0x0186, r1
    9d1e:	10 92 85 01 	sts	0x0185, r1
    }
    if (sendGaitResTime) 
    9d22:	80 91 83 01 	lds	r24, 0x0183
    9d26:	90 91 84 01 	lds	r25, 0x0184
    9d2a:	89 2b       	or	r24, r25
    9d2c:	61 f0       	breq	.+24     	; 0x9d46 <sendChangedRobotParameters+0x12a>
    {
        transmitDataToCommUnit(STEP_INCREMENT_TIME_HEADER, gaitResolutionTime_g);
    9d2e:	60 91 32 0c 	lds	r22, 0x0C32
    9d32:	70 91 33 0c 	lds	r23, 0x0C33
    9d36:	80 e8       	ldi	r24, 0x80	; 128
    9d38:	90 e0       	ldi	r25, 0x00	; 0
    9d3a:	0e 94 4f 08 	call	0x109e	; 0x109e <transmitDataToCommUnit>
        sendGaitResTime = FALSE;
    9d3e:	10 92 84 01 	sts	0x0184, r1
    9d42:	10 92 83 01 	sts	0x0183, r1
    9d46:	08 95       	ret

00009d48 <checkForLeak>:
    }
}

void checkForLeak()
{
	isLeakVisible_g = fetchDataFromSensorUnit(LEAK_HEADER);
    9d48:	88 e9       	ldi	r24, 0x98	; 152
    9d4a:	90 e0       	ldi	r25, 0x00	; 0
    9d4c:	0e 94 67 08 	call	0x10ce	; 0x10ce <fetchDataFromSensorUnit>
    9d50:	90 93 22 0c 	sts	0x0C22, r25
    9d54:	80 93 21 0c 	sts	0x0C21, r24
    9d58:	08 95       	ret

00009d5a <main>:
}
int main(void)
{
    
    initUSART();
    9d5a:	0e 94 81 08 	call	0x1102	; 0x1102 <initUSART>
    spiMasterInit();
    9d5e:	0e 94 2a 08 	call	0x1054	; 0x1054 <spiMasterInit>
    EICRA = 0b1111; // Stigande flank p INT1/0 genererar avbrott
    9d62:	8f e0       	ldi	r24, 0x0F	; 15
    9d64:	80 93 69 00 	sts	0x0069, r24
    EIMSK = (EIMSK | 3); // Mjliggr externa avbrott p INT1/0
    9d68:	8d b3       	in	r24, 0x1d	; 29
    9d6a:	83 60       	ori	r24, 0x03	; 3
    9d6c:	8d bb       	out	0x1d, r24	; 29

    // initiering av globala variabler
    currentPos_g = 0;
    9d6e:	10 92 81 01 	sts	0x0181, r1
    9d72:	10 92 80 01 	sts	0x0180, r1
    nextPos_g = 1;
    9d76:	81 e0       	ldi	r24, 0x01	; 1
    9d78:	90 e0       	ldi	r25, 0x00	; 0
    9d7a:	90 93 23 01 	sts	0x0123, r25
    9d7e:	80 93 22 01 	sts	0x0122, r24
    currentControlMode_g = manual;
    9d82:	10 92 97 01 	sts	0x0197, r1
    currentDirection_g = north;
    9d86:	10 92 98 01 	sts	0x0198, r1
    nextDirection_g = north;
    9d8a:	10 92 2d 0c 	sts	0x0C2D, r1
    currentOptionInstruction_g = 0;
    9d8e:	10 92 b0 01 	sts	0x01B0, r1
    9d92:	10 92 af 01 	sts	0x01AF, r1
    initNodeAndSteering();
    9d96:	0e 94 b2 05 	call	0xb64	; 0xb64 <initNodeAndSteering>
    directionHasChanged = FALSE;
    9d9a:	10 92 2c 0c 	sts	0x0C2C, r1
    9d9e:	10 92 2b 0c 	sts	0x0C2B, r1
    currentGait = standStill;
    9da2:	10 92 82 01 	sts	0x0182, r1
    optionsHasChanged_g = 0;
    9da6:	10 92 92 01 	sts	0x0192, r1
    9daa:	10 92 91 01 	sts	0x0191, r1
    
    int nodeAdded = FALSE;
	int sendDataToPC = FALSE; // Anvnds fr att bara skicka varannan gng i commPeriodTimerEnd
    timer0Init();
    9dae:	0e 94 0d 07 	call	0xe1a	; 0xe1a <timer0Init>
    timer2Init();
    9db2:	0e 94 19 07 	call	0xe32	; 0xe32 <timer2Init>
    sei();
    9db6:	78 94       	sei
    MoveToStartPosition();
    9db8:	0e 94 e6 0e 	call	0x1dcc	; 0x1dcc <MoveToStartPosition>
	#else
		//round up by default
		__ticks_dc = (uint32_t)(ceil(fabs(__tmp)));
	#endif

	__builtin_avr_delay_cycles(__ticks_dc);
    9dbc:	2f ef       	ldi	r18, 0xFF	; 255
    9dbe:	83 ed       	ldi	r24, 0xD3	; 211
    9dc0:	90 e3       	ldi	r25, 0x30	; 48
    9dc2:	21 50       	subi	r18, 0x01	; 1
    9dc4:	80 40       	sbci	r24, 0x00	; 0
    9dc6:	90 40       	sbci	r25, 0x00	; 0
    9dc8:	e1 f7       	brne	.-8      	; 0x9dc2 <main+0x68>
    9dca:	00 c0       	rjmp	.+0      	; 0x9dcc <main+0x72>
    9dcc:	00 00       	nop
    //moveToCreepStartPosition();
    _delay_ms(1000);
    //currentDirection_g = east;
    //makeCreepGait(gaitResolution_g);
    standStillGait();
    9dce:	0e 94 db 36 	call	0x6db6	; 0x6db6 <standStillGait>

    //currentGait = creepGait;

    //moveToCreepStartPosition();
    //makeCreepGait(gaitResolution_g);
    setTimerPeriod(TIMER_0, newGaitResolutionTime);
    9dd2:	60 91 52 01 	lds	r22, 0x0152
    9dd6:	70 91 53 01 	lds	r23, 0x0153
    9dda:	80 e0       	ldi	r24, 0x00	; 0
    9ddc:	90 e0       	ldi	r25, 0x00	; 0
    9dde:	0e 94 28 07 	call	0xe50	; 0xe50 <setTimerPeriod>
    setTimerPeriod(TIMER_2, newCommUnitUpdatePeriod);
    9de2:	60 91 4e 01 	lds	r22, 0x014E
    9de6:	70 91 4f 01 	lds	r23, 0x014F
    9dea:	82 e0       	ldi	r24, 0x02	; 2
    9dec:	90 e0       	ldi	r25, 0x00	; 0
    9dee:	0e 94 28 07 	call	0xe50	; 0xe50 <setTimerPeriod>
    
	sendAllRobotParameters();
    9df2:	0e 94 d7 08 	call	0x11ae	; 0x11ae <sendAllRobotParameters>
    directionHasChanged = FALSE;
    currentGait = standStill;
    optionsHasChanged_g = 0;
    
    int nodeAdded = FALSE;
	int sendDataToPC = FALSE; // Anvnds fr att bara skicka varannan gng i commPeriodTimerEnd
    9df6:	c0 e0       	ldi	r28, 0x00	; 0
    9df8:	d0 e0       	ldi	r29, 0x00	; 0
				transmitAllDataToCommUnit();
				sendDataToPC = FALSE;
			}
			else
			{
				sendDataToPC = TRUE;
    9dfa:	01 e0       	ldi	r16, 0x01	; 1
    9dfc:	10 e0       	ldi	r17, 0x00	; 0
            if (sendDataToPC)
			{
				transmitDataToCommUnit(NODE_INFO, makeNodeData(&currentNode_g));
				transmitDataToCommUnit(CONTROL_DECISION,nextDirection_g);
				transmitAllDataToCommUnit();
				sendDataToPC = FALSE;
    9dfe:	e1 2c       	mov	r14, r1
    9e00:	f1 2c       	mov	r15, r1

    // ---- Main-Loop ----
    while (1)
    {
	    
    	if (legTimerPeriodEnd())
    9e02:	0e 94 ca 07 	call	0xf94	; 0xf94 <legTimerPeriodEnd>
    9e06:	89 2b       	or	r24, r25
    9e08:	29 f0       	breq	.+10     	; 0x9e14 <main+0xba>
    	{
    	    move();
    9e0a:	0e 94 34 1b 	call	0x3668	; 0x3668 <move>
    	    resetLegTimer();
    9e0e:	0e 94 ff 07 	call	0xffe	; 0xffe <resetLegTimer>
            gaitController();
    9e12:	bf dc       	rcall	.-1666   	; 0x9792 <gaitController>
    	}
    	if (commTimerPeriodEnd())
    9e14:	0e 94 e4 07 	call	0xfc8	; 0xfc8 <commTimerPeriodEnd>
    9e18:	89 2b       	or	r24, r25
    9e1a:	09 f1       	breq	.+66     	; 0x9e5e <main+0x104>
    	{
			updateAllDistanceSensorData();            
    9e1c:	0e 94 5c 1c 	call	0x38b8	; 0x38b8 <updateAllDistanceSensorData>
            updateTotalAngle();
    9e20:	0e 94 7d 1c 	call	0x38fa	; 0x38fa <updateTotalAngle>
			checkForLeak();
    9e24:	91 df       	rcall	.-222    	; 0x9d48 <checkForLeak>
            sendChangedRobotParameters();
    9e26:	fa de       	rcall	.-524    	; 0x9c1c <sendChangedRobotParameters>
            if (sendDataToPC)
    9e28:	cd 2b       	or	r28, r29
    9e2a:	a9 f0       	breq	.+42     	; 0x9e56 <main+0xfc>
			{
				transmitDataToCommUnit(NODE_INFO, makeNodeData(&currentNode_g));
    9e2c:	89 e9       	ldi	r24, 0x99	; 153
    9e2e:	91 e0       	ldi	r25, 0x01	; 1
    9e30:	0e 94 aa 00 	call	0x154	; 0x154 <makeNodeData>
    9e34:	bc 01       	movw	r22, r24
    9e36:	80 ea       	ldi	r24, 0xA0	; 160
    9e38:	90 e0       	ldi	r25, 0x00	; 0
    9e3a:	0e 94 4f 08 	call	0x109e	; 0x109e <transmitDataToCommUnit>
				transmitDataToCommUnit(CONTROL_DECISION,nextDirection_g);
    9e3e:	60 91 2d 0c 	lds	r22, 0x0C2D
    9e42:	70 e0       	ldi	r23, 0x00	; 0
    9e44:	8c ef       	ldi	r24, 0xFC	; 252
    9e46:	90 e0       	ldi	r25, 0x00	; 0
    9e48:	0e 94 4f 08 	call	0x109e	; 0x109e <transmitDataToCommUnit>
				transmitAllDataToCommUnit();
    9e4c:	0e 94 09 1c 	call	0x3812	; 0x3812 <transmitAllDataToCommUnit>
				sendDataToPC = FALSE;
    9e50:	ce 2d       	mov	r28, r14
    9e52:	df 2d       	mov	r29, r15
    9e54:	02 c0       	rjmp	.+4      	; 0x9e5a <main+0x100>
			}
			else
			{
				sendDataToPC = TRUE;
    9e56:	c0 2f       	mov	r28, r16
    9e58:	d1 2f       	mov	r29, r17
                         
            }
            else
                transmitDataToCommUnit(NODE_INFO, makeNodeData(&currentNode_g));
				*/
            resetCommTimer();
    9e5a:	0e 94 03 08 	call	0x1006	; 0x1006 <resetCommTimer>
        /*
        nodesAndControl stter nextDirection och directionHasChanged om ett styrbeslut tas.
        Kan dessutom ndra p controlMode.
        */
        
        if (currentControlMode_g != manual)
    9e5e:	80 91 97 01 	lds	r24, 0x0197
    9e62:	88 23       	and	r24, r24
    9e64:	71 f2       	breq	.-100    	; 0x9e02 <main+0xa8>
        {
            //if (nodesAndControl()) // Funktionen returnerar TRUE om en ny nod lagts till.
              //  nodeAdded = TRUE;
            nodesAndControl();
    9e66:	0e 94 e3 05 	call	0xbc6	; 0xbc6 <nodesAndControl>
    9e6a:	cb cf       	rjmp	.-106    	; 0x9e02 <main+0xa8>

00009e6c <acos>:
    9e6c:	9f 93       	push	r25
    9e6e:	9f 77       	andi	r25, 0x7F	; 127
    9e70:	ac d1       	rcall	.+856    	; 0xa1ca <__fp_arccos>
    9e72:	0f 90       	pop	r0
    9e74:	00 20       	and	r0, r0
    9e76:	3a f4       	brpl	.+14     	; 0x9e86 <acos+0x1a>
    9e78:	90 58       	subi	r25, 0x80	; 128
    9e7a:	a2 ea       	ldi	r26, 0xA2	; 162
    9e7c:	2a ed       	ldi	r18, 0xDA	; 218
    9e7e:	3f e0       	ldi	r19, 0x0F	; 15
    9e80:	49 e4       	ldi	r20, 0x49	; 73
    9e82:	50 e4       	ldi	r21, 0x40	; 64
    9e84:	13 d0       	rcall	.+38     	; 0x9eac <__addsf3x>
    9e86:	1c c2       	rjmp	.+1080   	; 0xa2c0 <__fp_round>

00009e88 <__subsf3>:
    9e88:	50 58       	subi	r21, 0x80	; 128

00009e8a <__addsf3>:
    9e8a:	bb 27       	eor	r27, r27
    9e8c:	aa 27       	eor	r26, r26
    9e8e:	0e d0       	rcall	.+28     	; 0x9eac <__addsf3x>
    9e90:	17 c2       	rjmp	.+1070   	; 0xa2c0 <__fp_round>
    9e92:	08 d2       	rcall	.+1040   	; 0xa2a4 <__fp_pscA>
    9e94:	30 f0       	brcs	.+12     	; 0x9ea2 <__addsf3+0x18>
    9e96:	0d d2       	rcall	.+1050   	; 0xa2b2 <__fp_pscB>
    9e98:	20 f0       	brcs	.+8      	; 0x9ea2 <__addsf3+0x18>
    9e9a:	31 f4       	brne	.+12     	; 0x9ea8 <__addsf3+0x1e>
    9e9c:	9f 3f       	cpi	r25, 0xFF	; 255
    9e9e:	11 f4       	brne	.+4      	; 0x9ea4 <__addsf3+0x1a>
    9ea0:	1e f4       	brtc	.+6      	; 0x9ea8 <__addsf3+0x1e>
    9ea2:	d8 c1       	rjmp	.+944    	; 0xa254 <__fp_nan>
    9ea4:	0e f4       	brtc	.+2      	; 0x9ea8 <__addsf3+0x1e>
    9ea6:	e0 95       	com	r30
    9ea8:	e7 fb       	bst	r30, 7
    9eaa:	ce c1       	rjmp	.+924    	; 0xa248 <__fp_inf>

00009eac <__addsf3x>:
    9eac:	e9 2f       	mov	r30, r25
    9eae:	19 d2       	rcall	.+1074   	; 0xa2e2 <__fp_split3>
    9eb0:	80 f3       	brcs	.-32     	; 0x9e92 <__addsf3+0x8>
    9eb2:	ba 17       	cp	r27, r26
    9eb4:	62 07       	cpc	r22, r18
    9eb6:	73 07       	cpc	r23, r19
    9eb8:	84 07       	cpc	r24, r20
    9eba:	95 07       	cpc	r25, r21
    9ebc:	18 f0       	brcs	.+6      	; 0x9ec4 <__addsf3x+0x18>
    9ebe:	71 f4       	brne	.+28     	; 0x9edc <__addsf3x+0x30>
    9ec0:	9e f5       	brtc	.+102    	; 0x9f28 <__addsf3x+0x7c>
    9ec2:	31 c2       	rjmp	.+1122   	; 0xa326 <__fp_zero>
    9ec4:	0e f4       	brtc	.+2      	; 0x9ec8 <__addsf3x+0x1c>
    9ec6:	e0 95       	com	r30
    9ec8:	0b 2e       	mov	r0, r27
    9eca:	ba 2f       	mov	r27, r26
    9ecc:	a0 2d       	mov	r26, r0
    9ece:	0b 01       	movw	r0, r22
    9ed0:	b9 01       	movw	r22, r18
    9ed2:	90 01       	movw	r18, r0
    9ed4:	0c 01       	movw	r0, r24
    9ed6:	ca 01       	movw	r24, r20
    9ed8:	a0 01       	movw	r20, r0
    9eda:	11 24       	eor	r1, r1
    9edc:	ff 27       	eor	r31, r31
    9ede:	59 1b       	sub	r21, r25
    9ee0:	99 f0       	breq	.+38     	; 0x9f08 <__addsf3x+0x5c>
    9ee2:	59 3f       	cpi	r21, 0xF9	; 249
    9ee4:	50 f4       	brcc	.+20     	; 0x9efa <__addsf3x+0x4e>
    9ee6:	50 3e       	cpi	r21, 0xE0	; 224
    9ee8:	68 f1       	brcs	.+90     	; 0x9f44 <__addsf3x+0x98>
    9eea:	1a 16       	cp	r1, r26
    9eec:	f0 40       	sbci	r31, 0x00	; 0
    9eee:	a2 2f       	mov	r26, r18
    9ef0:	23 2f       	mov	r18, r19
    9ef2:	34 2f       	mov	r19, r20
    9ef4:	44 27       	eor	r20, r20
    9ef6:	58 5f       	subi	r21, 0xF8	; 248
    9ef8:	f3 cf       	rjmp	.-26     	; 0x9ee0 <__addsf3x+0x34>
    9efa:	46 95       	lsr	r20
    9efc:	37 95       	ror	r19
    9efe:	27 95       	ror	r18
    9f00:	a7 95       	ror	r26
    9f02:	f0 40       	sbci	r31, 0x00	; 0
    9f04:	53 95       	inc	r21
    9f06:	c9 f7       	brne	.-14     	; 0x9efa <__addsf3x+0x4e>
    9f08:	7e f4       	brtc	.+30     	; 0x9f28 <__addsf3x+0x7c>
    9f0a:	1f 16       	cp	r1, r31
    9f0c:	ba 0b       	sbc	r27, r26
    9f0e:	62 0b       	sbc	r22, r18
    9f10:	73 0b       	sbc	r23, r19
    9f12:	84 0b       	sbc	r24, r20
    9f14:	ba f0       	brmi	.+46     	; 0x9f44 <__addsf3x+0x98>
    9f16:	91 50       	subi	r25, 0x01	; 1
    9f18:	a1 f0       	breq	.+40     	; 0x9f42 <__addsf3x+0x96>
    9f1a:	ff 0f       	add	r31, r31
    9f1c:	bb 1f       	adc	r27, r27
    9f1e:	66 1f       	adc	r22, r22
    9f20:	77 1f       	adc	r23, r23
    9f22:	88 1f       	adc	r24, r24
    9f24:	c2 f7       	brpl	.-16     	; 0x9f16 <__addsf3x+0x6a>
    9f26:	0e c0       	rjmp	.+28     	; 0x9f44 <__addsf3x+0x98>
    9f28:	ba 0f       	add	r27, r26
    9f2a:	62 1f       	adc	r22, r18
    9f2c:	73 1f       	adc	r23, r19
    9f2e:	84 1f       	adc	r24, r20
    9f30:	48 f4       	brcc	.+18     	; 0x9f44 <__addsf3x+0x98>
    9f32:	87 95       	ror	r24
    9f34:	77 95       	ror	r23
    9f36:	67 95       	ror	r22
    9f38:	b7 95       	ror	r27
    9f3a:	f7 95       	ror	r31
    9f3c:	9e 3f       	cpi	r25, 0xFE	; 254
    9f3e:	08 f0       	brcs	.+2      	; 0x9f42 <__addsf3x+0x96>
    9f40:	b3 cf       	rjmp	.-154    	; 0x9ea8 <__addsf3+0x1e>
    9f42:	93 95       	inc	r25
    9f44:	88 0f       	add	r24, r24
    9f46:	08 f0       	brcs	.+2      	; 0x9f4a <__addsf3x+0x9e>
    9f48:	99 27       	eor	r25, r25
    9f4a:	ee 0f       	add	r30, r30
    9f4c:	97 95       	ror	r25
    9f4e:	87 95       	ror	r24
    9f50:	08 95       	ret
    9f52:	a8 d1       	rcall	.+848    	; 0xa2a4 <__fp_pscA>
    9f54:	58 f0       	brcs	.+22     	; 0x9f6c <__addsf3x+0xc0>
    9f56:	80 e8       	ldi	r24, 0x80	; 128
    9f58:	91 e0       	ldi	r25, 0x01	; 1
    9f5a:	09 f4       	brne	.+2      	; 0x9f5e <__addsf3x+0xb2>
    9f5c:	9e ef       	ldi	r25, 0xFE	; 254
    9f5e:	a9 d1       	rcall	.+850    	; 0xa2b2 <__fp_pscB>
    9f60:	28 f0       	brcs	.+10     	; 0x9f6c <__addsf3x+0xc0>
    9f62:	40 e8       	ldi	r20, 0x80	; 128
    9f64:	51 e0       	ldi	r21, 0x01	; 1
    9f66:	59 f4       	brne	.+22     	; 0x9f7e <atan2+0xe>
    9f68:	5e ef       	ldi	r21, 0xFE	; 254
    9f6a:	09 c0       	rjmp	.+18     	; 0x9f7e <atan2+0xe>
    9f6c:	73 c1       	rjmp	.+742    	; 0xa254 <__fp_nan>
    9f6e:	db c1       	rjmp	.+950    	; 0xa326 <__fp_zero>

00009f70 <atan2>:
    9f70:	e9 2f       	mov	r30, r25
    9f72:	e0 78       	andi	r30, 0x80	; 128
    9f74:	b6 d1       	rcall	.+876    	; 0xa2e2 <__fp_split3>
    9f76:	68 f3       	brcs	.-38     	; 0x9f52 <__addsf3x+0xa6>
    9f78:	09 2e       	mov	r0, r25
    9f7a:	05 2a       	or	r0, r21
    9f7c:	c1 f3       	breq	.-16     	; 0x9f6e <__addsf3x+0xc2>
    9f7e:	26 17       	cp	r18, r22
    9f80:	37 07       	cpc	r19, r23
    9f82:	48 07       	cpc	r20, r24
    9f84:	59 07       	cpc	r21, r25
    9f86:	38 f0       	brcs	.+14     	; 0x9f96 <atan2+0x26>
    9f88:	0e 2e       	mov	r0, r30
    9f8a:	07 f8       	bld	r0, 7
    9f8c:	e0 25       	eor	r30, r0
    9f8e:	69 f0       	breq	.+26     	; 0x9faa <atan2+0x3a>
    9f90:	e0 25       	eor	r30, r0
    9f92:	e0 64       	ori	r30, 0x40	; 64
    9f94:	0a c0       	rjmp	.+20     	; 0x9faa <atan2+0x3a>
    9f96:	ef 63       	ori	r30, 0x3F	; 63
    9f98:	07 f8       	bld	r0, 7
    9f9a:	00 94       	com	r0
    9f9c:	07 fa       	bst	r0, 7
    9f9e:	db 01       	movw	r26, r22
    9fa0:	b9 01       	movw	r22, r18
    9fa2:	9d 01       	movw	r18, r26
    9fa4:	dc 01       	movw	r26, r24
    9fa6:	ca 01       	movw	r24, r20
    9fa8:	ad 01       	movw	r20, r26
    9faa:	ef 93       	push	r30
    9fac:	47 d0       	rcall	.+142    	; 0xa03c <__divsf3_pse>
    9fae:	88 d1       	rcall	.+784    	; 0xa2c0 <__fp_round>
    9fb0:	0a d0       	rcall	.+20     	; 0x9fc6 <atan>
    9fb2:	5f 91       	pop	r21
    9fb4:	55 23       	and	r21, r21
    9fb6:	31 f0       	breq	.+12     	; 0x9fc4 <atan2+0x54>
    9fb8:	2b ed       	ldi	r18, 0xDB	; 219
    9fba:	3f e0       	ldi	r19, 0x0F	; 15
    9fbc:	49 e4       	ldi	r20, 0x49	; 73
    9fbe:	50 fd       	sbrc	r21, 0
    9fc0:	49 ec       	ldi	r20, 0xC9	; 201
    9fc2:	63 cf       	rjmp	.-314    	; 0x9e8a <__addsf3>
    9fc4:	08 95       	ret

00009fc6 <atan>:
    9fc6:	df 93       	push	r29
    9fc8:	dd 27       	eor	r29, r29
    9fca:	b9 2f       	mov	r27, r25
    9fcc:	bf 77       	andi	r27, 0x7F	; 127
    9fce:	40 e8       	ldi	r20, 0x80	; 128
    9fd0:	5f e3       	ldi	r21, 0x3F	; 63
    9fd2:	16 16       	cp	r1, r22
    9fd4:	17 06       	cpc	r1, r23
    9fd6:	48 07       	cpc	r20, r24
    9fd8:	5b 07       	cpc	r21, r27
    9fda:	10 f4       	brcc	.+4      	; 0x9fe0 <atan+0x1a>
    9fdc:	d9 2f       	mov	r29, r25
    9fde:	ae d1       	rcall	.+860    	; 0xa33c <inverse>
    9fe0:	9f 93       	push	r25
    9fe2:	8f 93       	push	r24
    9fe4:	7f 93       	push	r23
    9fe6:	6f 93       	push	r22
    9fe8:	55 d2       	rcall	.+1194   	; 0xa494 <square>
    9fea:	ee eb       	ldi	r30, 0xBE	; 190
    9fec:	f0 e0       	ldi	r31, 0x00	; 0
    9fee:	35 d1       	rcall	.+618    	; 0xa25a <__fp_powser>
    9ff0:	67 d1       	rcall	.+718    	; 0xa2c0 <__fp_round>
    9ff2:	2f 91       	pop	r18
    9ff4:	3f 91       	pop	r19
    9ff6:	4f 91       	pop	r20
    9ff8:	5f 91       	pop	r21
    9ffa:	b3 d1       	rcall	.+870    	; 0xa362 <__mulsf3x>
    9ffc:	dd 23       	and	r29, r29
    9ffe:	49 f0       	breq	.+18     	; 0xa012 <atan+0x4c>
    a000:	90 58       	subi	r25, 0x80	; 128
    a002:	a2 ea       	ldi	r26, 0xA2	; 162
    a004:	2a ed       	ldi	r18, 0xDA	; 218
    a006:	3f e0       	ldi	r19, 0x0F	; 15
    a008:	49 ec       	ldi	r20, 0xC9	; 201
    a00a:	5f e3       	ldi	r21, 0x3F	; 63
    a00c:	d0 78       	andi	r29, 0x80	; 128
    a00e:	5d 27       	eor	r21, r29
    a010:	4d df       	rcall	.-358    	; 0x9eac <__addsf3x>
    a012:	df 91       	pop	r29
    a014:	55 c1       	rjmp	.+682    	; 0xa2c0 <__fp_round>

0000a016 <__cmpsf2>:
    a016:	f4 d0       	rcall	.+488    	; 0xa200 <__fp_cmp>
    a018:	08 f4       	brcc	.+2      	; 0xa01c <__cmpsf2+0x6>
    a01a:	81 e0       	ldi	r24, 0x01	; 1
    a01c:	08 95       	ret

0000a01e <__divsf3>:
    a01e:	0c d0       	rcall	.+24     	; 0xa038 <__divsf3x>
    a020:	4f c1       	rjmp	.+670    	; 0xa2c0 <__fp_round>
    a022:	47 d1       	rcall	.+654    	; 0xa2b2 <__fp_pscB>
    a024:	40 f0       	brcs	.+16     	; 0xa036 <__divsf3+0x18>
    a026:	3e d1       	rcall	.+636    	; 0xa2a4 <__fp_pscA>
    a028:	30 f0       	brcs	.+12     	; 0xa036 <__divsf3+0x18>
    a02a:	21 f4       	brne	.+8      	; 0xa034 <__divsf3+0x16>
    a02c:	5f 3f       	cpi	r21, 0xFF	; 255
    a02e:	19 f0       	breq	.+6      	; 0xa036 <__divsf3+0x18>
    a030:	0b c1       	rjmp	.+534    	; 0xa248 <__fp_inf>
    a032:	51 11       	cpse	r21, r1
    a034:	79 c1       	rjmp	.+754    	; 0xa328 <__fp_szero>
    a036:	0e c1       	rjmp	.+540    	; 0xa254 <__fp_nan>

0000a038 <__divsf3x>:
    a038:	54 d1       	rcall	.+680    	; 0xa2e2 <__fp_split3>
    a03a:	98 f3       	brcs	.-26     	; 0xa022 <__divsf3+0x4>

0000a03c <__divsf3_pse>:
    a03c:	99 23       	and	r25, r25
    a03e:	c9 f3       	breq	.-14     	; 0xa032 <__divsf3+0x14>
    a040:	55 23       	and	r21, r21
    a042:	b1 f3       	breq	.-20     	; 0xa030 <__divsf3+0x12>
    a044:	95 1b       	sub	r25, r21
    a046:	55 0b       	sbc	r21, r21
    a048:	bb 27       	eor	r27, r27
    a04a:	aa 27       	eor	r26, r26
    a04c:	62 17       	cp	r22, r18
    a04e:	73 07       	cpc	r23, r19
    a050:	84 07       	cpc	r24, r20
    a052:	38 f0       	brcs	.+14     	; 0xa062 <__divsf3_pse+0x26>
    a054:	9f 5f       	subi	r25, 0xFF	; 255
    a056:	5f 4f       	sbci	r21, 0xFF	; 255
    a058:	22 0f       	add	r18, r18
    a05a:	33 1f       	adc	r19, r19
    a05c:	44 1f       	adc	r20, r20
    a05e:	aa 1f       	adc	r26, r26
    a060:	a9 f3       	breq	.-22     	; 0xa04c <__divsf3_pse+0x10>
    a062:	33 d0       	rcall	.+102    	; 0xa0ca <__divsf3_pse+0x8e>
    a064:	0e 2e       	mov	r0, r30
    a066:	3a f0       	brmi	.+14     	; 0xa076 <__divsf3_pse+0x3a>
    a068:	e0 e8       	ldi	r30, 0x80	; 128
    a06a:	30 d0       	rcall	.+96     	; 0xa0cc <__divsf3_pse+0x90>
    a06c:	91 50       	subi	r25, 0x01	; 1
    a06e:	50 40       	sbci	r21, 0x00	; 0
    a070:	e6 95       	lsr	r30
    a072:	00 1c       	adc	r0, r0
    a074:	ca f7       	brpl	.-14     	; 0xa068 <__divsf3_pse+0x2c>
    a076:	29 d0       	rcall	.+82     	; 0xa0ca <__divsf3_pse+0x8e>
    a078:	fe 2f       	mov	r31, r30
    a07a:	27 d0       	rcall	.+78     	; 0xa0ca <__divsf3_pse+0x8e>
    a07c:	66 0f       	add	r22, r22
    a07e:	77 1f       	adc	r23, r23
    a080:	88 1f       	adc	r24, r24
    a082:	bb 1f       	adc	r27, r27
    a084:	26 17       	cp	r18, r22
    a086:	37 07       	cpc	r19, r23
    a088:	48 07       	cpc	r20, r24
    a08a:	ab 07       	cpc	r26, r27
    a08c:	b0 e8       	ldi	r27, 0x80	; 128
    a08e:	09 f0       	breq	.+2      	; 0xa092 <__divsf3_pse+0x56>
    a090:	bb 0b       	sbc	r27, r27
    a092:	80 2d       	mov	r24, r0
    a094:	bf 01       	movw	r22, r30
    a096:	ff 27       	eor	r31, r31
    a098:	93 58       	subi	r25, 0x83	; 131
    a09a:	5f 4f       	sbci	r21, 0xFF	; 255
    a09c:	2a f0       	brmi	.+10     	; 0xa0a8 <__divsf3_pse+0x6c>
    a09e:	9e 3f       	cpi	r25, 0xFE	; 254
    a0a0:	51 05       	cpc	r21, r1
    a0a2:	68 f0       	brcs	.+26     	; 0xa0be <__divsf3_pse+0x82>
    a0a4:	d1 c0       	rjmp	.+418    	; 0xa248 <__fp_inf>
    a0a6:	40 c1       	rjmp	.+640    	; 0xa328 <__fp_szero>
    a0a8:	5f 3f       	cpi	r21, 0xFF	; 255
    a0aa:	ec f3       	brlt	.-6      	; 0xa0a6 <__divsf3_pse+0x6a>
    a0ac:	98 3e       	cpi	r25, 0xE8	; 232
    a0ae:	dc f3       	brlt	.-10     	; 0xa0a6 <__divsf3_pse+0x6a>
    a0b0:	86 95       	lsr	r24
    a0b2:	77 95       	ror	r23
    a0b4:	67 95       	ror	r22
    a0b6:	b7 95       	ror	r27
    a0b8:	f7 95       	ror	r31
    a0ba:	9f 5f       	subi	r25, 0xFF	; 255
    a0bc:	c9 f7       	brne	.-14     	; 0xa0b0 <__divsf3_pse+0x74>
    a0be:	88 0f       	add	r24, r24
    a0c0:	91 1d       	adc	r25, r1
    a0c2:	96 95       	lsr	r25
    a0c4:	87 95       	ror	r24
    a0c6:	97 f9       	bld	r25, 7
    a0c8:	08 95       	ret
    a0ca:	e1 e0       	ldi	r30, 0x01	; 1
    a0cc:	66 0f       	add	r22, r22
    a0ce:	77 1f       	adc	r23, r23
    a0d0:	88 1f       	adc	r24, r24
    a0d2:	bb 1f       	adc	r27, r27
    a0d4:	62 17       	cp	r22, r18
    a0d6:	73 07       	cpc	r23, r19
    a0d8:	84 07       	cpc	r24, r20
    a0da:	ba 07       	cpc	r27, r26
    a0dc:	20 f0       	brcs	.+8      	; 0xa0e6 <__divsf3_pse+0xaa>
    a0de:	62 1b       	sub	r22, r18
    a0e0:	73 0b       	sbc	r23, r19
    a0e2:	84 0b       	sbc	r24, r20
    a0e4:	ba 0b       	sbc	r27, r26
    a0e6:	ee 1f       	adc	r30, r30
    a0e8:	88 f7       	brcc	.-30     	; 0xa0cc <__divsf3_pse+0x90>
    a0ea:	e0 95       	com	r30
    a0ec:	08 95       	ret

0000a0ee <__fixsfsi>:
    a0ee:	04 d0       	rcall	.+8      	; 0xa0f8 <__fixunssfsi>
    a0f0:	68 94       	set
    a0f2:	b1 11       	cpse	r27, r1
    a0f4:	19 c1       	rjmp	.+562    	; 0xa328 <__fp_szero>
    a0f6:	08 95       	ret

0000a0f8 <__fixunssfsi>:
    a0f8:	fc d0       	rcall	.+504    	; 0xa2f2 <__fp_splitA>
    a0fa:	88 f0       	brcs	.+34     	; 0xa11e <__fixunssfsi+0x26>
    a0fc:	9f 57       	subi	r25, 0x7F	; 127
    a0fe:	90 f0       	brcs	.+36     	; 0xa124 <__fixunssfsi+0x2c>
    a100:	b9 2f       	mov	r27, r25
    a102:	99 27       	eor	r25, r25
    a104:	b7 51       	subi	r27, 0x17	; 23
    a106:	a0 f0       	brcs	.+40     	; 0xa130 <__fixunssfsi+0x38>
    a108:	d1 f0       	breq	.+52     	; 0xa13e <__fixunssfsi+0x46>
    a10a:	66 0f       	add	r22, r22
    a10c:	77 1f       	adc	r23, r23
    a10e:	88 1f       	adc	r24, r24
    a110:	99 1f       	adc	r25, r25
    a112:	1a f0       	brmi	.+6      	; 0xa11a <__fixunssfsi+0x22>
    a114:	ba 95       	dec	r27
    a116:	c9 f7       	brne	.-14     	; 0xa10a <__fixunssfsi+0x12>
    a118:	12 c0       	rjmp	.+36     	; 0xa13e <__fixunssfsi+0x46>
    a11a:	b1 30       	cpi	r27, 0x01	; 1
    a11c:	81 f0       	breq	.+32     	; 0xa13e <__fixunssfsi+0x46>
    a11e:	03 d1       	rcall	.+518    	; 0xa326 <__fp_zero>
    a120:	b1 e0       	ldi	r27, 0x01	; 1
    a122:	08 95       	ret
    a124:	00 c1       	rjmp	.+512    	; 0xa326 <__fp_zero>
    a126:	67 2f       	mov	r22, r23
    a128:	78 2f       	mov	r23, r24
    a12a:	88 27       	eor	r24, r24
    a12c:	b8 5f       	subi	r27, 0xF8	; 248
    a12e:	39 f0       	breq	.+14     	; 0xa13e <__fixunssfsi+0x46>
    a130:	b9 3f       	cpi	r27, 0xF9	; 249
    a132:	cc f3       	brlt	.-14     	; 0xa126 <__fixunssfsi+0x2e>
    a134:	86 95       	lsr	r24
    a136:	77 95       	ror	r23
    a138:	67 95       	ror	r22
    a13a:	b3 95       	inc	r27
    a13c:	d9 f7       	brne	.-10     	; 0xa134 <__fixunssfsi+0x3c>
    a13e:	3e f4       	brtc	.+14     	; 0xa14e <__fixunssfsi+0x56>
    a140:	90 95       	com	r25
    a142:	80 95       	com	r24
    a144:	70 95       	com	r23
    a146:	61 95       	neg	r22
    a148:	7f 4f       	sbci	r23, 0xFF	; 255
    a14a:	8f 4f       	sbci	r24, 0xFF	; 255
    a14c:	9f 4f       	sbci	r25, 0xFF	; 255
    a14e:	08 95       	ret

0000a150 <__floatunsisf>:
    a150:	e8 94       	clt
    a152:	09 c0       	rjmp	.+18     	; 0xa166 <__floatsisf+0x12>

0000a154 <__floatsisf>:
    a154:	97 fb       	bst	r25, 7
    a156:	3e f4       	brtc	.+14     	; 0xa166 <__floatsisf+0x12>
    a158:	90 95       	com	r25
    a15a:	80 95       	com	r24
    a15c:	70 95       	com	r23
    a15e:	61 95       	neg	r22
    a160:	7f 4f       	sbci	r23, 0xFF	; 255
    a162:	8f 4f       	sbci	r24, 0xFF	; 255
    a164:	9f 4f       	sbci	r25, 0xFF	; 255
    a166:	99 23       	and	r25, r25
    a168:	a9 f0       	breq	.+42     	; 0xa194 <__floatsisf+0x40>
    a16a:	f9 2f       	mov	r31, r25
    a16c:	96 e9       	ldi	r25, 0x96	; 150
    a16e:	bb 27       	eor	r27, r27
    a170:	93 95       	inc	r25
    a172:	f6 95       	lsr	r31
    a174:	87 95       	ror	r24
    a176:	77 95       	ror	r23
    a178:	67 95       	ror	r22
    a17a:	b7 95       	ror	r27
    a17c:	f1 11       	cpse	r31, r1
    a17e:	f8 cf       	rjmp	.-16     	; 0xa170 <__floatsisf+0x1c>
    a180:	fa f4       	brpl	.+62     	; 0xa1c0 <__floatsisf+0x6c>
    a182:	bb 0f       	add	r27, r27
    a184:	11 f4       	brne	.+4      	; 0xa18a <__floatsisf+0x36>
    a186:	60 ff       	sbrs	r22, 0
    a188:	1b c0       	rjmp	.+54     	; 0xa1c0 <__floatsisf+0x6c>
    a18a:	6f 5f       	subi	r22, 0xFF	; 255
    a18c:	7f 4f       	sbci	r23, 0xFF	; 255
    a18e:	8f 4f       	sbci	r24, 0xFF	; 255
    a190:	9f 4f       	sbci	r25, 0xFF	; 255
    a192:	16 c0       	rjmp	.+44     	; 0xa1c0 <__floatsisf+0x6c>
    a194:	88 23       	and	r24, r24
    a196:	11 f0       	breq	.+4      	; 0xa19c <__floatsisf+0x48>
    a198:	96 e9       	ldi	r25, 0x96	; 150
    a19a:	11 c0       	rjmp	.+34     	; 0xa1be <__floatsisf+0x6a>
    a19c:	77 23       	and	r23, r23
    a19e:	21 f0       	breq	.+8      	; 0xa1a8 <__floatsisf+0x54>
    a1a0:	9e e8       	ldi	r25, 0x8E	; 142
    a1a2:	87 2f       	mov	r24, r23
    a1a4:	76 2f       	mov	r23, r22
    a1a6:	05 c0       	rjmp	.+10     	; 0xa1b2 <__floatsisf+0x5e>
    a1a8:	66 23       	and	r22, r22
    a1aa:	71 f0       	breq	.+28     	; 0xa1c8 <__floatsisf+0x74>
    a1ac:	96 e8       	ldi	r25, 0x86	; 134
    a1ae:	86 2f       	mov	r24, r22
    a1b0:	70 e0       	ldi	r23, 0x00	; 0
    a1b2:	60 e0       	ldi	r22, 0x00	; 0
    a1b4:	2a f0       	brmi	.+10     	; 0xa1c0 <__floatsisf+0x6c>
    a1b6:	9a 95       	dec	r25
    a1b8:	66 0f       	add	r22, r22
    a1ba:	77 1f       	adc	r23, r23
    a1bc:	88 1f       	adc	r24, r24
    a1be:	da f7       	brpl	.-10     	; 0xa1b6 <__floatsisf+0x62>
    a1c0:	88 0f       	add	r24, r24
    a1c2:	96 95       	lsr	r25
    a1c4:	87 95       	ror	r24
    a1c6:	97 f9       	bld	r25, 7
    a1c8:	08 95       	ret

0000a1ca <__fp_arccos>:
    a1ca:	df 93       	push	r29
    a1cc:	cf 93       	push	r28
    a1ce:	1f 93       	push	r17
    a1d0:	0f 93       	push	r16
    a1d2:	8b 01       	movw	r16, r22
    a1d4:	ec 01       	movw	r28, r24
    a1d6:	eb ee       	ldi	r30, 0xEB	; 235
    a1d8:	f0 e0       	ldi	r31, 0x00	; 0
    a1da:	3f d0       	rcall	.+126    	; 0xa25a <__fp_powser>
    a1dc:	71 d0       	rcall	.+226    	; 0xa2c0 <__fp_round>
    a1de:	98 01       	movw	r18, r16
    a1e0:	ae 01       	movw	r20, r28
    a1e2:	8b 01       	movw	r16, r22
    a1e4:	ec 01       	movw	r28, r24
    a1e6:	60 e0       	ldi	r22, 0x00	; 0
    a1e8:	70 e0       	ldi	r23, 0x00	; 0
    a1ea:	80 e8       	ldi	r24, 0x80	; 128
    a1ec:	9f e3       	ldi	r25, 0x3F	; 63
    a1ee:	4c de       	rcall	.-872    	; 0x9e88 <__subsf3>
    a1f0:	13 d1       	rcall	.+550    	; 0xa418 <sqrt>
    a1f2:	98 01       	movw	r18, r16
    a1f4:	ae 01       	movw	r20, r28
    a1f6:	0f 91       	pop	r16
    a1f8:	1f 91       	pop	r17
    a1fa:	cf 91       	pop	r28
    a1fc:	df 91       	pop	r29
    a1fe:	b1 c0       	rjmp	.+354    	; 0xa362 <__mulsf3x>

0000a200 <__fp_cmp>:
    a200:	99 0f       	add	r25, r25
    a202:	00 08       	sbc	r0, r0
    a204:	55 0f       	add	r21, r21
    a206:	aa 0b       	sbc	r26, r26
    a208:	e0 e8       	ldi	r30, 0x80	; 128
    a20a:	fe ef       	ldi	r31, 0xFE	; 254
    a20c:	16 16       	cp	r1, r22
    a20e:	17 06       	cpc	r1, r23
    a210:	e8 07       	cpc	r30, r24
    a212:	f9 07       	cpc	r31, r25
    a214:	c0 f0       	brcs	.+48     	; 0xa246 <__fp_cmp+0x46>
    a216:	12 16       	cp	r1, r18
    a218:	13 06       	cpc	r1, r19
    a21a:	e4 07       	cpc	r30, r20
    a21c:	f5 07       	cpc	r31, r21
    a21e:	98 f0       	brcs	.+38     	; 0xa246 <__fp_cmp+0x46>
    a220:	62 1b       	sub	r22, r18
    a222:	73 0b       	sbc	r23, r19
    a224:	84 0b       	sbc	r24, r20
    a226:	95 0b       	sbc	r25, r21
    a228:	39 f4       	brne	.+14     	; 0xa238 <__fp_cmp+0x38>
    a22a:	0a 26       	eor	r0, r26
    a22c:	61 f0       	breq	.+24     	; 0xa246 <__fp_cmp+0x46>
    a22e:	23 2b       	or	r18, r19
    a230:	24 2b       	or	r18, r20
    a232:	25 2b       	or	r18, r21
    a234:	21 f4       	brne	.+8      	; 0xa23e <__fp_cmp+0x3e>
    a236:	08 95       	ret
    a238:	0a 26       	eor	r0, r26
    a23a:	09 f4       	brne	.+2      	; 0xa23e <__fp_cmp+0x3e>
    a23c:	a1 40       	sbci	r26, 0x01	; 1
    a23e:	a6 95       	lsr	r26
    a240:	8f ef       	ldi	r24, 0xFF	; 255
    a242:	81 1d       	adc	r24, r1
    a244:	81 1d       	adc	r24, r1
    a246:	08 95       	ret

0000a248 <__fp_inf>:
    a248:	97 f9       	bld	r25, 7
    a24a:	9f 67       	ori	r25, 0x7F	; 127
    a24c:	80 e8       	ldi	r24, 0x80	; 128
    a24e:	70 e0       	ldi	r23, 0x00	; 0
    a250:	60 e0       	ldi	r22, 0x00	; 0
    a252:	08 95       	ret

0000a254 <__fp_nan>:
    a254:	9f ef       	ldi	r25, 0xFF	; 255
    a256:	80 ec       	ldi	r24, 0xC0	; 192
    a258:	08 95       	ret

0000a25a <__fp_powser>:
    a25a:	df 93       	push	r29
    a25c:	cf 93       	push	r28
    a25e:	1f 93       	push	r17
    a260:	0f 93       	push	r16
    a262:	ff 92       	push	r15
    a264:	ef 92       	push	r14
    a266:	df 92       	push	r13
    a268:	7b 01       	movw	r14, r22
    a26a:	8c 01       	movw	r16, r24
    a26c:	68 94       	set
    a26e:	05 c0       	rjmp	.+10     	; 0xa27a <__fp_powser+0x20>
    a270:	da 2e       	mov	r13, r26
    a272:	ef 01       	movw	r28, r30
    a274:	76 d0       	rcall	.+236    	; 0xa362 <__mulsf3x>
    a276:	fe 01       	movw	r30, r28
    a278:	e8 94       	clt
    a27a:	a5 91       	lpm	r26, Z+
    a27c:	25 91       	lpm	r18, Z+
    a27e:	35 91       	lpm	r19, Z+
    a280:	45 91       	lpm	r20, Z+
    a282:	55 91       	lpm	r21, Z+
    a284:	ae f3       	brts	.-22     	; 0xa270 <__fp_powser+0x16>
    a286:	ef 01       	movw	r28, r30
    a288:	11 de       	rcall	.-990    	; 0x9eac <__addsf3x>
    a28a:	fe 01       	movw	r30, r28
    a28c:	97 01       	movw	r18, r14
    a28e:	a8 01       	movw	r20, r16
    a290:	da 94       	dec	r13
    a292:	79 f7       	brne	.-34     	; 0xa272 <__fp_powser+0x18>
    a294:	df 90       	pop	r13
    a296:	ef 90       	pop	r14
    a298:	ff 90       	pop	r15
    a29a:	0f 91       	pop	r16
    a29c:	1f 91       	pop	r17
    a29e:	cf 91       	pop	r28
    a2a0:	df 91       	pop	r29
    a2a2:	08 95       	ret

0000a2a4 <__fp_pscA>:
    a2a4:	00 24       	eor	r0, r0
    a2a6:	0a 94       	dec	r0
    a2a8:	16 16       	cp	r1, r22
    a2aa:	17 06       	cpc	r1, r23
    a2ac:	18 06       	cpc	r1, r24
    a2ae:	09 06       	cpc	r0, r25
    a2b0:	08 95       	ret

0000a2b2 <__fp_pscB>:
    a2b2:	00 24       	eor	r0, r0
    a2b4:	0a 94       	dec	r0
    a2b6:	12 16       	cp	r1, r18
    a2b8:	13 06       	cpc	r1, r19
    a2ba:	14 06       	cpc	r1, r20
    a2bc:	05 06       	cpc	r0, r21
    a2be:	08 95       	ret

0000a2c0 <__fp_round>:
    a2c0:	09 2e       	mov	r0, r25
    a2c2:	03 94       	inc	r0
    a2c4:	00 0c       	add	r0, r0
    a2c6:	11 f4       	brne	.+4      	; 0xa2cc <__fp_round+0xc>
    a2c8:	88 23       	and	r24, r24
    a2ca:	52 f0       	brmi	.+20     	; 0xa2e0 <__fp_round+0x20>
    a2cc:	bb 0f       	add	r27, r27
    a2ce:	40 f4       	brcc	.+16     	; 0xa2e0 <__fp_round+0x20>
    a2d0:	bf 2b       	or	r27, r31
    a2d2:	11 f4       	brne	.+4      	; 0xa2d8 <__fp_round+0x18>
    a2d4:	60 ff       	sbrs	r22, 0
    a2d6:	04 c0       	rjmp	.+8      	; 0xa2e0 <__fp_round+0x20>
    a2d8:	6f 5f       	subi	r22, 0xFF	; 255
    a2da:	7f 4f       	sbci	r23, 0xFF	; 255
    a2dc:	8f 4f       	sbci	r24, 0xFF	; 255
    a2de:	9f 4f       	sbci	r25, 0xFF	; 255
    a2e0:	08 95       	ret

0000a2e2 <__fp_split3>:
    a2e2:	57 fd       	sbrc	r21, 7
    a2e4:	90 58       	subi	r25, 0x80	; 128
    a2e6:	44 0f       	add	r20, r20
    a2e8:	55 1f       	adc	r21, r21
    a2ea:	59 f0       	breq	.+22     	; 0xa302 <__fp_splitA+0x10>
    a2ec:	5f 3f       	cpi	r21, 0xFF	; 255
    a2ee:	71 f0       	breq	.+28     	; 0xa30c <__fp_splitA+0x1a>
    a2f0:	47 95       	ror	r20

0000a2f2 <__fp_splitA>:
    a2f2:	88 0f       	add	r24, r24
    a2f4:	97 fb       	bst	r25, 7
    a2f6:	99 1f       	adc	r25, r25
    a2f8:	61 f0       	breq	.+24     	; 0xa312 <__fp_splitA+0x20>
    a2fa:	9f 3f       	cpi	r25, 0xFF	; 255
    a2fc:	79 f0       	breq	.+30     	; 0xa31c <__fp_splitA+0x2a>
    a2fe:	87 95       	ror	r24
    a300:	08 95       	ret
    a302:	12 16       	cp	r1, r18
    a304:	13 06       	cpc	r1, r19
    a306:	14 06       	cpc	r1, r20
    a308:	55 1f       	adc	r21, r21
    a30a:	f2 cf       	rjmp	.-28     	; 0xa2f0 <__fp_split3+0xe>
    a30c:	46 95       	lsr	r20
    a30e:	f1 df       	rcall	.-30     	; 0xa2f2 <__fp_splitA>
    a310:	08 c0       	rjmp	.+16     	; 0xa322 <__fp_splitA+0x30>
    a312:	16 16       	cp	r1, r22
    a314:	17 06       	cpc	r1, r23
    a316:	18 06       	cpc	r1, r24
    a318:	99 1f       	adc	r25, r25
    a31a:	f1 cf       	rjmp	.-30     	; 0xa2fe <__fp_splitA+0xc>
    a31c:	86 95       	lsr	r24
    a31e:	71 05       	cpc	r23, r1
    a320:	61 05       	cpc	r22, r1
    a322:	08 94       	sec
    a324:	08 95       	ret

0000a326 <__fp_zero>:
    a326:	e8 94       	clt

0000a328 <__fp_szero>:
    a328:	bb 27       	eor	r27, r27
    a32a:	66 27       	eor	r22, r22
    a32c:	77 27       	eor	r23, r23
    a32e:	cb 01       	movw	r24, r22
    a330:	97 f9       	bld	r25, 7
    a332:	08 95       	ret

0000a334 <__gesf2>:
    a334:	65 df       	rcall	.-310    	; 0xa200 <__fp_cmp>
    a336:	08 f4       	brcc	.+2      	; 0xa33a <__gesf2+0x6>
    a338:	8f ef       	ldi	r24, 0xFF	; 255
    a33a:	08 95       	ret

0000a33c <inverse>:
    a33c:	9b 01       	movw	r18, r22
    a33e:	ac 01       	movw	r20, r24
    a340:	60 e0       	ldi	r22, 0x00	; 0
    a342:	70 e0       	ldi	r23, 0x00	; 0
    a344:	80 e8       	ldi	r24, 0x80	; 128
    a346:	9f e3       	ldi	r25, 0x3F	; 63
    a348:	6a ce       	rjmp	.-812    	; 0xa01e <__divsf3>

0000a34a <__mulsf3>:
    a34a:	0b d0       	rcall	.+22     	; 0xa362 <__mulsf3x>
    a34c:	b9 cf       	rjmp	.-142    	; 0xa2c0 <__fp_round>
    a34e:	aa df       	rcall	.-172    	; 0xa2a4 <__fp_pscA>
    a350:	28 f0       	brcs	.+10     	; 0xa35c <__mulsf3+0x12>
    a352:	af df       	rcall	.-162    	; 0xa2b2 <__fp_pscB>
    a354:	18 f0       	brcs	.+6      	; 0xa35c <__mulsf3+0x12>
    a356:	95 23       	and	r25, r21
    a358:	09 f0       	breq	.+2      	; 0xa35c <__mulsf3+0x12>
    a35a:	76 cf       	rjmp	.-276    	; 0xa248 <__fp_inf>
    a35c:	7b cf       	rjmp	.-266    	; 0xa254 <__fp_nan>
    a35e:	11 24       	eor	r1, r1
    a360:	e3 cf       	rjmp	.-58     	; 0xa328 <__fp_szero>

0000a362 <__mulsf3x>:
    a362:	bf df       	rcall	.-130    	; 0xa2e2 <__fp_split3>
    a364:	a0 f3       	brcs	.-24     	; 0xa34e <__mulsf3+0x4>

0000a366 <__mulsf3_pse>:
    a366:	95 9f       	mul	r25, r21
    a368:	d1 f3       	breq	.-12     	; 0xa35e <__mulsf3+0x14>
    a36a:	95 0f       	add	r25, r21
    a36c:	50 e0       	ldi	r21, 0x00	; 0
    a36e:	55 1f       	adc	r21, r21
    a370:	62 9f       	mul	r22, r18
    a372:	f0 01       	movw	r30, r0
    a374:	72 9f       	mul	r23, r18
    a376:	bb 27       	eor	r27, r27
    a378:	f0 0d       	add	r31, r0
    a37a:	b1 1d       	adc	r27, r1
    a37c:	63 9f       	mul	r22, r19
    a37e:	aa 27       	eor	r26, r26
    a380:	f0 0d       	add	r31, r0
    a382:	b1 1d       	adc	r27, r1
    a384:	aa 1f       	adc	r26, r26
    a386:	64 9f       	mul	r22, r20
    a388:	66 27       	eor	r22, r22
    a38a:	b0 0d       	add	r27, r0
    a38c:	a1 1d       	adc	r26, r1
    a38e:	66 1f       	adc	r22, r22
    a390:	82 9f       	mul	r24, r18
    a392:	22 27       	eor	r18, r18
    a394:	b0 0d       	add	r27, r0
    a396:	a1 1d       	adc	r26, r1
    a398:	62 1f       	adc	r22, r18
    a39a:	73 9f       	mul	r23, r19
    a39c:	b0 0d       	add	r27, r0
    a39e:	a1 1d       	adc	r26, r1
    a3a0:	62 1f       	adc	r22, r18
    a3a2:	83 9f       	mul	r24, r19
    a3a4:	a0 0d       	add	r26, r0
    a3a6:	61 1d       	adc	r22, r1
    a3a8:	22 1f       	adc	r18, r18
    a3aa:	74 9f       	mul	r23, r20
    a3ac:	33 27       	eor	r19, r19
    a3ae:	a0 0d       	add	r26, r0
    a3b0:	61 1d       	adc	r22, r1
    a3b2:	23 1f       	adc	r18, r19
    a3b4:	84 9f       	mul	r24, r20
    a3b6:	60 0d       	add	r22, r0
    a3b8:	21 1d       	adc	r18, r1
    a3ba:	82 2f       	mov	r24, r18
    a3bc:	76 2f       	mov	r23, r22
    a3be:	6a 2f       	mov	r22, r26
    a3c0:	11 24       	eor	r1, r1
    a3c2:	9f 57       	subi	r25, 0x7F	; 127
    a3c4:	50 40       	sbci	r21, 0x00	; 0
    a3c6:	8a f0       	brmi	.+34     	; 0xa3ea <__mulsf3_pse+0x84>
    a3c8:	e1 f0       	breq	.+56     	; 0xa402 <__mulsf3_pse+0x9c>
    a3ca:	88 23       	and	r24, r24
    a3cc:	4a f0       	brmi	.+18     	; 0xa3e0 <__mulsf3_pse+0x7a>
    a3ce:	ee 0f       	add	r30, r30
    a3d0:	ff 1f       	adc	r31, r31
    a3d2:	bb 1f       	adc	r27, r27
    a3d4:	66 1f       	adc	r22, r22
    a3d6:	77 1f       	adc	r23, r23
    a3d8:	88 1f       	adc	r24, r24
    a3da:	91 50       	subi	r25, 0x01	; 1
    a3dc:	50 40       	sbci	r21, 0x00	; 0
    a3de:	a9 f7       	brne	.-22     	; 0xa3ca <__mulsf3_pse+0x64>
    a3e0:	9e 3f       	cpi	r25, 0xFE	; 254
    a3e2:	51 05       	cpc	r21, r1
    a3e4:	70 f0       	brcs	.+28     	; 0xa402 <__mulsf3_pse+0x9c>
    a3e6:	30 cf       	rjmp	.-416    	; 0xa248 <__fp_inf>
    a3e8:	9f cf       	rjmp	.-194    	; 0xa328 <__fp_szero>
    a3ea:	5f 3f       	cpi	r21, 0xFF	; 255
    a3ec:	ec f3       	brlt	.-6      	; 0xa3e8 <__mulsf3_pse+0x82>
    a3ee:	98 3e       	cpi	r25, 0xE8	; 232
    a3f0:	dc f3       	brlt	.-10     	; 0xa3e8 <__mulsf3_pse+0x82>
    a3f2:	86 95       	lsr	r24
    a3f4:	77 95       	ror	r23
    a3f6:	67 95       	ror	r22
    a3f8:	b7 95       	ror	r27
    a3fa:	f7 95       	ror	r31
    a3fc:	e7 95       	ror	r30
    a3fe:	9f 5f       	subi	r25, 0xFF	; 255
    a400:	c1 f7       	brne	.-16     	; 0xa3f2 <__mulsf3_pse+0x8c>
    a402:	fe 2b       	or	r31, r30
    a404:	88 0f       	add	r24, r24
    a406:	91 1d       	adc	r25, r1
    a408:	96 95       	lsr	r25
    a40a:	87 95       	ror	r24
    a40c:	97 f9       	bld	r25, 7
    a40e:	08 95       	ret
    a410:	11 f4       	brne	.+4      	; 0xa416 <__mulsf3_pse+0xb0>
    a412:	0e f4       	brtc	.+2      	; 0xa416 <__mulsf3_pse+0xb0>
    a414:	1f cf       	rjmp	.-450    	; 0xa254 <__fp_nan>
    a416:	41 c0       	rjmp	.+130    	; 0xa49a <__fp_mpack>

0000a418 <sqrt>:
    a418:	6c df       	rcall	.-296    	; 0xa2f2 <__fp_splitA>
    a41a:	d0 f3       	brcs	.-12     	; 0xa410 <__mulsf3_pse+0xaa>
    a41c:	99 23       	and	r25, r25
    a41e:	d9 f3       	breq	.-10     	; 0xa416 <__mulsf3_pse+0xb0>
    a420:	ce f3       	brts	.-14     	; 0xa414 <__mulsf3_pse+0xae>
    a422:	9f 57       	subi	r25, 0x7F	; 127
    a424:	55 0b       	sbc	r21, r21
    a426:	87 ff       	sbrs	r24, 7
    a428:	46 d0       	rcall	.+140    	; 0xa4b6 <__fp_norm2>
    a42a:	00 24       	eor	r0, r0
    a42c:	a0 e6       	ldi	r26, 0x60	; 96
    a42e:	40 ea       	ldi	r20, 0xA0	; 160
    a430:	90 01       	movw	r18, r0
    a432:	80 58       	subi	r24, 0x80	; 128
    a434:	56 95       	lsr	r21
    a436:	97 95       	ror	r25
    a438:	28 f4       	brcc	.+10     	; 0xa444 <sqrt+0x2c>
    a43a:	80 5c       	subi	r24, 0xC0	; 192
    a43c:	66 0f       	add	r22, r22
    a43e:	77 1f       	adc	r23, r23
    a440:	88 1f       	adc	r24, r24
    a442:	20 f0       	brcs	.+8      	; 0xa44c <sqrt+0x34>
    a444:	26 17       	cp	r18, r22
    a446:	37 07       	cpc	r19, r23
    a448:	48 07       	cpc	r20, r24
    a44a:	30 f4       	brcc	.+12     	; 0xa458 <sqrt+0x40>
    a44c:	62 1b       	sub	r22, r18
    a44e:	73 0b       	sbc	r23, r19
    a450:	84 0b       	sbc	r24, r20
    a452:	20 29       	or	r18, r0
    a454:	31 29       	or	r19, r1
    a456:	4a 2b       	or	r20, r26
    a458:	a6 95       	lsr	r26
    a45a:	17 94       	ror	r1
    a45c:	07 94       	ror	r0
    a45e:	20 25       	eor	r18, r0
    a460:	31 25       	eor	r19, r1
    a462:	4a 27       	eor	r20, r26
    a464:	58 f7       	brcc	.-42     	; 0xa43c <sqrt+0x24>
    a466:	66 0f       	add	r22, r22
    a468:	77 1f       	adc	r23, r23
    a46a:	88 1f       	adc	r24, r24
    a46c:	20 f0       	brcs	.+8      	; 0xa476 <sqrt+0x5e>
    a46e:	26 17       	cp	r18, r22
    a470:	37 07       	cpc	r19, r23
    a472:	48 07       	cpc	r20, r24
    a474:	30 f4       	brcc	.+12     	; 0xa482 <sqrt+0x6a>
    a476:	62 0b       	sbc	r22, r18
    a478:	73 0b       	sbc	r23, r19
    a47a:	84 0b       	sbc	r24, r20
    a47c:	20 0d       	add	r18, r0
    a47e:	31 1d       	adc	r19, r1
    a480:	41 1d       	adc	r20, r1
    a482:	a0 95       	com	r26
    a484:	81 f7       	brne	.-32     	; 0xa466 <sqrt+0x4e>
    a486:	b9 01       	movw	r22, r18
    a488:	84 2f       	mov	r24, r20
    a48a:	91 58       	subi	r25, 0x81	; 129
    a48c:	88 0f       	add	r24, r24
    a48e:	96 95       	lsr	r25
    a490:	87 95       	ror	r24
    a492:	08 95       	ret

0000a494 <square>:
    a494:	9b 01       	movw	r18, r22
    a496:	ac 01       	movw	r20, r24
    a498:	58 cf       	rjmp	.-336    	; 0xa34a <__mulsf3>

0000a49a <__fp_mpack>:
    a49a:	9f 3f       	cpi	r25, 0xFF	; 255
    a49c:	31 f0       	breq	.+12     	; 0xa4aa <__fp_mpack_finite+0xc>

0000a49e <__fp_mpack_finite>:
    a49e:	91 50       	subi	r25, 0x01	; 1
    a4a0:	20 f4       	brcc	.+8      	; 0xa4aa <__fp_mpack_finite+0xc>
    a4a2:	87 95       	ror	r24
    a4a4:	77 95       	ror	r23
    a4a6:	67 95       	ror	r22
    a4a8:	b7 95       	ror	r27
    a4aa:	88 0f       	add	r24, r24
    a4ac:	91 1d       	adc	r25, r1
    a4ae:	96 95       	lsr	r25
    a4b0:	87 95       	ror	r24
    a4b2:	97 f9       	bld	r25, 7
    a4b4:	08 95       	ret

0000a4b6 <__fp_norm2>:
    a4b6:	91 50       	subi	r25, 0x01	; 1
    a4b8:	50 40       	sbci	r21, 0x00	; 0
    a4ba:	66 0f       	add	r22, r22
    a4bc:	77 1f       	adc	r23, r23
    a4be:	88 1f       	adc	r24, r24
    a4c0:	d2 f7       	brpl	.-12     	; 0xa4b6 <__fp_norm2>
    a4c2:	08 95       	ret

0000a4c4 <__divmodhi4>:
    a4c4:	97 fb       	bst	r25, 7
    a4c6:	07 2e       	mov	r0, r23
    a4c8:	16 f4       	brtc	.+4      	; 0xa4ce <__divmodhi4+0xa>
    a4ca:	00 94       	com	r0
    a4cc:	06 d0       	rcall	.+12     	; 0xa4da <__divmodhi4_neg1>
    a4ce:	77 fd       	sbrc	r23, 7
    a4d0:	08 d0       	rcall	.+16     	; 0xa4e2 <__divmodhi4_neg2>
    a4d2:	37 d0       	rcall	.+110    	; 0xa542 <__udivmodhi4>
    a4d4:	07 fc       	sbrc	r0, 7
    a4d6:	05 d0       	rcall	.+10     	; 0xa4e2 <__divmodhi4_neg2>
    a4d8:	3e f4       	brtc	.+14     	; 0xa4e8 <__divmodhi4_exit>

0000a4da <__divmodhi4_neg1>:
    a4da:	90 95       	com	r25
    a4dc:	81 95       	neg	r24
    a4de:	9f 4f       	sbci	r25, 0xFF	; 255
    a4e0:	08 95       	ret

0000a4e2 <__divmodhi4_neg2>:
    a4e2:	70 95       	com	r23
    a4e4:	61 95       	neg	r22
    a4e6:	7f 4f       	sbci	r23, 0xFF	; 255

0000a4e8 <__divmodhi4_exit>:
    a4e8:	08 95       	ret

0000a4ea <__divmodsi4>:
    a4ea:	05 2e       	mov	r0, r21
    a4ec:	97 fb       	bst	r25, 7
    a4ee:	16 f4       	brtc	.+4      	; 0xa4f4 <__divmodsi4+0xa>
    a4f0:	00 94       	com	r0
    a4f2:	0f d0       	rcall	.+30     	; 0xa512 <__negsi2>
    a4f4:	57 fd       	sbrc	r21, 7
    a4f6:	05 d0       	rcall	.+10     	; 0xa502 <__divmodsi4_neg2>
    a4f8:	38 d0       	rcall	.+112    	; 0xa56a <__udivmodsi4>
    a4fa:	07 fc       	sbrc	r0, 7
    a4fc:	02 d0       	rcall	.+4      	; 0xa502 <__divmodsi4_neg2>
    a4fe:	46 f4       	brtc	.+16     	; 0xa510 <__divmodsi4_exit>
    a500:	08 c0       	rjmp	.+16     	; 0xa512 <__negsi2>

0000a502 <__divmodsi4_neg2>:
    a502:	50 95       	com	r21
    a504:	40 95       	com	r20
    a506:	30 95       	com	r19
    a508:	21 95       	neg	r18
    a50a:	3f 4f       	sbci	r19, 0xFF	; 255
    a50c:	4f 4f       	sbci	r20, 0xFF	; 255
    a50e:	5f 4f       	sbci	r21, 0xFF	; 255

0000a510 <__divmodsi4_exit>:
    a510:	08 95       	ret

0000a512 <__negsi2>:
    a512:	90 95       	com	r25
    a514:	80 95       	com	r24
    a516:	70 95       	com	r23
    a518:	61 95       	neg	r22
    a51a:	7f 4f       	sbci	r23, 0xFF	; 255
    a51c:	8f 4f       	sbci	r24, 0xFF	; 255
    a51e:	9f 4f       	sbci	r25, 0xFF	; 255
    a520:	08 95       	ret

0000a522 <__tablejump2__>:
    a522:	ee 0f       	add	r30, r30
    a524:	ff 1f       	adc	r31, r31

0000a526 <__tablejump__>:
    a526:	05 90       	lpm	r0, Z+
    a528:	f4 91       	lpm	r31, Z
    a52a:	e0 2d       	mov	r30, r0
    a52c:	09 94       	ijmp

0000a52e <__muluhisi3>:
    a52e:	3f d0       	rcall	.+126    	; 0xa5ae <__umulhisi3>
    a530:	a5 9f       	mul	r26, r21
    a532:	90 0d       	add	r25, r0
    a534:	b4 9f       	mul	r27, r20
    a536:	90 0d       	add	r25, r0
    a538:	a4 9f       	mul	r26, r20
    a53a:	80 0d       	add	r24, r0
    a53c:	91 1d       	adc	r25, r1
    a53e:	11 24       	eor	r1, r1
    a540:	08 95       	ret

0000a542 <__udivmodhi4>:
    a542:	aa 1b       	sub	r26, r26
    a544:	bb 1b       	sub	r27, r27
    a546:	51 e1       	ldi	r21, 0x11	; 17
    a548:	07 c0       	rjmp	.+14     	; 0xa558 <__udivmodhi4_ep>

0000a54a <__udivmodhi4_loop>:
    a54a:	aa 1f       	adc	r26, r26
    a54c:	bb 1f       	adc	r27, r27
    a54e:	a6 17       	cp	r26, r22
    a550:	b7 07       	cpc	r27, r23
    a552:	10 f0       	brcs	.+4      	; 0xa558 <__udivmodhi4_ep>
    a554:	a6 1b       	sub	r26, r22
    a556:	b7 0b       	sbc	r27, r23

0000a558 <__udivmodhi4_ep>:
    a558:	88 1f       	adc	r24, r24
    a55a:	99 1f       	adc	r25, r25
    a55c:	5a 95       	dec	r21
    a55e:	a9 f7       	brne	.-22     	; 0xa54a <__udivmodhi4_loop>
    a560:	80 95       	com	r24
    a562:	90 95       	com	r25
    a564:	bc 01       	movw	r22, r24
    a566:	cd 01       	movw	r24, r26
    a568:	08 95       	ret

0000a56a <__udivmodsi4>:
    a56a:	a1 e2       	ldi	r26, 0x21	; 33
    a56c:	1a 2e       	mov	r1, r26
    a56e:	aa 1b       	sub	r26, r26
    a570:	bb 1b       	sub	r27, r27
    a572:	fd 01       	movw	r30, r26
    a574:	0d c0       	rjmp	.+26     	; 0xa590 <__udivmodsi4_ep>

0000a576 <__udivmodsi4_loop>:
    a576:	aa 1f       	adc	r26, r26
    a578:	bb 1f       	adc	r27, r27
    a57a:	ee 1f       	adc	r30, r30
    a57c:	ff 1f       	adc	r31, r31
    a57e:	a2 17       	cp	r26, r18
    a580:	b3 07       	cpc	r27, r19
    a582:	e4 07       	cpc	r30, r20
    a584:	f5 07       	cpc	r31, r21
    a586:	20 f0       	brcs	.+8      	; 0xa590 <__udivmodsi4_ep>
    a588:	a2 1b       	sub	r26, r18
    a58a:	b3 0b       	sbc	r27, r19
    a58c:	e4 0b       	sbc	r30, r20
    a58e:	f5 0b       	sbc	r31, r21

0000a590 <__udivmodsi4_ep>:
    a590:	66 1f       	adc	r22, r22
    a592:	77 1f       	adc	r23, r23
    a594:	88 1f       	adc	r24, r24
    a596:	99 1f       	adc	r25, r25
    a598:	1a 94       	dec	r1
    a59a:	69 f7       	brne	.-38     	; 0xa576 <__udivmodsi4_loop>
    a59c:	60 95       	com	r22
    a59e:	70 95       	com	r23
    a5a0:	80 95       	com	r24
    a5a2:	90 95       	com	r25
    a5a4:	9b 01       	movw	r18, r22
    a5a6:	ac 01       	movw	r20, r24
    a5a8:	bd 01       	movw	r22, r26
    a5aa:	cf 01       	movw	r24, r30
    a5ac:	08 95       	ret

0000a5ae <__umulhisi3>:
    a5ae:	a2 9f       	mul	r26, r18
    a5b0:	b0 01       	movw	r22, r0
    a5b2:	b3 9f       	mul	r27, r19
    a5b4:	c0 01       	movw	r24, r0
    a5b6:	a3 9f       	mul	r26, r19
    a5b8:	70 0d       	add	r23, r0
    a5ba:	81 1d       	adc	r24, r1
    a5bc:	11 24       	eor	r1, r1
    a5be:	91 1d       	adc	r25, r1
    a5c0:	b2 9f       	mul	r27, r18
    a5c2:	70 0d       	add	r23, r0
    a5c4:	81 1d       	adc	r24, r1
    a5c6:	11 24       	eor	r1, r1
    a5c8:	91 1d       	adc	r25, r1
    a5ca:	08 95       	ret

0000a5cc <_exit>:
    a5cc:	f8 94       	cli

0000a5ce <__stop_program>:
    a5ce:	ff cf       	rjmp	.-2      	; 0xa5ce <__stop_program>
