
Test_servo_v1.elf:     file format elf32-avr

Sections:
Idx Name          Size      VMA       LMA       File off  Algn
  0 .data         00000020  00800100  00002198  0000222c  2**0
                  CONTENTS, ALLOC, LOAD, DATA
  1 .text         00002198  00000000  00000000  00000094  2**1
                  CONTENTS, ALLOC, LOAD, READONLY, CODE
  2 .bss          000003c3  00800120  00800120  0000224c  2**0
                  ALLOC
  3 .comment      00000030  00000000  00000000  0000224c  2**0
                  CONTENTS, READONLY
  4 .debug_aranges 000000d8  00000000  00000000  0000227c  2**0
                  CONTENTS, READONLY, DEBUGGING
  5 .debug_info   00001b7c  00000000  00000000  00002354  2**0
                  CONTENTS, READONLY, DEBUGGING
  6 .debug_abbrev 00000318  00000000  00000000  00003ed0  2**0
                  CONTENTS, READONLY, DEBUGGING
  7 .debug_line   00000ae0  00000000  00000000  000041e8  2**0
                  CONTENTS, READONLY, DEBUGGING
  8 .debug_frame  000005f0  00000000  00000000  00004cc8  2**2
                  CONTENTS, READONLY, DEBUGGING
  9 .debug_str    000004c5  00000000  00000000  000052b8  2**0
                  CONTENTS, READONLY, DEBUGGING
 10 .debug_loc    00002463  00000000  00000000  0000577d  2**0
                  CONTENTS, READONLY, DEBUGGING
 11 .debug_ranges 000000c8  00000000  00000000  00007be0  2**0
                  CONTENTS, READONLY, DEBUGGING

Disassembly of section .text:

00000000 <__vectors>:
       0:	70 c0       	rjmp	.+224    	; 0xe2 <__ctors_end>
       2:	00 00       	nop
       4:	8d c0       	rjmp	.+282    	; 0x120 <__bad_interrupt>
       6:	00 00       	nop
       8:	a9 c6       	rjmp	.+3410   	; 0xd5c <__vector_2>
       a:	00 00       	nop
       c:	89 c0       	rjmp	.+274    	; 0x120 <__bad_interrupt>
       e:	00 00       	nop
      10:	87 c0       	rjmp	.+270    	; 0x120 <__bad_interrupt>
      12:	00 00       	nop
      14:	85 c0       	rjmp	.+266    	; 0x120 <__bad_interrupt>
      16:	00 00       	nop
      18:	83 c0       	rjmp	.+262    	; 0x120 <__bad_interrupt>
      1a:	00 00       	nop
      1c:	81 c0       	rjmp	.+258    	; 0x120 <__bad_interrupt>
      1e:	00 00       	nop
      20:	7f c0       	rjmp	.+254    	; 0x120 <__bad_interrupt>
      22:	00 00       	nop
      24:	7d c0       	rjmp	.+250    	; 0x120 <__bad_interrupt>
      26:	00 00       	nop
      28:	7b c0       	rjmp	.+246    	; 0x120 <__bad_interrupt>
      2a:	00 00       	nop
      2c:	79 c0       	rjmp	.+242    	; 0x120 <__bad_interrupt>
      2e:	00 00       	nop
      30:	77 c0       	rjmp	.+238    	; 0x120 <__bad_interrupt>
      32:	00 00       	nop
      34:	75 c0       	rjmp	.+234    	; 0x120 <__bad_interrupt>
      36:	00 00       	nop
      38:	73 c0       	rjmp	.+230    	; 0x120 <__bad_interrupt>
      3a:	00 00       	nop
      3c:	71 c0       	rjmp	.+226    	; 0x120 <__bad_interrupt>
      3e:	00 00       	nop
      40:	6f c0       	rjmp	.+222    	; 0x120 <__bad_interrupt>
      42:	00 00       	nop
      44:	6d c0       	rjmp	.+218    	; 0x120 <__bad_interrupt>
      46:	00 00       	nop
      48:	6c c0       	rjmp	.+216    	; 0x122 <__vector_18>
      4a:	00 00       	nop
      4c:	69 c0       	rjmp	.+210    	; 0x120 <__bad_interrupt>
      4e:	00 00       	nop
      50:	67 c0       	rjmp	.+206    	; 0x120 <__bad_interrupt>
      52:	00 00       	nop
      54:	65 c0       	rjmp	.+202    	; 0x120 <__bad_interrupt>
      56:	00 00       	nop
      58:	63 c0       	rjmp	.+198    	; 0x120 <__bad_interrupt>
      5a:	00 00       	nop
      5c:	61 c0       	rjmp	.+194    	; 0x120 <__bad_interrupt>
      5e:	00 00       	nop
      60:	5f c0       	rjmp	.+190    	; 0x120 <__bad_interrupt>
      62:	00 00       	nop
      64:	5d c0       	rjmp	.+186    	; 0x120 <__bad_interrupt>
      66:	00 00       	nop
      68:	5b c0       	rjmp	.+182    	; 0x120 <__bad_interrupt>
      6a:	00 00       	nop
      6c:	59 c0       	rjmp	.+178    	; 0x120 <__bad_interrupt>
      6e:	00 00       	nop
      70:	57 c0       	rjmp	.+174    	; 0x120 <__bad_interrupt>
      72:	00 00       	nop
      74:	55 c0       	rjmp	.+170    	; 0x120 <__bad_interrupt>
      76:	00 00       	nop
      78:	53 c0       	rjmp	.+166    	; 0x120 <__bad_interrupt>
      7a:	00 00       	nop
      7c:	51 c0       	rjmp	.+162    	; 0x120 <__bad_interrupt>
      7e:	00 00       	nop
      80:	4f c0       	rjmp	.+158    	; 0x120 <__bad_interrupt>
      82:	00 00       	nop
      84:	4d c0       	rjmp	.+154    	; 0x120 <__bad_interrupt>
      86:	00 00       	nop
      88:	4b c0       	rjmp	.+150    	; 0x120 <__bad_interrupt>
      8a:	00 00       	nop
      8c:	08 4a       	sbci	r16, 0xA8	; 168
      8e:	d7 3b       	cpi	r29, 0xB7	; 183
      90:	3b ce       	rjmp	.-906    	; 0xfffffd08 <__eeprom_end+0xff7efd08>
      92:	01 6e       	ori	r16, 0xE1	; 225
      94:	84 bc       	out	0x24, r8	; 36
      96:	bf fd       	.word	0xfdbf	; ????
      98:	c1 2f       	mov	r28, r17
      9a:	3d 6c       	ori	r19, 0xCD	; 205
      9c:	74 31       	cpi	r23, 0x14	; 20
      9e:	9a bd       	out	0x2a, r25	; 42
      a0:	56 83       	std	Z+6, r21	; 0x06
      a2:	3d da       	rcall	.-2950   	; 0xfffff51e <__eeprom_end+0xff7ef51e>
      a4:	3d 00       	.word	0x003d	; ????
      a6:	c7 7f       	andi	r28, 0xF7	; 247
      a8:	11 be       	out	0x31, r1	; 49
      aa:	d9 e4       	ldi	r29, 0x49	; 73
      ac:	bb 4c       	sbci	r27, 0xCB	; 203
      ae:	3e 91       	ld	r19, -X
      b0:	6b aa       	std	Y+51, r6	; 0x33
      b2:	aa be       	out	0x3a, r10	; 58
      b4:	00 00       	nop
      b6:	00 80       	ld	r0, Z
      b8:	3f 07       	cpc	r19, r31
      ba:	2c 7a       	andi	r18, 0xAC	; 172
      bc:	a5 ba       	out	0x15, r10	; 21
      be:	6c c5       	rjmp	.+2776   	; 0xb98 <MoveRearRightLeg+0xc6>
      c0:	90 da       	rcall	.-2784   	; 0xfffff5e2 <__eeprom_end+0xff7ef5e2>
      c2:	3b 93       	.word	0x933b	; ????
      c4:	65 fc       	sbrc	r6, 5
      c6:	8b bc       	out	0x2b, r8	; 43
      c8:	53 f8       	bld	r5, 3
      ca:	10 fd       	sbrc	r17, 0
      cc:	3c 56       	subi	r19, 0x6C	; 108
      ce:	92 83       	std	Z+2, r25	; 0x02
      d0:	4d bd       	out	0x2d, r20	; 45
      d2:	87 9d       	mul	r24, r7
      d4:	3a b6       	in	r3, 0x3a	; 58
      d6:	3d cb       	rjmp	.-2438   	; 0xfffff752 <__eeprom_end+0xff7ef752>
      d8:	c9 bf       	out	0x39, r28	; 57
      da:	5b be       	out	0x3b, r5	; 59
      dc:	73 da       	rcall	.-2842   	; 0xfffff5c4 <__eeprom_end+0xff7ef5c4>
      de:	0f c9       	rjmp	.-3554   	; 0xfffff2fe <__eeprom_end+0xff7ef2fe>
      e0:	3f 00       	.word	0x003f	; ????

000000e2 <__ctors_end>:
      e2:	11 24       	eor	r1, r1
      e4:	1f be       	out	0x3f, r1	; 63
      e6:	cf ef       	ldi	r28, 0xFF	; 255
      e8:	d0 e4       	ldi	r29, 0x40	; 64
      ea:	de bf       	out	0x3e, r29	; 62
      ec:	cd bf       	out	0x3d, r28	; 61

000000ee <__do_copy_data>:
      ee:	11 e0       	ldi	r17, 0x01	; 1
      f0:	a0 e0       	ldi	r26, 0x00	; 0
      f2:	b1 e0       	ldi	r27, 0x01	; 1
      f4:	e8 e9       	ldi	r30, 0x98	; 152
      f6:	f1 e2       	ldi	r31, 0x21	; 33
      f8:	00 e0       	ldi	r16, 0x00	; 0
      fa:	0b bf       	out	0x3b, r16	; 59
      fc:	02 c0       	rjmp	.+4      	; 0x102 <__do_copy_data+0x14>
      fe:	07 90       	elpm	r0, Z+
     100:	0d 92       	st	X+, r0
     102:	a0 32       	cpi	r26, 0x20	; 32
     104:	b1 07       	cpc	r27, r17
     106:	d9 f7       	brne	.-10     	; 0xfe <__do_copy_data+0x10>

00000108 <__do_clear_bss>:
     108:	24 e0       	ldi	r18, 0x04	; 4
     10a:	a0 e2       	ldi	r26, 0x20	; 32
     10c:	b1 e0       	ldi	r27, 0x01	; 1
     10e:	01 c0       	rjmp	.+2      	; 0x112 <.do_clear_bss_start>

00000110 <.do_clear_bss_loop>:
     110:	1d 92       	st	X+, r1

00000112 <.do_clear_bss_start>:
     112:	a3 3e       	cpi	r26, 0xE3	; 227
     114:	b2 07       	cpc	r27, r18
     116:	e1 f7       	brne	.-8      	; 0x110 <.do_clear_bss_loop>
     118:	0e 94 61 0c 	call	0x18c2	; 0x18c2 <main>
     11c:	0c 94 ca 10 	jmp	0x2194	; 0x2194 <_exit>

00000120 <__bad_interrupt>:
     120:	6f cf       	rjmp	.-290    	; 0x0 <__vectors>

00000122 <__vector_18>:
    {
        currentPos_g = 0;
    }
    currentPos_g++;
    return;
}
     122:	1f 92       	push	r1
     124:	0f 92       	push	r0
     126:	0f b6       	in	r0, 0x3f	; 63
     128:	0f 92       	push	r0
     12a:	11 24       	eor	r1, r1
     12c:	8f 93       	push	r24
     12e:	80 91 e2 04 	lds	r24, 0x04E2
     132:	8f 5f       	subi	r24, 0xFF	; 255
     134:	80 93 e2 04 	sts	0x04E2, r24
     138:	8f 91       	pop	r24
     13a:	0f 90       	pop	r0
     13c:	0f be       	out	0x3f, r0	; 63
     13e:	0f 90       	pop	r0
     140:	1f 90       	pop	r1
     142:	18 95       	reti

00000144 <initUSART>:
     144:	84 e0       	ldi	r24, 0x04	; 4
     146:	8a b9       	out	0x0a, r24	; 10
     148:	1b b8       	out	0x0b, r1	; 11
     14a:	10 92 c5 00 	sts	0x00C5, r1
     14e:	10 92 c4 00 	sts	0x00C4, r1
     152:	88 e1       	ldi	r24, 0x18	; 24
     154:	80 93 c1 00 	sts	0x00C1, r24
     158:	86 e0       	ldi	r24, 0x06	; 6
     15a:	80 93 c2 00 	sts	0x00C2, r24
     15e:	08 95       	ret

00000160 <USARTWriteChar>:
     160:	e0 ec       	ldi	r30, 0xC0	; 192
     162:	f0 e0       	ldi	r31, 0x00	; 0
     164:	90 81       	ld	r25, Z
     166:	95 ff       	sbrs	r25, 5
     168:	fd cf       	rjmp	.-6      	; 0x164 <USARTWriteChar+0x4>
     16a:	80 93 c6 00 	sts	0x00C6, r24
     16e:	08 95       	ret

00000170 <USARTSendInstruction5>:
     170:	cf 92       	push	r12
     172:	ef 92       	push	r14
     174:	ff 92       	push	r15
     176:	0f 93       	push	r16
     178:	1f 93       	push	r17
     17a:	cf 93       	push	r28
     17c:	df 93       	push	r29
     17e:	c8 2f       	mov	r28, r24
     180:	d6 2f       	mov	r29, r22
     182:	14 2f       	mov	r17, r20
     184:	f2 2e       	mov	r15, r18
     186:	84 e0       	ldi	r24, 0x04	; 4
     188:	8b b9       	out	0x0b, r24	; 11
     18a:	e0 ec       	ldi	r30, 0xC0	; 192
     18c:	f0 e0       	ldi	r31, 0x00	; 0
     18e:	80 81       	ld	r24, Z
     190:	80 83       	st	Z, r24
     192:	8f ef       	ldi	r24, 0xFF	; 255
     194:	e5 df       	rcall	.-54     	; 0x160 <USARTWriteChar>
     196:	8f ef       	ldi	r24, 0xFF	; 255
     198:	e3 df       	rcall	.-58     	; 0x160 <USARTWriteChar>
     19a:	8c 2f       	mov	r24, r28
     19c:	e1 df       	rcall	.-62     	; 0x160 <USARTWriteChar>
     19e:	87 e0       	ldi	r24, 0x07	; 7
     1a0:	df df       	rcall	.-66     	; 0x160 <USARTWriteChar>
     1a2:	8d 2f       	mov	r24, r29
     1a4:	dd df       	rcall	.-70     	; 0x160 <USARTWriteChar>
     1a6:	81 2f       	mov	r24, r17
     1a8:	db df       	rcall	.-74     	; 0x160 <USARTWriteChar>
     1aa:	8f 2d       	mov	r24, r15
     1ac:	d9 df       	rcall	.-78     	; 0x160 <USARTWriteChar>
     1ae:	80 2f       	mov	r24, r16
     1b0:	d7 df       	rcall	.-82     	; 0x160 <USARTWriteChar>
     1b2:	8e 2d       	mov	r24, r14
     1b4:	d5 df       	rcall	.-86     	; 0x160 <USARTWriteChar>
     1b6:	8c 2d       	mov	r24, r12
     1b8:	d3 df       	rcall	.-90     	; 0x160 <USARTWriteChar>
     1ba:	f8 94       	cli
     1bc:	87 e0       	ldi	r24, 0x07	; 7
     1be:	8c 0d       	add	r24, r12
     1c0:	e8 0e       	add	r14, r24
     1c2:	0e 0d       	add	r16, r14
     1c4:	f0 0e       	add	r15, r16
     1c6:	1f 0d       	add	r17, r15
     1c8:	d1 0f       	add	r29, r17
     1ca:	8d 2f       	mov	r24, r29
     1cc:	8c 0f       	add	r24, r28
     1ce:	80 95       	com	r24
     1d0:	c7 df       	rcall	.-114    	; 0x160 <USARTWriteChar>
     1d2:	e0 ec       	ldi	r30, 0xC0	; 192
     1d4:	f0 e0       	ldi	r31, 0x00	; 0
     1d6:	80 81       	ld	r24, Z
     1d8:	86 ff       	sbrs	r24, 6
     1da:	fd cf       	rjmp	.-6      	; 0x1d6 <USARTSendInstruction5+0x66>
     1dc:	1b b8       	out	0x0b, r1	; 11
     1de:	78 94       	sei
     1e0:	df 91       	pop	r29
     1e2:	cf 91       	pop	r28
     1e4:	1f 91       	pop	r17
     1e6:	0f 91       	pop	r16
     1e8:	ff 90       	pop	r15
     1ea:	ef 90       	pop	r14
     1ec:	cf 90       	pop	r12
     1ee:	08 95       	ret

000001f0 <USARTReadChar>:
     1f0:	e0 ec       	ldi	r30, 0xC0	; 192
     1f2:	f0 e0       	ldi	r31, 0x00	; 0
     1f4:	80 81       	ld	r24, Z
     1f6:	88 23       	and	r24, r24
     1f8:	ec f7       	brge	.-6      	; 0x1f4 <USARTReadChar+0x4>
     1fa:	80 91 c6 00 	lds	r24, 0x00C6
     1fe:	08 95       	ret

00000200 <USARTReadStatusPacket>:
     200:	ff 92       	push	r15
     202:	0f 93       	push	r16
     204:	1f 93       	push	r17
     206:	cf 93       	push	r28
     208:	df 93       	push	r29
     20a:	f2 df       	rcall	.-28     	; 0x1f0 <USARTReadChar>
     20c:	f1 df       	rcall	.-30     	; 0x1f0 <USARTReadChar>
     20e:	f0 df       	rcall	.-32     	; 0x1f0 <USARTReadChar>
     210:	ef df       	rcall	.-34     	; 0x1f0 <USARTReadChar>
     212:	f8 2e       	mov	r15, r24
     214:	ed df       	rcall	.-38     	; 0x1f0 <USARTReadChar>
     216:	82 e0       	ldi	r24, 0x02	; 2
     218:	8f 15       	cp	r24, r15
     21a:	a8 f4       	brcc	.+42     	; 0x246 <USARTReadStatusPacket+0x46>
     21c:	c0 e0       	ldi	r28, 0x00	; 0
     21e:	d0 e0       	ldi	r29, 0x00	; 0
     220:	00 e0       	ldi	r16, 0x00	; 0
     222:	10 e0       	ldi	r17, 0x00	; 0
     224:	e5 df       	rcall	.-54     	; 0x1f0 <USARTReadChar>
     226:	28 2f       	mov	r18, r24
     228:	30 e0       	ldi	r19, 0x00	; 0
     22a:	0c 2e       	mov	r0, r28
     22c:	02 c0       	rjmp	.+4      	; 0x232 <USARTReadStatusPacket+0x32>
     22e:	22 0f       	add	r18, r18
     230:	33 1f       	adc	r19, r19
     232:	0a 94       	dec	r0
     234:	e2 f7       	brpl	.-8      	; 0x22e <USARTReadStatusPacket+0x2e>
     236:	02 0f       	add	r16, r18
     238:	13 1f       	adc	r17, r19
     23a:	fa 94       	dec	r15
     23c:	28 96       	adiw	r28, 0x08	; 8
     23e:	82 e0       	ldi	r24, 0x02	; 2
     240:	f8 12       	cpse	r15, r24
     242:	f0 cf       	rjmp	.-32     	; 0x224 <USARTReadStatusPacket+0x24>
     244:	02 c0       	rjmp	.+4      	; 0x24a <USARTReadStatusPacket+0x4a>
     246:	00 e0       	ldi	r16, 0x00	; 0
     248:	10 e0       	ldi	r17, 0x00	; 0
     24a:	d2 df       	rcall	.-92     	; 0x1f0 <USARTReadChar>
     24c:	c8 01       	movw	r24, r16
     24e:	df 91       	pop	r29
     250:	cf 91       	pop	r28
     252:	1f 91       	pop	r17
     254:	0f 91       	pop	r16
     256:	ff 90       	pop	r15
     258:	08 95       	ret

0000025a <MoveDynamixel>:
     25a:	4f 92       	push	r4
     25c:	5f 92       	push	r5
     25e:	6f 92       	push	r6
     260:	7f 92       	push	r7
     262:	8f 92       	push	r8
     264:	9f 92       	push	r9
     266:	af 92       	push	r10
     268:	bf 92       	push	r11
     26a:	cf 92       	push	r12
     26c:	df 92       	push	r13
     26e:	ef 92       	push	r14
     270:	ff 92       	push	r15
     272:	0f 93       	push	r16
     274:	1f 93       	push	r17
     276:	cf 93       	push	r28
     278:	df 93       	push	r29
     27a:	ec 01       	movw	r28, r24
     27c:	68 01       	movw	r12, r16
     27e:	79 01       	movw	r14, r18
     280:	4d 32       	cpi	r20, 0x2D	; 45
     282:	81 e0       	ldi	r24, 0x01	; 1
     284:	58 07       	cpc	r21, r24
     286:	61 05       	cpc	r22, r1
     288:	71 05       	cpc	r23, r1
     28a:	e0 f5       	brcc	.+120    	; 0x304 <MoveDynamixel+0xaa>
     28c:	af ef       	ldi	r26, 0xFF	; 255
     28e:	b3 e0       	ldi	r27, 0x03	; 3
     290:	9a 01       	movw	r18, r20
     292:	ab 01       	movw	r20, r22
     294:	0e 94 8f 10 	call	0x211e	; 0x211e <__muluhisi3>
     298:	2c e2       	ldi	r18, 0x2C	; 44
     29a:	31 e0       	ldi	r19, 0x01	; 1
     29c:	40 e0       	ldi	r20, 0x00	; 0
     29e:	50 e0       	ldi	r21, 0x00	; 0
     2a0:	0e 94 73 10 	call	0x20e6	; 0x20e6 <__divmodsi4>
     2a4:	49 01       	movw	r8, r18
     2a6:	5a 01       	movw	r10, r20
     2a8:	99 24       	eor	r9, r9
     2aa:	aa 24       	eor	r10, r10
     2ac:	bb 24       	eor	r11, r11
     2ae:	43 2e       	mov	r4, r19
     2b0:	51 2c       	mov	r5, r1
     2b2:	82 e7       	ldi	r24, 0x72	; 114
     2b4:	c8 16       	cp	r12, r24
     2b6:	d1 04       	cpc	r13, r1
     2b8:	e1 04       	cpc	r14, r1
     2ba:	f1 04       	cpc	r15, r1
     2bc:	a4 f4       	brge	.+40     	; 0x2e6 <MoveDynamixel+0x8c>
     2be:	af ef       	ldi	r26, 0xFF	; 255
     2c0:	b3 e0       	ldi	r27, 0x03	; 3
     2c2:	a7 01       	movw	r20, r14
     2c4:	96 01       	movw	r18, r12
     2c6:	0e 94 8f 10 	call	0x211e	; 0x211e <__muluhisi3>
     2ca:	22 e7       	ldi	r18, 0x72	; 114
     2cc:	30 e0       	ldi	r19, 0x00	; 0
     2ce:	40 e0       	ldi	r20, 0x00	; 0
     2d0:	50 e0       	ldi	r21, 0x00	; 0
     2d2:	0e 94 73 10 	call	0x20e6	; 0x20e6 <__divmodsi4>
     2d6:	79 01       	movw	r14, r18
     2d8:	8a 01       	movw	r16, r20
     2da:	ff 24       	eor	r15, r15
     2dc:	00 27       	eor	r16, r16
     2de:	11 27       	eor	r17, r17
     2e0:	43 2f       	mov	r20, r19
     2e2:	50 e0       	ldi	r21, 0x00	; 0
     2e4:	06 c0       	rjmp	.+12     	; 0x2f2 <MoveDynamixel+0x98>
     2e6:	40 e0       	ldi	r20, 0x00	; 0
     2e8:	50 e0       	ldi	r21, 0x00	; 0
     2ea:	ba 01       	movw	r22, r20
     2ec:	e1 2c       	mov	r14, r1
     2ee:	f1 2c       	mov	r15, r1
     2f0:	87 01       	movw	r16, r14
     2f2:	6a 01       	movw	r12, r20
     2f4:	82 01       	movw	r16, r4
     2f6:	94 01       	movw	r18, r8
     2f8:	4e e1       	ldi	r20, 0x1E	; 30
     2fa:	50 e0       	ldi	r21, 0x00	; 0
     2fc:	63 e0       	ldi	r22, 0x03	; 3
     2fe:	70 e0       	ldi	r23, 0x00	; 0
     300:	ce 01       	movw	r24, r28
     302:	36 df       	rcall	.-404    	; 0x170 <USARTSendInstruction5>
     304:	df 91       	pop	r29
     306:	cf 91       	pop	r28
     308:	1f 91       	pop	r17
     30a:	0f 91       	pop	r16
     30c:	ff 90       	pop	r15
     30e:	ef 90       	pop	r14
     310:	df 90       	pop	r13
     312:	cf 90       	pop	r12
     314:	bf 90       	pop	r11
     316:	af 90       	pop	r10
     318:	9f 90       	pop	r9
     31a:	8f 90       	pop	r8
     31c:	7f 90       	pop	r7
     31e:	6f 90       	pop	r6
     320:	5f 90       	pop	r5
     322:	4f 90       	pop	r4
     324:	08 95       	ret

00000326 <MoveFrontLeftLeg>:
     326:	4f 92       	push	r4
     328:	5f 92       	push	r5
     32a:	6f 92       	push	r6
     32c:	7f 92       	push	r7
     32e:	8f 92       	push	r8
     330:	9f 92       	push	r9
     332:	af 92       	push	r10
     334:	bf 92       	push	r11
     336:	cf 92       	push	r12
     338:	df 92       	push	r13
     33a:	ef 92       	push	r14
     33c:	ff 92       	push	r15
     33e:	0f 93       	push	r16
     340:	1f 93       	push	r17
     342:	cf 93       	push	r28
     344:	df 93       	push	r29
     346:	cd b7       	in	r28, 0x3d	; 61
     348:	de b7       	in	r29, 0x3e	; 62
     34a:	60 97       	sbiw	r28, 0x10	; 16
     34c:	0f b6       	in	r0, 0x3f	; 63
     34e:	f8 94       	cli
     350:	de bf       	out	0x3e, r29	; 62
     352:	0f be       	out	0x3f, r0	; 63
     354:	cd bf       	out	0x3d, r28	; 61
     356:	2b 01       	movw	r4, r22
     358:	3c 01       	movw	r6, r24
     35a:	49 01       	movw	r8, r18
     35c:	5a 01       	movw	r10, r20
     35e:	e9 82       	std	Y+1, r14	; 0x01
     360:	fa 82       	std	Y+2, r15	; 0x02
     362:	0b 83       	std	Y+3, r16	; 0x03
     364:	1c 83       	std	Y+4, r17	; 0x04
     366:	86 01       	movw	r16, r12
     368:	90 58       	subi	r25, 0x80	; 128
     36a:	0e 94 f5 0d 	call	0x1bea	; 0x1bea <atan2>
     36e:	6d 87       	std	Y+13, r22	; 0x0d
     370:	7e 87       	std	Y+14, r23	; 0x0e
     372:	8f 87       	std	Y+15, r24	; 0x0f
     374:	98 8b       	std	Y+16, r25	; 0x10
     376:	29 81       	ldd	r18, Y+1	; 0x01
     378:	3a 81       	ldd	r19, Y+2	; 0x02
     37a:	4b 81       	ldd	r20, Y+3	; 0x03
     37c:	5c 81       	ldd	r21, Y+4	; 0x04
     37e:	ca 01       	movw	r24, r20
     380:	b9 01       	movw	r22, r18
     382:	0e 94 b6 0f 	call	0x1f6c	; 0x1f6c <__mulsf3>
     386:	6b 01       	movw	r12, r22
     388:	7c 01       	movw	r14, r24
     38a:	a3 01       	movw	r20, r6
     38c:	92 01       	movw	r18, r4
     38e:	c3 01       	movw	r24, r6
     390:	b2 01       	movw	r22, r4
     392:	0e 94 b6 0f 	call	0x1f6c	; 0x1f6c <__mulsf3>
     396:	2b 01       	movw	r4, r22
     398:	3c 01       	movw	r6, r24
     39a:	a5 01       	movw	r20, r10
     39c:	94 01       	movw	r18, r8
     39e:	c5 01       	movw	r24, r10
     3a0:	b4 01       	movw	r22, r8
     3a2:	0e 94 b6 0f 	call	0x1f6c	; 0x1f6c <__mulsf3>
     3a6:	9b 01       	movw	r18, r22
     3a8:	ac 01       	movw	r20, r24
     3aa:	c3 01       	movw	r24, r6
     3ac:	b2 01       	movw	r22, r4
     3ae:	0e 94 82 0d 	call	0x1b04	; 0x1b04 <__addsf3>
     3b2:	2b 01       	movw	r4, r22
     3b4:	3c 01       	movw	r6, r24
     3b6:	0e 94 1d 10 	call	0x203a	; 0x203a <sqrt>
     3ba:	20 e0       	ldi	r18, 0x00	; 0
     3bc:	30 e0       	ldi	r19, 0x00	; 0
     3be:	48 e4       	ldi	r20, 0x48	; 72
     3c0:	52 e4       	ldi	r21, 0x42	; 66
     3c2:	0e 94 81 0d 	call	0x1b02	; 0x1b02 <__subsf3>
     3c6:	4b 01       	movw	r8, r22
     3c8:	5c 01       	movw	r10, r24
     3ca:	9b 01       	movw	r18, r22
     3cc:	ac 01       	movw	r20, r24
     3ce:	0e 94 b6 0f 	call	0x1f6c	; 0x1f6c <__mulsf3>
     3d2:	6d 83       	std	Y+5, r22	; 0x05
     3d4:	7e 83       	std	Y+6, r23	; 0x06
     3d6:	8f 83       	std	Y+7, r24	; 0x07
     3d8:	98 87       	std	Y+8, r25	; 0x08
     3da:	9b 01       	movw	r18, r22
     3dc:	ac 01       	movw	r20, r24
     3de:	c7 01       	movw	r24, r14
     3e0:	b6 01       	movw	r22, r12
     3e2:	0e 94 82 0d 	call	0x1b04	; 0x1b04 <__addsf3>
     3e6:	69 87       	std	Y+9, r22	; 0x09
     3e8:	7a 87       	std	Y+10, r23	; 0x0a
     3ea:	8b 87       	std	Y+11, r24	; 0x0b
     3ec:	9c 87       	std	Y+12, r25	; 0x0c
     3ee:	0e 94 1d 10 	call	0x203a	; 0x203a <sqrt>
     3f2:	9b 01       	movw	r18, r22
     3f4:	ac 01       	movw	r20, r24
     3f6:	69 81       	ldd	r22, Y+1	; 0x01
     3f8:	7a 81       	ldd	r23, Y+2	; 0x02
     3fa:	8b 81       	ldd	r24, Y+3	; 0x03
     3fc:	9c 81       	ldd	r25, Y+4	; 0x04
     3fe:	90 58       	subi	r25, 0x80	; 128
     400:	0e 94 48 0e 	call	0x1c90	; 0x1c90 <__divsf3>
     404:	0e 94 73 0d 	call	0x1ae6	; 0x1ae6 <acos>
     408:	69 83       	std	Y+1, r22	; 0x01
     40a:	7a 83       	std	Y+2, r23	; 0x02
     40c:	8b 83       	std	Y+3, r24	; 0x03
     40e:	9c 83       	std	Y+4, r25	; 0x04
     410:	20 e0       	ldi	r18, 0x00	; 0
     412:	30 e0       	ldi	r19, 0x00	; 0
     414:	48 e4       	ldi	r20, 0x48	; 72
     416:	52 e4       	ldi	r21, 0x42	; 66
     418:	c3 01       	movw	r24, r6
     41a:	b2 01       	movw	r22, r4
     41c:	0e 94 81 0d 	call	0x1b02	; 0x1b02 <__subsf3>
     420:	0e 94 1d 10 	call	0x203a	; 0x203a <sqrt>
     424:	9b 01       	movw	r18, r22
     426:	ac 01       	movw	r20, r24
     428:	c5 01       	movw	r24, r10
     42a:	b4 01       	movw	r22, r8
     42c:	0e 94 b6 0f 	call	0x1f6c	; 0x1f6c <__mulsf3>
     430:	9b 01       	movw	r18, r22
     432:	ac 01       	movw	r20, r24
     434:	c7 01       	movw	r24, r14
     436:	b6 01       	movw	r22, r12
     438:	0e 94 82 0d 	call	0x1b04	; 0x1b04 <__addsf3>
     43c:	0e 94 1d 10 	call	0x203a	; 0x203a <sqrt>
     440:	2b 01       	movw	r4, r22
     442:	3c 01       	movw	r6, r24
     444:	20 e0       	ldi	r18, 0x00	; 0
     446:	38 e4       	ldi	r19, 0x48	; 72
     448:	4c e8       	ldi	r20, 0x8C	; 140
     44a:	55 e4       	ldi	r21, 0x45	; 69
     44c:	69 85       	ldd	r22, Y+9	; 0x09
     44e:	7a 85       	ldd	r23, Y+10	; 0x0a
     450:	8b 85       	ldd	r24, Y+11	; 0x0b
     452:	9c 85       	ldd	r25, Y+12	; 0x0c
     454:	0e 94 82 0d 	call	0x1b04	; 0x1b04 <__addsf3>
     458:	20 e0       	ldi	r18, 0x00	; 0
     45a:	38 e0       	ldi	r19, 0x08	; 8
     45c:	44 e8       	ldi	r20, 0x84	; 132
     45e:	56 e4       	ldi	r21, 0x46	; 70
     460:	0e 94 81 0d 	call	0x1b02	; 0x1b02 <__subsf3>
     464:	4b 01       	movw	r8, r22
     466:	5c 01       	movw	r10, r24
     468:	a3 01       	movw	r20, r6
     46a:	92 01       	movw	r18, r4
     46c:	c3 01       	movw	r24, r6
     46e:	b2 01       	movw	r22, r4
     470:	0e 94 82 0d 	call	0x1b04	; 0x1b04 <__addsf3>
     474:	20 e0       	ldi	r18, 0x00	; 0
     476:	30 e0       	ldi	r19, 0x00	; 0
     478:	46 e8       	ldi	r20, 0x86	; 134
     47a:	52 e4       	ldi	r21, 0x42	; 66
     47c:	0e 94 b6 0f 	call	0x1f6c	; 0x1f6c <__mulsf3>
     480:	9b 01       	movw	r18, r22
     482:	ac 01       	movw	r20, r24
     484:	c5 01       	movw	r24, r10
     486:	b4 01       	movw	r22, r8
     488:	0e 94 48 0e 	call	0x1c90	; 0x1c90 <__divsf3>
     48c:	0e 94 73 0d 	call	0x1ae6	; 0x1ae6 <acos>
     490:	2b 01       	movw	r4, r22
     492:	3c 01       	movw	r6, r24
     494:	a7 01       	movw	r20, r14
     496:	96 01       	movw	r18, r12
     498:	60 e0       	ldi	r22, 0x00	; 0
     49a:	7a e1       	ldi	r23, 0x1A	; 26
     49c:	87 ea       	ldi	r24, 0xA7	; 167
     49e:	96 e4       	ldi	r25, 0x46	; 70
     4a0:	0e 94 81 0d 	call	0x1b02	; 0x1b02 <__subsf3>
     4a4:	2d 81       	ldd	r18, Y+5	; 0x05
     4a6:	3e 81       	ldd	r19, Y+6	; 0x06
     4a8:	4f 81       	ldd	r20, Y+7	; 0x07
     4aa:	58 85       	ldd	r21, Y+8	; 0x08
     4ac:	0e 94 81 0d 	call	0x1b02	; 0x1b02 <__subsf3>
     4b0:	20 e0       	ldi	r18, 0x00	; 0
     4b2:	38 e1       	ldi	r19, 0x18	; 24
     4b4:	48 e8       	ldi	r20, 0x88	; 136
     4b6:	56 e4       	ldi	r21, 0x46	; 70
     4b8:	0e 94 48 0e 	call	0x1c90	; 0x1c90 <__divsf3>
     4bc:	0e 94 73 0d 	call	0x1ae6	; 0x1ae6 <acos>
     4c0:	4b 01       	movw	r8, r22
     4c2:	5c 01       	movw	r10, r24
     4c4:	68 01       	movw	r12, r16
     4c6:	ee 24       	eor	r14, r14
     4c8:	d7 fc       	sbrc	r13, 7
     4ca:	e0 94       	com	r14
     4cc:	fe 2c       	mov	r15, r14
     4ce:	20 e0       	ldi	r18, 0x00	; 0
     4d0:	30 e0       	ldi	r19, 0x00	; 0
     4d2:	44 e3       	ldi	r20, 0x34	; 52
     4d4:	53 e4       	ldi	r21, 0x43	; 67
     4d6:	6d 85       	ldd	r22, Y+13	; 0x0d
     4d8:	7e 85       	ldd	r23, Y+14	; 0x0e
     4da:	8f 85       	ldd	r24, Y+15	; 0x0f
     4dc:	98 89       	ldd	r25, Y+16	; 0x10
     4de:	0e 94 b6 0f 	call	0x1f6c	; 0x1f6c <__mulsf3>
     4e2:	28 ed       	ldi	r18, 0xD8	; 216
     4e4:	3f e0       	ldi	r19, 0x0F	; 15
     4e6:	49 e4       	ldi	r20, 0x49	; 73
     4e8:	50 e4       	ldi	r21, 0x40	; 64
     4ea:	0e 94 48 0e 	call	0x1c90	; 0x1c90 <__divsf3>
     4ee:	0e 94 b0 0e 	call	0x1d60	; 0x1d60 <__fixsfsi>
     4f2:	ab 01       	movw	r20, r22
     4f4:	bc 01       	movw	r22, r24
     4f6:	47 59       	subi	r20, 0x97	; 151
     4f8:	5f 4f       	sbci	r21, 0xFF	; 255
     4fa:	6f 4f       	sbci	r22, 0xFF	; 255
     4fc:	7f 4f       	sbci	r23, 0xFF	; 255
     4fe:	97 01       	movw	r18, r14
     500:	86 01       	movw	r16, r12
     502:	82 e0       	ldi	r24, 0x02	; 2
     504:	90 e0       	ldi	r25, 0x00	; 0
     506:	a9 de       	rcall	.-686    	; 0x25a <MoveDynamixel>
     508:	7b de       	rcall	.-778    	; 0x200 <USARTReadStatusPacket>
     50a:	a3 01       	movw	r20, r6
     50c:	92 01       	movw	r18, r4
     50e:	69 81       	ldd	r22, Y+1	; 0x01
     510:	7a 81       	ldd	r23, Y+2	; 0x02
     512:	8b 81       	ldd	r24, Y+3	; 0x03
     514:	9c 81       	ldd	r25, Y+4	; 0x04
     516:	0e 94 82 0d 	call	0x1b04	; 0x1b04 <__addsf3>
     51a:	24 ee       	ldi	r18, 0xE4	; 228
     51c:	3e e2       	ldi	r19, 0x2E	; 46
     51e:	45 e6       	ldi	r20, 0x65	; 101
     520:	52 e4       	ldi	r21, 0x42	; 66
     522:	0e 94 b6 0f 	call	0x1f6c	; 0x1f6c <__mulsf3>
     526:	0e 94 b0 0e 	call	0x1d60	; 0x1d60 <__fixsfsi>
     52a:	ab 01       	movw	r20, r22
     52c:	bc 01       	movw	r22, r24
     52e:	45 5b       	subi	r20, 0xB5	; 181
     530:	5f 4f       	sbci	r21, 0xFF	; 255
     532:	6f 4f       	sbci	r22, 0xFF	; 255
     534:	7f 4f       	sbci	r23, 0xFF	; 255
     536:	97 01       	movw	r18, r14
     538:	86 01       	movw	r16, r12
     53a:	84 e0       	ldi	r24, 0x04	; 4
     53c:	90 e0       	ldi	r25, 0x00	; 0
     53e:	8d de       	rcall	.-742    	; 0x25a <MoveDynamixel>
     540:	5f de       	rcall	.-834    	; 0x200 <USARTReadStatusPacket>
     542:	20 e0       	ldi	r18, 0x00	; 0
     544:	30 e0       	ldi	r19, 0x00	; 0
     546:	44 e3       	ldi	r20, 0x34	; 52
     548:	53 e4       	ldi	r21, 0x43	; 67
     54a:	c5 01       	movw	r24, r10
     54c:	b4 01       	movw	r22, r8
     54e:	0e 94 b6 0f 	call	0x1f6c	; 0x1f6c <__mulsf3>
     552:	28 ed       	ldi	r18, 0xD8	; 216
     554:	3f e0       	ldi	r19, 0x0F	; 15
     556:	49 e4       	ldi	r20, 0x49	; 73
     558:	50 e4       	ldi	r21, 0x40	; 64
     55a:	0e 94 48 0e 	call	0x1c90	; 0x1c90 <__divsf3>
     55e:	0e 94 b0 0e 	call	0x1d60	; 0x1d60 <__fixsfsi>
     562:	ab 01       	movw	r20, r22
     564:	bc 01       	movw	r22, r24
     566:	4f 5f       	subi	r20, 0xFF	; 255
     568:	5f 4f       	sbci	r21, 0xFF	; 255
     56a:	6f 4f       	sbci	r22, 0xFF	; 255
     56c:	7f 4f       	sbci	r23, 0xFF	; 255
     56e:	97 01       	movw	r18, r14
     570:	86 01       	movw	r16, r12
     572:	86 e0       	ldi	r24, 0x06	; 6
     574:	90 e0       	ldi	r25, 0x00	; 0
     576:	71 de       	rcall	.-798    	; 0x25a <MoveDynamixel>
     578:	43 de       	rcall	.-890    	; 0x200 <USARTReadStatusPacket>
     57a:	60 96       	adiw	r28, 0x10	; 16
     57c:	0f b6       	in	r0, 0x3f	; 63
     57e:	f8 94       	cli
     580:	de bf       	out	0x3e, r29	; 62
     582:	0f be       	out	0x3f, r0	; 63
     584:	cd bf       	out	0x3d, r28	; 61
     586:	df 91       	pop	r29
     588:	cf 91       	pop	r28
     58a:	1f 91       	pop	r17
     58c:	0f 91       	pop	r16
     58e:	ff 90       	pop	r15
     590:	ef 90       	pop	r14
     592:	df 90       	pop	r13
     594:	cf 90       	pop	r12
     596:	bf 90       	pop	r11
     598:	af 90       	pop	r10
     59a:	9f 90       	pop	r9
     59c:	8f 90       	pop	r8
     59e:	7f 90       	pop	r7
     5a0:	6f 90       	pop	r6
     5a2:	5f 90       	pop	r5
     5a4:	4f 90       	pop	r4
     5a6:	08 95       	ret

000005a8 <MoveFrontRightLeg>:
     5a8:	4f 92       	push	r4
     5aa:	5f 92       	push	r5
     5ac:	6f 92       	push	r6
     5ae:	7f 92       	push	r7
     5b0:	8f 92       	push	r8
     5b2:	9f 92       	push	r9
     5b4:	af 92       	push	r10
     5b6:	bf 92       	push	r11
     5b8:	cf 92       	push	r12
     5ba:	df 92       	push	r13
     5bc:	ef 92       	push	r14
     5be:	ff 92       	push	r15
     5c0:	0f 93       	push	r16
     5c2:	1f 93       	push	r17
     5c4:	cf 93       	push	r28
     5c6:	df 93       	push	r29
     5c8:	cd b7       	in	r28, 0x3d	; 61
     5ca:	de b7       	in	r29, 0x3e	; 62
     5cc:	60 97       	sbiw	r28, 0x10	; 16
     5ce:	0f b6       	in	r0, 0x3f	; 63
     5d0:	f8 94       	cli
     5d2:	de bf       	out	0x3e, r29	; 62
     5d4:	0f be       	out	0x3f, r0	; 63
     5d6:	cd bf       	out	0x3d, r28	; 61
     5d8:	2b 01       	movw	r4, r22
     5da:	3c 01       	movw	r6, r24
     5dc:	49 01       	movw	r8, r18
     5de:	5a 01       	movw	r10, r20
     5e0:	e9 82       	std	Y+1, r14	; 0x01
     5e2:	fa 82       	std	Y+2, r15	; 0x02
     5e4:	0b 83       	std	Y+3, r16	; 0x03
     5e6:	1c 83       	std	Y+4, r17	; 0x04
     5e8:	86 01       	movw	r16, r12
     5ea:	90 58       	subi	r25, 0x80	; 128
     5ec:	0e 94 f5 0d 	call	0x1bea	; 0x1bea <atan2>
     5f0:	6d 87       	std	Y+13, r22	; 0x0d
     5f2:	7e 87       	std	Y+14, r23	; 0x0e
     5f4:	8f 87       	std	Y+15, r24	; 0x0f
     5f6:	98 8b       	std	Y+16, r25	; 0x10
     5f8:	29 81       	ldd	r18, Y+1	; 0x01
     5fa:	3a 81       	ldd	r19, Y+2	; 0x02
     5fc:	4b 81       	ldd	r20, Y+3	; 0x03
     5fe:	5c 81       	ldd	r21, Y+4	; 0x04
     600:	ca 01       	movw	r24, r20
     602:	b9 01       	movw	r22, r18
     604:	0e 94 b6 0f 	call	0x1f6c	; 0x1f6c <__mulsf3>
     608:	6b 01       	movw	r12, r22
     60a:	7c 01       	movw	r14, r24
     60c:	a3 01       	movw	r20, r6
     60e:	92 01       	movw	r18, r4
     610:	c3 01       	movw	r24, r6
     612:	b2 01       	movw	r22, r4
     614:	0e 94 b6 0f 	call	0x1f6c	; 0x1f6c <__mulsf3>
     618:	2b 01       	movw	r4, r22
     61a:	3c 01       	movw	r6, r24
     61c:	a5 01       	movw	r20, r10
     61e:	94 01       	movw	r18, r8
     620:	c5 01       	movw	r24, r10
     622:	b4 01       	movw	r22, r8
     624:	0e 94 b6 0f 	call	0x1f6c	; 0x1f6c <__mulsf3>
     628:	9b 01       	movw	r18, r22
     62a:	ac 01       	movw	r20, r24
     62c:	c3 01       	movw	r24, r6
     62e:	b2 01       	movw	r22, r4
     630:	0e 94 82 0d 	call	0x1b04	; 0x1b04 <__addsf3>
     634:	2b 01       	movw	r4, r22
     636:	3c 01       	movw	r6, r24
     638:	0e 94 1d 10 	call	0x203a	; 0x203a <sqrt>
     63c:	20 e0       	ldi	r18, 0x00	; 0
     63e:	30 e0       	ldi	r19, 0x00	; 0
     640:	48 e4       	ldi	r20, 0x48	; 72
     642:	52 e4       	ldi	r21, 0x42	; 66
     644:	0e 94 81 0d 	call	0x1b02	; 0x1b02 <__subsf3>
     648:	4b 01       	movw	r8, r22
     64a:	5c 01       	movw	r10, r24
     64c:	9b 01       	movw	r18, r22
     64e:	ac 01       	movw	r20, r24
     650:	0e 94 b6 0f 	call	0x1f6c	; 0x1f6c <__mulsf3>
     654:	6d 83       	std	Y+5, r22	; 0x05
     656:	7e 83       	std	Y+6, r23	; 0x06
     658:	8f 83       	std	Y+7, r24	; 0x07
     65a:	98 87       	std	Y+8, r25	; 0x08
     65c:	9b 01       	movw	r18, r22
     65e:	ac 01       	movw	r20, r24
     660:	c7 01       	movw	r24, r14
     662:	b6 01       	movw	r22, r12
     664:	0e 94 82 0d 	call	0x1b04	; 0x1b04 <__addsf3>
     668:	69 87       	std	Y+9, r22	; 0x09
     66a:	7a 87       	std	Y+10, r23	; 0x0a
     66c:	8b 87       	std	Y+11, r24	; 0x0b
     66e:	9c 87       	std	Y+12, r25	; 0x0c
     670:	0e 94 1d 10 	call	0x203a	; 0x203a <sqrt>
     674:	9b 01       	movw	r18, r22
     676:	ac 01       	movw	r20, r24
     678:	69 81       	ldd	r22, Y+1	; 0x01
     67a:	7a 81       	ldd	r23, Y+2	; 0x02
     67c:	8b 81       	ldd	r24, Y+3	; 0x03
     67e:	9c 81       	ldd	r25, Y+4	; 0x04
     680:	90 58       	subi	r25, 0x80	; 128
     682:	0e 94 48 0e 	call	0x1c90	; 0x1c90 <__divsf3>
     686:	0e 94 73 0d 	call	0x1ae6	; 0x1ae6 <acos>
     68a:	69 83       	std	Y+1, r22	; 0x01
     68c:	7a 83       	std	Y+2, r23	; 0x02
     68e:	8b 83       	std	Y+3, r24	; 0x03
     690:	9c 83       	std	Y+4, r25	; 0x04
     692:	20 e0       	ldi	r18, 0x00	; 0
     694:	30 e0       	ldi	r19, 0x00	; 0
     696:	48 e4       	ldi	r20, 0x48	; 72
     698:	52 e4       	ldi	r21, 0x42	; 66
     69a:	c3 01       	movw	r24, r6
     69c:	b2 01       	movw	r22, r4
     69e:	0e 94 81 0d 	call	0x1b02	; 0x1b02 <__subsf3>
     6a2:	0e 94 1d 10 	call	0x203a	; 0x203a <sqrt>
     6a6:	9b 01       	movw	r18, r22
     6a8:	ac 01       	movw	r20, r24
     6aa:	c5 01       	movw	r24, r10
     6ac:	b4 01       	movw	r22, r8
     6ae:	0e 94 b6 0f 	call	0x1f6c	; 0x1f6c <__mulsf3>
     6b2:	9b 01       	movw	r18, r22
     6b4:	ac 01       	movw	r20, r24
     6b6:	c7 01       	movw	r24, r14
     6b8:	b6 01       	movw	r22, r12
     6ba:	0e 94 82 0d 	call	0x1b04	; 0x1b04 <__addsf3>
     6be:	0e 94 1d 10 	call	0x203a	; 0x203a <sqrt>
     6c2:	2b 01       	movw	r4, r22
     6c4:	3c 01       	movw	r6, r24
     6c6:	20 e0       	ldi	r18, 0x00	; 0
     6c8:	38 e4       	ldi	r19, 0x48	; 72
     6ca:	4c e8       	ldi	r20, 0x8C	; 140
     6cc:	55 e4       	ldi	r21, 0x45	; 69
     6ce:	69 85       	ldd	r22, Y+9	; 0x09
     6d0:	7a 85       	ldd	r23, Y+10	; 0x0a
     6d2:	8b 85       	ldd	r24, Y+11	; 0x0b
     6d4:	9c 85       	ldd	r25, Y+12	; 0x0c
     6d6:	0e 94 82 0d 	call	0x1b04	; 0x1b04 <__addsf3>
     6da:	20 e0       	ldi	r18, 0x00	; 0
     6dc:	38 e0       	ldi	r19, 0x08	; 8
     6de:	44 e8       	ldi	r20, 0x84	; 132
     6e0:	56 e4       	ldi	r21, 0x46	; 70
     6e2:	0e 94 81 0d 	call	0x1b02	; 0x1b02 <__subsf3>
     6e6:	4b 01       	movw	r8, r22
     6e8:	5c 01       	movw	r10, r24
     6ea:	a3 01       	movw	r20, r6
     6ec:	92 01       	movw	r18, r4
     6ee:	c3 01       	movw	r24, r6
     6f0:	b2 01       	movw	r22, r4
     6f2:	0e 94 82 0d 	call	0x1b04	; 0x1b04 <__addsf3>
     6f6:	20 e0       	ldi	r18, 0x00	; 0
     6f8:	30 e0       	ldi	r19, 0x00	; 0
     6fa:	46 e8       	ldi	r20, 0x86	; 134
     6fc:	52 e4       	ldi	r21, 0x42	; 66
     6fe:	0e 94 b6 0f 	call	0x1f6c	; 0x1f6c <__mulsf3>
     702:	9b 01       	movw	r18, r22
     704:	ac 01       	movw	r20, r24
     706:	c5 01       	movw	r24, r10
     708:	b4 01       	movw	r22, r8
     70a:	0e 94 48 0e 	call	0x1c90	; 0x1c90 <__divsf3>
     70e:	0e 94 73 0d 	call	0x1ae6	; 0x1ae6 <acos>
     712:	2b 01       	movw	r4, r22
     714:	3c 01       	movw	r6, r24
     716:	a7 01       	movw	r20, r14
     718:	96 01       	movw	r18, r12
     71a:	60 e0       	ldi	r22, 0x00	; 0
     71c:	7a e1       	ldi	r23, 0x1A	; 26
     71e:	87 ea       	ldi	r24, 0xA7	; 167
     720:	96 e4       	ldi	r25, 0x46	; 70
     722:	0e 94 81 0d 	call	0x1b02	; 0x1b02 <__subsf3>
     726:	2d 81       	ldd	r18, Y+5	; 0x05
     728:	3e 81       	ldd	r19, Y+6	; 0x06
     72a:	4f 81       	ldd	r20, Y+7	; 0x07
     72c:	58 85       	ldd	r21, Y+8	; 0x08
     72e:	0e 94 81 0d 	call	0x1b02	; 0x1b02 <__subsf3>
     732:	20 e0       	ldi	r18, 0x00	; 0
     734:	38 e1       	ldi	r19, 0x18	; 24
     736:	48 e8       	ldi	r20, 0x88	; 136
     738:	56 e4       	ldi	r21, 0x46	; 70
     73a:	0e 94 48 0e 	call	0x1c90	; 0x1c90 <__divsf3>
     73e:	0e 94 73 0d 	call	0x1ae6	; 0x1ae6 <acos>
     742:	4b 01       	movw	r8, r22
     744:	5c 01       	movw	r10, r24
     746:	68 01       	movw	r12, r16
     748:	ee 24       	eor	r14, r14
     74a:	d7 fc       	sbrc	r13, 7
     74c:	e0 94       	com	r14
     74e:	fe 2c       	mov	r15, r14
     750:	20 e0       	ldi	r18, 0x00	; 0
     752:	30 e0       	ldi	r19, 0x00	; 0
     754:	44 e3       	ldi	r20, 0x34	; 52
     756:	53 e4       	ldi	r21, 0x43	; 67
     758:	6d 85       	ldd	r22, Y+13	; 0x0d
     75a:	7e 85       	ldd	r23, Y+14	; 0x0e
     75c:	8f 85       	ldd	r24, Y+15	; 0x0f
     75e:	98 89       	ldd	r25, Y+16	; 0x10
     760:	0e 94 b6 0f 	call	0x1f6c	; 0x1f6c <__mulsf3>
     764:	28 ed       	ldi	r18, 0xD8	; 216
     766:	3f e0       	ldi	r19, 0x0F	; 15
     768:	49 e4       	ldi	r20, 0x49	; 73
     76a:	50 e4       	ldi	r21, 0x40	; 64
     76c:	0e 94 48 0e 	call	0x1c90	; 0x1c90 <__divsf3>
     770:	0e 94 b0 0e 	call	0x1d60	; 0x1d60 <__fixsfsi>
     774:	ab 01       	movw	r20, r22
     776:	bc 01       	movw	r22, r24
     778:	4f 53       	subi	r20, 0x3F	; 63
     77a:	5f 4f       	sbci	r21, 0xFF	; 255
     77c:	6f 4f       	sbci	r22, 0xFF	; 255
     77e:	7f 4f       	sbci	r23, 0xFF	; 255
     780:	97 01       	movw	r18, r14
     782:	86 01       	movw	r16, r12
     784:	88 e0       	ldi	r24, 0x08	; 8
     786:	90 e0       	ldi	r25, 0x00	; 0
     788:	68 dd       	rcall	.-1328   	; 0x25a <MoveDynamixel>
     78a:	3a dd       	rcall	.-1420   	; 0x200 <USARTReadStatusPacket>
     78c:	a3 01       	movw	r20, r6
     78e:	92 01       	movw	r18, r4
     790:	69 81       	ldd	r22, Y+1	; 0x01
     792:	7a 81       	ldd	r23, Y+2	; 0x02
     794:	8b 81       	ldd	r24, Y+3	; 0x03
     796:	9c 81       	ldd	r25, Y+4	; 0x04
     798:	0e 94 82 0d 	call	0x1b04	; 0x1b04 <__addsf3>
     79c:	24 ee       	ldi	r18, 0xE4	; 228
     79e:	3e e2       	ldi	r19, 0x2E	; 46
     7a0:	45 e6       	ldi	r20, 0x65	; 101
     7a2:	52 e4       	ldi	r21, 0x42	; 66
     7a4:	0e 94 b6 0f 	call	0x1f6c	; 0x1f6c <__mulsf3>
     7a8:	0e 94 b0 0e 	call	0x1d60	; 0x1d60 <__fixsfsi>
     7ac:	ab 01       	movw	r20, r22
     7ae:	bc 01       	movw	r22, r24
     7b0:	45 5b       	subi	r20, 0xB5	; 181
     7b2:	5f 4f       	sbci	r21, 0xFF	; 255
     7b4:	6f 4f       	sbci	r22, 0xFF	; 255
     7b6:	7f 4f       	sbci	r23, 0xFF	; 255
     7b8:	97 01       	movw	r18, r14
     7ba:	86 01       	movw	r16, r12
     7bc:	8a e0       	ldi	r24, 0x0A	; 10
     7be:	90 e0       	ldi	r25, 0x00	; 0
     7c0:	4c dd       	rcall	.-1384   	; 0x25a <MoveDynamixel>
     7c2:	1e dd       	rcall	.-1476   	; 0x200 <USARTReadStatusPacket>
     7c4:	20 e0       	ldi	r18, 0x00	; 0
     7c6:	30 e0       	ldi	r19, 0x00	; 0
     7c8:	44 e3       	ldi	r20, 0x34	; 52
     7ca:	53 e4       	ldi	r21, 0x43	; 67
     7cc:	c5 01       	movw	r24, r10
     7ce:	b4 01       	movw	r22, r8
     7d0:	0e 94 b6 0f 	call	0x1f6c	; 0x1f6c <__mulsf3>
     7d4:	28 ed       	ldi	r18, 0xD8	; 216
     7d6:	3f e0       	ldi	r19, 0x0F	; 15
     7d8:	49 e4       	ldi	r20, 0x49	; 73
     7da:	50 e4       	ldi	r21, 0x40	; 64
     7dc:	0e 94 48 0e 	call	0x1c90	; 0x1c90 <__divsf3>
     7e0:	0e 94 b0 0e 	call	0x1d60	; 0x1d60 <__fixsfsi>
     7e4:	ab 01       	movw	r20, r22
     7e6:	bc 01       	movw	r22, r24
     7e8:	4d 5f       	subi	r20, 0xFD	; 253
     7ea:	5f 4f       	sbci	r21, 0xFF	; 255
     7ec:	6f 4f       	sbci	r22, 0xFF	; 255
     7ee:	7f 4f       	sbci	r23, 0xFF	; 255
     7f0:	97 01       	movw	r18, r14
     7f2:	86 01       	movw	r16, r12
     7f4:	8c e0       	ldi	r24, 0x0C	; 12
     7f6:	90 e0       	ldi	r25, 0x00	; 0
     7f8:	30 dd       	rcall	.-1440   	; 0x25a <MoveDynamixel>
     7fa:	02 dd       	rcall	.-1532   	; 0x200 <USARTReadStatusPacket>
     7fc:	60 96       	adiw	r28, 0x10	; 16
     7fe:	0f b6       	in	r0, 0x3f	; 63
     800:	f8 94       	cli
     802:	de bf       	out	0x3e, r29	; 62
     804:	0f be       	out	0x3f, r0	; 63
     806:	cd bf       	out	0x3d, r28	; 61
     808:	df 91       	pop	r29
     80a:	cf 91       	pop	r28
     80c:	1f 91       	pop	r17
     80e:	0f 91       	pop	r16
     810:	ff 90       	pop	r15
     812:	ef 90       	pop	r14
     814:	df 90       	pop	r13
     816:	cf 90       	pop	r12
     818:	bf 90       	pop	r11
     81a:	af 90       	pop	r10
     81c:	9f 90       	pop	r9
     81e:	8f 90       	pop	r8
     820:	7f 90       	pop	r7
     822:	6f 90       	pop	r6
     824:	5f 90       	pop	r5
     826:	4f 90       	pop	r4
     828:	08 95       	ret

0000082a <MoveRearLeftLeg>:
     82a:	4f 92       	push	r4
     82c:	5f 92       	push	r5
     82e:	6f 92       	push	r6
     830:	7f 92       	push	r7
     832:	8f 92       	push	r8
     834:	9f 92       	push	r9
     836:	af 92       	push	r10
     838:	bf 92       	push	r11
     83a:	cf 92       	push	r12
     83c:	df 92       	push	r13
     83e:	ef 92       	push	r14
     840:	ff 92       	push	r15
     842:	0f 93       	push	r16
     844:	1f 93       	push	r17
     846:	cf 93       	push	r28
     848:	df 93       	push	r29
     84a:	cd b7       	in	r28, 0x3d	; 61
     84c:	de b7       	in	r29, 0x3e	; 62
     84e:	60 97       	sbiw	r28, 0x10	; 16
     850:	0f b6       	in	r0, 0x3f	; 63
     852:	f8 94       	cli
     854:	de bf       	out	0x3e, r29	; 62
     856:	0f be       	out	0x3f, r0	; 63
     858:	cd bf       	out	0x3d, r28	; 61
     85a:	2b 01       	movw	r4, r22
     85c:	3c 01       	movw	r6, r24
     85e:	49 01       	movw	r8, r18
     860:	5a 01       	movw	r10, r20
     862:	e9 82       	std	Y+1, r14	; 0x01
     864:	fa 82       	std	Y+2, r15	; 0x02
     866:	0b 83       	std	Y+3, r16	; 0x03
     868:	1c 83       	std	Y+4, r17	; 0x04
     86a:	86 01       	movw	r16, r12
     86c:	50 58       	subi	r21, 0x80	; 128
     86e:	0e 94 f5 0d 	call	0x1bea	; 0x1bea <atan2>
     872:	6d 87       	std	Y+13, r22	; 0x0d
     874:	7e 87       	std	Y+14, r23	; 0x0e
     876:	8f 87       	std	Y+15, r24	; 0x0f
     878:	98 8b       	std	Y+16, r25	; 0x10
     87a:	29 81       	ldd	r18, Y+1	; 0x01
     87c:	3a 81       	ldd	r19, Y+2	; 0x02
     87e:	4b 81       	ldd	r20, Y+3	; 0x03
     880:	5c 81       	ldd	r21, Y+4	; 0x04
     882:	ca 01       	movw	r24, r20
     884:	b9 01       	movw	r22, r18
     886:	0e 94 b6 0f 	call	0x1f6c	; 0x1f6c <__mulsf3>
     88a:	6b 01       	movw	r12, r22
     88c:	7c 01       	movw	r14, r24
     88e:	a3 01       	movw	r20, r6
     890:	92 01       	movw	r18, r4
     892:	c3 01       	movw	r24, r6
     894:	b2 01       	movw	r22, r4
     896:	0e 94 b6 0f 	call	0x1f6c	; 0x1f6c <__mulsf3>
     89a:	2b 01       	movw	r4, r22
     89c:	3c 01       	movw	r6, r24
     89e:	a5 01       	movw	r20, r10
     8a0:	94 01       	movw	r18, r8
     8a2:	c5 01       	movw	r24, r10
     8a4:	b4 01       	movw	r22, r8
     8a6:	0e 94 b6 0f 	call	0x1f6c	; 0x1f6c <__mulsf3>
     8aa:	9b 01       	movw	r18, r22
     8ac:	ac 01       	movw	r20, r24
     8ae:	c3 01       	movw	r24, r6
     8b0:	b2 01       	movw	r22, r4
     8b2:	0e 94 82 0d 	call	0x1b04	; 0x1b04 <__addsf3>
     8b6:	2b 01       	movw	r4, r22
     8b8:	3c 01       	movw	r6, r24
     8ba:	0e 94 1d 10 	call	0x203a	; 0x203a <sqrt>
     8be:	20 e0       	ldi	r18, 0x00	; 0
     8c0:	30 e0       	ldi	r19, 0x00	; 0
     8c2:	48 e4       	ldi	r20, 0x48	; 72
     8c4:	52 e4       	ldi	r21, 0x42	; 66
     8c6:	0e 94 81 0d 	call	0x1b02	; 0x1b02 <__subsf3>
     8ca:	4b 01       	movw	r8, r22
     8cc:	5c 01       	movw	r10, r24
     8ce:	9b 01       	movw	r18, r22
     8d0:	ac 01       	movw	r20, r24
     8d2:	0e 94 b6 0f 	call	0x1f6c	; 0x1f6c <__mulsf3>
     8d6:	6d 83       	std	Y+5, r22	; 0x05
     8d8:	7e 83       	std	Y+6, r23	; 0x06
     8da:	8f 83       	std	Y+7, r24	; 0x07
     8dc:	98 87       	std	Y+8, r25	; 0x08
     8de:	9b 01       	movw	r18, r22
     8e0:	ac 01       	movw	r20, r24
     8e2:	c7 01       	movw	r24, r14
     8e4:	b6 01       	movw	r22, r12
     8e6:	0e 94 82 0d 	call	0x1b04	; 0x1b04 <__addsf3>
     8ea:	69 87       	std	Y+9, r22	; 0x09
     8ec:	7a 87       	std	Y+10, r23	; 0x0a
     8ee:	8b 87       	std	Y+11, r24	; 0x0b
     8f0:	9c 87       	std	Y+12, r25	; 0x0c
     8f2:	0e 94 1d 10 	call	0x203a	; 0x203a <sqrt>
     8f6:	9b 01       	movw	r18, r22
     8f8:	ac 01       	movw	r20, r24
     8fa:	69 81       	ldd	r22, Y+1	; 0x01
     8fc:	7a 81       	ldd	r23, Y+2	; 0x02
     8fe:	8b 81       	ldd	r24, Y+3	; 0x03
     900:	9c 81       	ldd	r25, Y+4	; 0x04
     902:	90 58       	subi	r25, 0x80	; 128
     904:	0e 94 48 0e 	call	0x1c90	; 0x1c90 <__divsf3>
     908:	0e 94 73 0d 	call	0x1ae6	; 0x1ae6 <acos>
     90c:	69 83       	std	Y+1, r22	; 0x01
     90e:	7a 83       	std	Y+2, r23	; 0x02
     910:	8b 83       	std	Y+3, r24	; 0x03
     912:	9c 83       	std	Y+4, r25	; 0x04
     914:	20 e0       	ldi	r18, 0x00	; 0
     916:	30 e0       	ldi	r19, 0x00	; 0
     918:	48 e4       	ldi	r20, 0x48	; 72
     91a:	52 e4       	ldi	r21, 0x42	; 66
     91c:	c3 01       	movw	r24, r6
     91e:	b2 01       	movw	r22, r4
     920:	0e 94 81 0d 	call	0x1b02	; 0x1b02 <__subsf3>
     924:	0e 94 1d 10 	call	0x203a	; 0x203a <sqrt>
     928:	9b 01       	movw	r18, r22
     92a:	ac 01       	movw	r20, r24
     92c:	c5 01       	movw	r24, r10
     92e:	b4 01       	movw	r22, r8
     930:	0e 94 b6 0f 	call	0x1f6c	; 0x1f6c <__mulsf3>
     934:	9b 01       	movw	r18, r22
     936:	ac 01       	movw	r20, r24
     938:	c7 01       	movw	r24, r14
     93a:	b6 01       	movw	r22, r12
     93c:	0e 94 82 0d 	call	0x1b04	; 0x1b04 <__addsf3>
     940:	0e 94 1d 10 	call	0x203a	; 0x203a <sqrt>
     944:	2b 01       	movw	r4, r22
     946:	3c 01       	movw	r6, r24
     948:	20 e0       	ldi	r18, 0x00	; 0
     94a:	38 e4       	ldi	r19, 0x48	; 72
     94c:	4c e8       	ldi	r20, 0x8C	; 140
     94e:	55 e4       	ldi	r21, 0x45	; 69
     950:	69 85       	ldd	r22, Y+9	; 0x09
     952:	7a 85       	ldd	r23, Y+10	; 0x0a
     954:	8b 85       	ldd	r24, Y+11	; 0x0b
     956:	9c 85       	ldd	r25, Y+12	; 0x0c
     958:	0e 94 82 0d 	call	0x1b04	; 0x1b04 <__addsf3>
     95c:	20 e0       	ldi	r18, 0x00	; 0
     95e:	38 e0       	ldi	r19, 0x08	; 8
     960:	44 e8       	ldi	r20, 0x84	; 132
     962:	56 e4       	ldi	r21, 0x46	; 70
     964:	0e 94 81 0d 	call	0x1b02	; 0x1b02 <__subsf3>
     968:	4b 01       	movw	r8, r22
     96a:	5c 01       	movw	r10, r24
     96c:	a3 01       	movw	r20, r6
     96e:	92 01       	movw	r18, r4
     970:	c3 01       	movw	r24, r6
     972:	b2 01       	movw	r22, r4
     974:	0e 94 82 0d 	call	0x1b04	; 0x1b04 <__addsf3>
     978:	20 e0       	ldi	r18, 0x00	; 0
     97a:	30 e0       	ldi	r19, 0x00	; 0
     97c:	46 e8       	ldi	r20, 0x86	; 134
     97e:	52 e4       	ldi	r21, 0x42	; 66
     980:	0e 94 b6 0f 	call	0x1f6c	; 0x1f6c <__mulsf3>
     984:	9b 01       	movw	r18, r22
     986:	ac 01       	movw	r20, r24
     988:	c5 01       	movw	r24, r10
     98a:	b4 01       	movw	r22, r8
     98c:	0e 94 48 0e 	call	0x1c90	; 0x1c90 <__divsf3>
     990:	0e 94 73 0d 	call	0x1ae6	; 0x1ae6 <acos>
     994:	2b 01       	movw	r4, r22
     996:	3c 01       	movw	r6, r24
     998:	a7 01       	movw	r20, r14
     99a:	96 01       	movw	r18, r12
     99c:	60 e0       	ldi	r22, 0x00	; 0
     99e:	7a e1       	ldi	r23, 0x1A	; 26
     9a0:	87 ea       	ldi	r24, 0xA7	; 167
     9a2:	96 e4       	ldi	r25, 0x46	; 70
     9a4:	0e 94 81 0d 	call	0x1b02	; 0x1b02 <__subsf3>
     9a8:	2d 81       	ldd	r18, Y+5	; 0x05
     9aa:	3e 81       	ldd	r19, Y+6	; 0x06
     9ac:	4f 81       	ldd	r20, Y+7	; 0x07
     9ae:	58 85       	ldd	r21, Y+8	; 0x08
     9b0:	0e 94 81 0d 	call	0x1b02	; 0x1b02 <__subsf3>
     9b4:	20 e0       	ldi	r18, 0x00	; 0
     9b6:	38 e1       	ldi	r19, 0x18	; 24
     9b8:	48 e8       	ldi	r20, 0x88	; 136
     9ba:	56 e4       	ldi	r21, 0x46	; 70
     9bc:	0e 94 48 0e 	call	0x1c90	; 0x1c90 <__divsf3>
     9c0:	0e 94 73 0d 	call	0x1ae6	; 0x1ae6 <acos>
     9c4:	4b 01       	movw	r8, r22
     9c6:	5c 01       	movw	r10, r24
     9c8:	68 01       	movw	r12, r16
     9ca:	ee 24       	eor	r14, r14
     9cc:	d7 fc       	sbrc	r13, 7
     9ce:	e0 94       	com	r14
     9d0:	fe 2c       	mov	r15, r14
     9d2:	20 e0       	ldi	r18, 0x00	; 0
     9d4:	30 e0       	ldi	r19, 0x00	; 0
     9d6:	44 e3       	ldi	r20, 0x34	; 52
     9d8:	53 e4       	ldi	r21, 0x43	; 67
     9da:	6d 85       	ldd	r22, Y+13	; 0x0d
     9dc:	7e 85       	ldd	r23, Y+14	; 0x0e
     9de:	8f 85       	ldd	r24, Y+15	; 0x0f
     9e0:	98 89       	ldd	r25, Y+16	; 0x10
     9e2:	0e 94 b6 0f 	call	0x1f6c	; 0x1f6c <__mulsf3>
     9e6:	28 ed       	ldi	r18, 0xD8	; 216
     9e8:	3f e0       	ldi	r19, 0x0F	; 15
     9ea:	49 e4       	ldi	r20, 0x49	; 73
     9ec:	50 e4       	ldi	r21, 0x40	; 64
     9ee:	0e 94 48 0e 	call	0x1c90	; 0x1c90 <__divsf3>
     9f2:	0e 94 b0 0e 	call	0x1d60	; 0x1d60 <__fixsfsi>
     9f6:	ab 01       	movw	r20, r22
     9f8:	bc 01       	movw	r22, r24
     9fa:	4d 53       	subi	r20, 0x3D	; 61
     9fc:	5f 4f       	sbci	r21, 0xFF	; 255
     9fe:	6f 4f       	sbci	r22, 0xFF	; 255
     a00:	7f 4f       	sbci	r23, 0xFF	; 255
     a02:	97 01       	movw	r18, r14
     a04:	86 01       	movw	r16, r12
     a06:	81 e0       	ldi	r24, 0x01	; 1
     a08:	90 e0       	ldi	r25, 0x00	; 0
     a0a:	27 dc       	rcall	.-1970   	; 0x25a <MoveDynamixel>
     a0c:	f9 db       	rcall	.-2062   	; 0x200 <USARTReadStatusPacket>
     a0e:	a3 01       	movw	r20, r6
     a10:	92 01       	movw	r18, r4
     a12:	69 81       	ldd	r22, Y+1	; 0x01
     a14:	7a 81       	ldd	r23, Y+2	; 0x02
     a16:	8b 81       	ldd	r24, Y+3	; 0x03
     a18:	9c 81       	ldd	r25, Y+4	; 0x04
     a1a:	0e 94 82 0d 	call	0x1b04	; 0x1b04 <__addsf3>
     a1e:	24 ee       	ldi	r18, 0xE4	; 228
     a20:	3e e2       	ldi	r19, 0x2E	; 46
     a22:	45 e6       	ldi	r20, 0x65	; 101
     a24:	52 e4       	ldi	r21, 0x42	; 66
     a26:	0e 94 b6 0f 	call	0x1f6c	; 0x1f6c <__mulsf3>
     a2a:	0e 94 b0 0e 	call	0x1d60	; 0x1d60 <__fixsfsi>
     a2e:	0f 2e       	mov	r0, r31
     a30:	f1 ee       	ldi	r31, 0xE1	; 225
     a32:	4f 2e       	mov	r4, r31
     a34:	51 2c       	mov	r5, r1
     a36:	61 2c       	mov	r6, r1
     a38:	71 2c       	mov	r7, r1
     a3a:	f0 2d       	mov	r31, r0
     a3c:	93 01       	movw	r18, r6
     a3e:	82 01       	movw	r16, r4
     a40:	06 1b       	sub	r16, r22
     a42:	17 0b       	sbc	r17, r23
     a44:	28 0b       	sbc	r18, r24
     a46:	39 0b       	sbc	r19, r25
     a48:	b9 01       	movw	r22, r18
     a4a:	a8 01       	movw	r20, r16
     a4c:	97 01       	movw	r18, r14
     a4e:	86 01       	movw	r16, r12
     a50:	83 e0       	ldi	r24, 0x03	; 3
     a52:	90 e0       	ldi	r25, 0x00	; 0
     a54:	02 dc       	rcall	.-2044   	; 0x25a <MoveDynamixel>
     a56:	d4 db       	rcall	.-2136   	; 0x200 <USARTReadStatusPacket>
     a58:	20 e0       	ldi	r18, 0x00	; 0
     a5a:	30 e0       	ldi	r19, 0x00	; 0
     a5c:	44 e3       	ldi	r20, 0x34	; 52
     a5e:	53 e4       	ldi	r21, 0x43	; 67
     a60:	c5 01       	movw	r24, r10
     a62:	b4 01       	movw	r22, r8
     a64:	0e 94 b6 0f 	call	0x1f6c	; 0x1f6c <__mulsf3>
     a68:	28 ed       	ldi	r18, 0xD8	; 216
     a6a:	3f e0       	ldi	r19, 0x0F	; 15
     a6c:	49 e4       	ldi	r20, 0x49	; 73
     a6e:	50 e4       	ldi	r21, 0x40	; 64
     a70:	0e 94 48 0e 	call	0x1c90	; 0x1c90 <__divsf3>
     a74:	0e 94 b0 0e 	call	0x1d60	; 0x1d60 <__fixsfsi>
     a78:	0f 2e       	mov	r0, r31
     a7a:	fc e2       	ldi	r31, 0x2C	; 44
     a7c:	8f 2e       	mov	r8, r31
     a7e:	99 24       	eor	r9, r9
     a80:	93 94       	inc	r9
     a82:	a1 2c       	mov	r10, r1
     a84:	b1 2c       	mov	r11, r1
     a86:	f0 2d       	mov	r31, r0
     a88:	95 01       	movw	r18, r10
     a8a:	84 01       	movw	r16, r8
     a8c:	06 1b       	sub	r16, r22
     a8e:	17 0b       	sbc	r17, r23
     a90:	28 0b       	sbc	r18, r24
     a92:	39 0b       	sbc	r19, r25
     a94:	b9 01       	movw	r22, r18
     a96:	a8 01       	movw	r20, r16
     a98:	97 01       	movw	r18, r14
     a9a:	86 01       	movw	r16, r12
     a9c:	85 e0       	ldi	r24, 0x05	; 5
     a9e:	90 e0       	ldi	r25, 0x00	; 0
     aa0:	dc db       	rcall	.-2120   	; 0x25a <MoveDynamixel>
     aa2:	ae db       	rcall	.-2212   	; 0x200 <USARTReadStatusPacket>
     aa4:	60 96       	adiw	r28, 0x10	; 16
     aa6:	0f b6       	in	r0, 0x3f	; 63
     aa8:	f8 94       	cli
     aaa:	de bf       	out	0x3e, r29	; 62
     aac:	0f be       	out	0x3f, r0	; 63
     aae:	cd bf       	out	0x3d, r28	; 61
     ab0:	df 91       	pop	r29
     ab2:	cf 91       	pop	r28
     ab4:	1f 91       	pop	r17
     ab6:	0f 91       	pop	r16
     ab8:	ff 90       	pop	r15
     aba:	ef 90       	pop	r14
     abc:	df 90       	pop	r13
     abe:	cf 90       	pop	r12
     ac0:	bf 90       	pop	r11
     ac2:	af 90       	pop	r10
     ac4:	9f 90       	pop	r9
     ac6:	8f 90       	pop	r8
     ac8:	7f 90       	pop	r7
     aca:	6f 90       	pop	r6
     acc:	5f 90       	pop	r5
     ace:	4f 90       	pop	r4
     ad0:	08 95       	ret

00000ad2 <MoveRearRightLeg>:
     ad2:	4f 92       	push	r4
     ad4:	5f 92       	push	r5
     ad6:	6f 92       	push	r6
     ad8:	7f 92       	push	r7
     ada:	8f 92       	push	r8
     adc:	9f 92       	push	r9
     ade:	af 92       	push	r10
     ae0:	bf 92       	push	r11
     ae2:	cf 92       	push	r12
     ae4:	df 92       	push	r13
     ae6:	ef 92       	push	r14
     ae8:	ff 92       	push	r15
     aea:	0f 93       	push	r16
     aec:	1f 93       	push	r17
     aee:	cf 93       	push	r28
     af0:	df 93       	push	r29
     af2:	cd b7       	in	r28, 0x3d	; 61
     af4:	de b7       	in	r29, 0x3e	; 62
     af6:	60 97       	sbiw	r28, 0x10	; 16
     af8:	0f b6       	in	r0, 0x3f	; 63
     afa:	f8 94       	cli
     afc:	de bf       	out	0x3e, r29	; 62
     afe:	0f be       	out	0x3f, r0	; 63
     b00:	cd bf       	out	0x3d, r28	; 61
     b02:	2b 01       	movw	r4, r22
     b04:	3c 01       	movw	r6, r24
     b06:	49 01       	movw	r8, r18
     b08:	5a 01       	movw	r10, r20
     b0a:	e9 82       	std	Y+1, r14	; 0x01
     b0c:	fa 82       	std	Y+2, r15	; 0x02
     b0e:	0b 83       	std	Y+3, r16	; 0x03
     b10:	1c 83       	std	Y+4, r17	; 0x04
     b12:	86 01       	movw	r16, r12
     b14:	50 58       	subi	r21, 0x80	; 128
     b16:	0e 94 f5 0d 	call	0x1bea	; 0x1bea <atan2>
     b1a:	6d 87       	std	Y+13, r22	; 0x0d
     b1c:	7e 87       	std	Y+14, r23	; 0x0e
     b1e:	8f 87       	std	Y+15, r24	; 0x0f
     b20:	98 8b       	std	Y+16, r25	; 0x10
     b22:	29 81       	ldd	r18, Y+1	; 0x01
     b24:	3a 81       	ldd	r19, Y+2	; 0x02
     b26:	4b 81       	ldd	r20, Y+3	; 0x03
     b28:	5c 81       	ldd	r21, Y+4	; 0x04
     b2a:	ca 01       	movw	r24, r20
     b2c:	b9 01       	movw	r22, r18
     b2e:	0e 94 b6 0f 	call	0x1f6c	; 0x1f6c <__mulsf3>
     b32:	6b 01       	movw	r12, r22
     b34:	7c 01       	movw	r14, r24
     b36:	a3 01       	movw	r20, r6
     b38:	92 01       	movw	r18, r4
     b3a:	c3 01       	movw	r24, r6
     b3c:	b2 01       	movw	r22, r4
     b3e:	0e 94 b6 0f 	call	0x1f6c	; 0x1f6c <__mulsf3>
     b42:	2b 01       	movw	r4, r22
     b44:	3c 01       	movw	r6, r24
     b46:	a5 01       	movw	r20, r10
     b48:	94 01       	movw	r18, r8
     b4a:	c5 01       	movw	r24, r10
     b4c:	b4 01       	movw	r22, r8
     b4e:	0e 94 b6 0f 	call	0x1f6c	; 0x1f6c <__mulsf3>
     b52:	9b 01       	movw	r18, r22
     b54:	ac 01       	movw	r20, r24
     b56:	c3 01       	movw	r24, r6
     b58:	b2 01       	movw	r22, r4
     b5a:	d4 d7       	rcall	.+4008   	; 0x1b04 <__addsf3>
     b5c:	2b 01       	movw	r4, r22
     b5e:	3c 01       	movw	r6, r24
     b60:	0e 94 1d 10 	call	0x203a	; 0x203a <sqrt>
     b64:	20 e0       	ldi	r18, 0x00	; 0
     b66:	30 e0       	ldi	r19, 0x00	; 0
     b68:	48 e4       	ldi	r20, 0x48	; 72
     b6a:	52 e4       	ldi	r21, 0x42	; 66
     b6c:	ca d7       	rcall	.+3988   	; 0x1b02 <__subsf3>
     b6e:	4b 01       	movw	r8, r22
     b70:	5c 01       	movw	r10, r24
     b72:	9b 01       	movw	r18, r22
     b74:	ac 01       	movw	r20, r24
     b76:	0e 94 b6 0f 	call	0x1f6c	; 0x1f6c <__mulsf3>
     b7a:	6d 83       	std	Y+5, r22	; 0x05
     b7c:	7e 83       	std	Y+6, r23	; 0x06
     b7e:	8f 83       	std	Y+7, r24	; 0x07
     b80:	98 87       	std	Y+8, r25	; 0x08
     b82:	9b 01       	movw	r18, r22
     b84:	ac 01       	movw	r20, r24
     b86:	c7 01       	movw	r24, r14
     b88:	b6 01       	movw	r22, r12
     b8a:	bc d7       	rcall	.+3960   	; 0x1b04 <__addsf3>
     b8c:	69 87       	std	Y+9, r22	; 0x09
     b8e:	7a 87       	std	Y+10, r23	; 0x0a
     b90:	8b 87       	std	Y+11, r24	; 0x0b
     b92:	9c 87       	std	Y+12, r25	; 0x0c
     b94:	0e 94 1d 10 	call	0x203a	; 0x203a <sqrt>
     b98:	9b 01       	movw	r18, r22
     b9a:	ac 01       	movw	r20, r24
     b9c:	69 81       	ldd	r22, Y+1	; 0x01
     b9e:	7a 81       	ldd	r23, Y+2	; 0x02
     ba0:	8b 81       	ldd	r24, Y+3	; 0x03
     ba2:	9c 81       	ldd	r25, Y+4	; 0x04
     ba4:	90 58       	subi	r25, 0x80	; 128
     ba6:	0e 94 48 0e 	call	0x1c90	; 0x1c90 <__divsf3>
     baa:	9d d7       	rcall	.+3898   	; 0x1ae6 <acos>
     bac:	69 83       	std	Y+1, r22	; 0x01
     bae:	7a 83       	std	Y+2, r23	; 0x02
     bb0:	8b 83       	std	Y+3, r24	; 0x03
     bb2:	9c 83       	std	Y+4, r25	; 0x04
     bb4:	20 e0       	ldi	r18, 0x00	; 0
     bb6:	30 e0       	ldi	r19, 0x00	; 0
     bb8:	48 e4       	ldi	r20, 0x48	; 72
     bba:	52 e4       	ldi	r21, 0x42	; 66
     bbc:	c3 01       	movw	r24, r6
     bbe:	b2 01       	movw	r22, r4
     bc0:	a0 d7       	rcall	.+3904   	; 0x1b02 <__subsf3>
     bc2:	0e 94 1d 10 	call	0x203a	; 0x203a <sqrt>
     bc6:	9b 01       	movw	r18, r22
     bc8:	ac 01       	movw	r20, r24
     bca:	c5 01       	movw	r24, r10
     bcc:	b4 01       	movw	r22, r8
     bce:	0e 94 b6 0f 	call	0x1f6c	; 0x1f6c <__mulsf3>
     bd2:	9b 01       	movw	r18, r22
     bd4:	ac 01       	movw	r20, r24
     bd6:	c7 01       	movw	r24, r14
     bd8:	b6 01       	movw	r22, r12
     bda:	94 d7       	rcall	.+3880   	; 0x1b04 <__addsf3>
     bdc:	0e 94 1d 10 	call	0x203a	; 0x203a <sqrt>
     be0:	2b 01       	movw	r4, r22
     be2:	3c 01       	movw	r6, r24
     be4:	20 e0       	ldi	r18, 0x00	; 0
     be6:	38 e4       	ldi	r19, 0x48	; 72
     be8:	4c e8       	ldi	r20, 0x8C	; 140
     bea:	55 e4       	ldi	r21, 0x45	; 69
     bec:	69 85       	ldd	r22, Y+9	; 0x09
     bee:	7a 85       	ldd	r23, Y+10	; 0x0a
     bf0:	8b 85       	ldd	r24, Y+11	; 0x0b
     bf2:	9c 85       	ldd	r25, Y+12	; 0x0c
     bf4:	87 d7       	rcall	.+3854   	; 0x1b04 <__addsf3>
     bf6:	20 e0       	ldi	r18, 0x00	; 0
     bf8:	38 e0       	ldi	r19, 0x08	; 8
     bfa:	44 e8       	ldi	r20, 0x84	; 132
     bfc:	56 e4       	ldi	r21, 0x46	; 70
     bfe:	81 d7       	rcall	.+3842   	; 0x1b02 <__subsf3>
     c00:	4b 01       	movw	r8, r22
     c02:	5c 01       	movw	r10, r24
     c04:	a3 01       	movw	r20, r6
     c06:	92 01       	movw	r18, r4
     c08:	c3 01       	movw	r24, r6
     c0a:	b2 01       	movw	r22, r4
     c0c:	7b d7       	rcall	.+3830   	; 0x1b04 <__addsf3>
     c0e:	20 e0       	ldi	r18, 0x00	; 0
     c10:	30 e0       	ldi	r19, 0x00	; 0
     c12:	46 e8       	ldi	r20, 0x86	; 134
     c14:	52 e4       	ldi	r21, 0x42	; 66
     c16:	0e 94 b6 0f 	call	0x1f6c	; 0x1f6c <__mulsf3>
     c1a:	9b 01       	movw	r18, r22
     c1c:	ac 01       	movw	r20, r24
     c1e:	c5 01       	movw	r24, r10
     c20:	b4 01       	movw	r22, r8
     c22:	0e 94 48 0e 	call	0x1c90	; 0x1c90 <__divsf3>
     c26:	5f d7       	rcall	.+3774   	; 0x1ae6 <acos>
     c28:	2b 01       	movw	r4, r22
     c2a:	3c 01       	movw	r6, r24
     c2c:	a7 01       	movw	r20, r14
     c2e:	96 01       	movw	r18, r12
     c30:	60 e0       	ldi	r22, 0x00	; 0
     c32:	7a e1       	ldi	r23, 0x1A	; 26
     c34:	87 ea       	ldi	r24, 0xA7	; 167
     c36:	96 e4       	ldi	r25, 0x46	; 70
     c38:	64 d7       	rcall	.+3784   	; 0x1b02 <__subsf3>
     c3a:	2d 81       	ldd	r18, Y+5	; 0x05
     c3c:	3e 81       	ldd	r19, Y+6	; 0x06
     c3e:	4f 81       	ldd	r20, Y+7	; 0x07
     c40:	58 85       	ldd	r21, Y+8	; 0x08
     c42:	5f d7       	rcall	.+3774   	; 0x1b02 <__subsf3>
     c44:	20 e0       	ldi	r18, 0x00	; 0
     c46:	38 e1       	ldi	r19, 0x18	; 24
     c48:	48 e8       	ldi	r20, 0x88	; 136
     c4a:	56 e4       	ldi	r21, 0x46	; 70
     c4c:	0e 94 48 0e 	call	0x1c90	; 0x1c90 <__divsf3>
     c50:	4a d7       	rcall	.+3732   	; 0x1ae6 <acos>
     c52:	4b 01       	movw	r8, r22
     c54:	5c 01       	movw	r10, r24
     c56:	68 01       	movw	r12, r16
     c58:	ee 24       	eor	r14, r14
     c5a:	d7 fc       	sbrc	r13, 7
     c5c:	e0 94       	com	r14
     c5e:	fe 2c       	mov	r15, r14
     c60:	20 e0       	ldi	r18, 0x00	; 0
     c62:	30 e0       	ldi	r19, 0x00	; 0
     c64:	44 e3       	ldi	r20, 0x34	; 52
     c66:	53 e4       	ldi	r21, 0x43	; 67
     c68:	6d 85       	ldd	r22, Y+13	; 0x0d
     c6a:	7e 85       	ldd	r23, Y+14	; 0x0e
     c6c:	8f 85       	ldd	r24, Y+15	; 0x0f
     c6e:	98 89       	ldd	r25, Y+16	; 0x10
     c70:	0e 94 b6 0f 	call	0x1f6c	; 0x1f6c <__mulsf3>
     c74:	28 ed       	ldi	r18, 0xD8	; 216
     c76:	3f e0       	ldi	r19, 0x0F	; 15
     c78:	49 e4       	ldi	r20, 0x49	; 73
     c7a:	50 e4       	ldi	r21, 0x40	; 64
     c7c:	0e 94 48 0e 	call	0x1c90	; 0x1c90 <__divsf3>
     c80:	0e 94 b0 0e 	call	0x1d60	; 0x1d60 <__fixsfsi>
     c84:	ab 01       	movw	r20, r22
     c86:	bc 01       	movw	r22, r24
     c88:	47 59       	subi	r20, 0x97	; 151
     c8a:	5f 4f       	sbci	r21, 0xFF	; 255
     c8c:	6f 4f       	sbci	r22, 0xFF	; 255
     c8e:	7f 4f       	sbci	r23, 0xFF	; 255
     c90:	97 01       	movw	r18, r14
     c92:	86 01       	movw	r16, r12
     c94:	87 e0       	ldi	r24, 0x07	; 7
     c96:	90 e0       	ldi	r25, 0x00	; 0
     c98:	e0 da       	rcall	.-2624   	; 0x25a <MoveDynamixel>
     c9a:	b2 da       	rcall	.-2716   	; 0x200 <USARTReadStatusPacket>
     c9c:	a3 01       	movw	r20, r6
     c9e:	92 01       	movw	r18, r4
     ca0:	69 81       	ldd	r22, Y+1	; 0x01
     ca2:	7a 81       	ldd	r23, Y+2	; 0x02
     ca4:	8b 81       	ldd	r24, Y+3	; 0x03
     ca6:	9c 81       	ldd	r25, Y+4	; 0x04
     ca8:	2d d7       	rcall	.+3674   	; 0x1b04 <__addsf3>
     caa:	24 ee       	ldi	r18, 0xE4	; 228
     cac:	3e e2       	ldi	r19, 0x2E	; 46
     cae:	45 e6       	ldi	r20, 0x65	; 101
     cb0:	52 e4       	ldi	r21, 0x42	; 66
     cb2:	0e 94 b6 0f 	call	0x1f6c	; 0x1f6c <__mulsf3>
     cb6:	0e 94 b0 0e 	call	0x1d60	; 0x1d60 <__fixsfsi>
     cba:	0f 2e       	mov	r0, r31
     cbc:	f1 ee       	ldi	r31, 0xE1	; 225
     cbe:	4f 2e       	mov	r4, r31
     cc0:	51 2c       	mov	r5, r1
     cc2:	61 2c       	mov	r6, r1
     cc4:	71 2c       	mov	r7, r1
     cc6:	f0 2d       	mov	r31, r0
     cc8:	93 01       	movw	r18, r6
     cca:	82 01       	movw	r16, r4
     ccc:	06 1b       	sub	r16, r22
     cce:	17 0b       	sbc	r17, r23
     cd0:	28 0b       	sbc	r18, r24
     cd2:	39 0b       	sbc	r19, r25
     cd4:	b9 01       	movw	r22, r18
     cd6:	a8 01       	movw	r20, r16
     cd8:	97 01       	movw	r18, r14
     cda:	86 01       	movw	r16, r12
     cdc:	89 e0       	ldi	r24, 0x09	; 9
     cde:	90 e0       	ldi	r25, 0x00	; 0
     ce0:	bc da       	rcall	.-2696   	; 0x25a <MoveDynamixel>
     ce2:	8e da       	rcall	.-2788   	; 0x200 <USARTReadStatusPacket>
     ce4:	20 e0       	ldi	r18, 0x00	; 0
     ce6:	30 e0       	ldi	r19, 0x00	; 0
     ce8:	44 e3       	ldi	r20, 0x34	; 52
     cea:	53 e4       	ldi	r21, 0x43	; 67
     cec:	c5 01       	movw	r24, r10
     cee:	b4 01       	movw	r22, r8
     cf0:	0e 94 b6 0f 	call	0x1f6c	; 0x1f6c <__mulsf3>
     cf4:	28 ed       	ldi	r18, 0xD8	; 216
     cf6:	3f e0       	ldi	r19, 0x0F	; 15
     cf8:	49 e4       	ldi	r20, 0x49	; 73
     cfa:	50 e4       	ldi	r21, 0x40	; 64
     cfc:	c9 d7       	rcall	.+3986   	; 0x1c90 <__divsf3>
     cfe:	0e 94 b0 0e 	call	0x1d60	; 0x1d60 <__fixsfsi>
     d02:	0f 2e       	mov	r0, r31
     d04:	fc e2       	ldi	r31, 0x2C	; 44
     d06:	8f 2e       	mov	r8, r31
     d08:	99 24       	eor	r9, r9
     d0a:	93 94       	inc	r9
     d0c:	a1 2c       	mov	r10, r1
     d0e:	b1 2c       	mov	r11, r1
     d10:	f0 2d       	mov	r31, r0
     d12:	95 01       	movw	r18, r10
     d14:	84 01       	movw	r16, r8
     d16:	06 1b       	sub	r16, r22
     d18:	17 0b       	sbc	r17, r23
     d1a:	28 0b       	sbc	r18, r24
     d1c:	39 0b       	sbc	r19, r25
     d1e:	b9 01       	movw	r22, r18
     d20:	a8 01       	movw	r20, r16
     d22:	97 01       	movw	r18, r14
     d24:	86 01       	movw	r16, r12
     d26:	8b e0       	ldi	r24, 0x0B	; 11
     d28:	90 e0       	ldi	r25, 0x00	; 0
     d2a:	97 da       	rcall	.-2770   	; 0x25a <MoveDynamixel>
     d2c:	69 da       	rcall	.-2862   	; 0x200 <USARTReadStatusPacket>
     d2e:	60 96       	adiw	r28, 0x10	; 16
     d30:	0f b6       	in	r0, 0x3f	; 63
     d32:	f8 94       	cli
     d34:	de bf       	out	0x3e, r29	; 62
     d36:	0f be       	out	0x3f, r0	; 63
     d38:	cd bf       	out	0x3d, r28	; 61
     d3a:	df 91       	pop	r29
     d3c:	cf 91       	pop	r28
     d3e:	1f 91       	pop	r17
     d40:	0f 91       	pop	r16
     d42:	ff 90       	pop	r15
     d44:	ef 90       	pop	r14
     d46:	df 90       	pop	r13
     d48:	cf 90       	pop	r12
     d4a:	bf 90       	pop	r11
     d4c:	af 90       	pop	r10
     d4e:	9f 90       	pop	r9
     d50:	8f 90       	pop	r8
     d52:	7f 90       	pop	r7
     d54:	6f 90       	pop	r6
     d56:	5f 90       	pop	r5
     d58:	4f 90       	pop	r4
     d5a:	08 95       	ret

00000d5c <__vector_2>:
     d5c:	1f 92       	push	r1
     d5e:	0f 92       	push	r0
     d60:	0f b6       	in	r0, 0x3f	; 63
     d62:	0f 92       	push	r0
     d64:	11 24       	eor	r1, r1
     d66:	0b b6       	in	r0, 0x3b	; 59
     d68:	0f 92       	push	r0
     d6a:	0f 93       	push	r16
     d6c:	1f 93       	push	r17
     d6e:	2f 93       	push	r18
     d70:	3f 93       	push	r19
     d72:	4f 93       	push	r20
     d74:	5f 93       	push	r21
     d76:	6f 93       	push	r22
     d78:	7f 93       	push	r23
     d7a:	8f 93       	push	r24
     d7c:	9f 93       	push	r25
     d7e:	af 93       	push	r26
     d80:	bf 93       	push	r27
     d82:	cf 93       	push	r28
     d84:	ef 93       	push	r30
     d86:	ff 93       	push	r31
     d88:	80 91 1a 01 	lds	r24, 0x011A
     d8c:	90 91 1b 01 	lds	r25, 0x011B
     d90:	c4 e1       	ldi	r28, 0x14	; 20
     d92:	c8 9f       	mul	r28, r24
     d94:	f0 01       	movw	r30, r0
     d96:	c9 9f       	mul	r28, r25
     d98:	f0 0d       	add	r31, r0
     d9a:	11 24       	eor	r1, r1
     d9c:	20 91 20 01 	lds	r18, 0x0120
     da0:	30 91 21 01 	lds	r19, 0x0121
     da4:	e2 0f       	add	r30, r18
     da6:	f3 1f       	adc	r31, r19
     da8:	ee 0f       	add	r30, r30
     daa:	ff 1f       	adc	r31, r31
     dac:	ee 0f       	add	r30, r30
     dae:	ff 1f       	adc	r31, r31
     db0:	ee 5d       	subi	r30, 0xDE	; 222
     db2:	fe 4f       	sbci	r31, 0xFE	; 254
     db4:	40 81       	ld	r20, Z
     db6:	51 81       	ldd	r21, Z+1	; 0x01
     db8:	62 81       	ldd	r22, Z+2	; 0x02
     dba:	73 81       	ldd	r23, Z+3	; 0x03
     dbc:	04 e1       	ldi	r16, 0x14	; 20
     dbe:	10 e0       	ldi	r17, 0x00	; 0
     dc0:	20 e0       	ldi	r18, 0x00	; 0
     dc2:	30 e0       	ldi	r19, 0x00	; 0
     dc4:	4a da       	rcall	.-2924   	; 0x25a <MoveDynamixel>
     dc6:	1c da       	rcall	.-3016   	; 0x200 <USARTReadStatusPacket>
     dc8:	80 91 1c 01 	lds	r24, 0x011C
     dcc:	90 91 1d 01 	lds	r25, 0x011D
     dd0:	c8 9f       	mul	r28, r24
     dd2:	f0 01       	movw	r30, r0
     dd4:	c9 9f       	mul	r28, r25
     dd6:	f0 0d       	add	r31, r0
     dd8:	11 24       	eor	r1, r1
     dda:	20 91 20 01 	lds	r18, 0x0120
     dde:	30 91 21 01 	lds	r19, 0x0121
     de2:	e2 0f       	add	r30, r18
     de4:	f3 1f       	adc	r31, r19
     de6:	ee 0f       	add	r30, r30
     de8:	ff 1f       	adc	r31, r31
     dea:	ee 0f       	add	r30, r30
     dec:	ff 1f       	adc	r31, r31
     dee:	ee 5d       	subi	r30, 0xDE	; 222
     df0:	fe 4f       	sbci	r31, 0xFE	; 254
     df2:	40 81       	ld	r20, Z
     df4:	51 81       	ldd	r21, Z+1	; 0x01
     df6:	62 81       	ldd	r22, Z+2	; 0x02
     df8:	73 81       	ldd	r23, Z+3	; 0x03
     dfa:	04 e1       	ldi	r16, 0x14	; 20
     dfc:	10 e0       	ldi	r17, 0x00	; 0
     dfe:	20 e0       	ldi	r18, 0x00	; 0
     e00:	30 e0       	ldi	r19, 0x00	; 0
     e02:	2b da       	rcall	.-2986   	; 0x25a <MoveDynamixel>
     e04:	fd d9       	rcall	.-3078   	; 0x200 <USARTReadStatusPacket>
     e06:	80 91 1e 01 	lds	r24, 0x011E
     e0a:	90 91 1f 01 	lds	r25, 0x011F
     e0e:	c8 9f       	mul	r28, r24
     e10:	f0 01       	movw	r30, r0
     e12:	c9 9f       	mul	r28, r25
     e14:	f0 0d       	add	r31, r0
     e16:	11 24       	eor	r1, r1
     e18:	20 91 20 01 	lds	r18, 0x0120
     e1c:	30 91 21 01 	lds	r19, 0x0121
     e20:	e2 0f       	add	r30, r18
     e22:	f3 1f       	adc	r31, r19
     e24:	ee 0f       	add	r30, r30
     e26:	ff 1f       	adc	r31, r31
     e28:	ee 0f       	add	r30, r30
     e2a:	ff 1f       	adc	r31, r31
     e2c:	ee 5d       	subi	r30, 0xDE	; 222
     e2e:	fe 4f       	sbci	r31, 0xFE	; 254
     e30:	40 81       	ld	r20, Z
     e32:	51 81       	ldd	r21, Z+1	; 0x01
     e34:	62 81       	ldd	r22, Z+2	; 0x02
     e36:	73 81       	ldd	r23, Z+3	; 0x03
     e38:	04 e1       	ldi	r16, 0x14	; 20
     e3a:	10 e0       	ldi	r17, 0x00	; 0
     e3c:	20 e0       	ldi	r18, 0x00	; 0
     e3e:	30 e0       	ldi	r19, 0x00	; 0
     e40:	0c da       	rcall	.-3048   	; 0x25a <MoveDynamixel>
     e42:	de d9       	rcall	.-3140   	; 0x200 <USARTReadStatusPacket>
     e44:	80 91 20 01 	lds	r24, 0x0120
     e48:	90 91 21 01 	lds	r25, 0x0121
     e4c:	89 30       	cpi	r24, 0x09	; 9
     e4e:	91 05       	cpc	r25, r1
     e50:	2c f0       	brlt	.+10     	; 0xe5c <__vector_2+0x100>
     e52:	10 92 21 01 	sts	0x0121, r1
     e56:	10 92 20 01 	sts	0x0120, r1
     e5a:	05 c0       	rjmp	.+10     	; 0xe66 <__vector_2+0x10a>
     e5c:	01 96       	adiw	r24, 0x01	; 1
     e5e:	90 93 21 01 	sts	0x0121, r25
     e62:	80 93 20 01 	sts	0x0120, r24
     e66:	ff 91       	pop	r31
     e68:	ef 91       	pop	r30
     e6a:	cf 91       	pop	r28
     e6c:	bf 91       	pop	r27
     e6e:	af 91       	pop	r26
     e70:	9f 91       	pop	r25
     e72:	8f 91       	pop	r24
     e74:	7f 91       	pop	r23
     e76:	6f 91       	pop	r22
     e78:	5f 91       	pop	r21
     e7a:	4f 91       	pop	r20
     e7c:	3f 91       	pop	r19
     e7e:	2f 91       	pop	r18
     e80:	1f 91       	pop	r17
     e82:	0f 91       	pop	r16
     e84:	0f 90       	pop	r0
     e86:	0b be       	out	0x3b, r0	; 59
     e88:	0f 90       	pop	r0
     e8a:	0f be       	out	0x3f, r0	; 63
     e8c:	0f 90       	pop	r0
     e8e:	1f 90       	pop	r1
     e90:	18 95       	reti

00000e92 <CalcCurvedPath>:
     e92:	2f 92       	push	r2
     e94:	3f 92       	push	r3
     e96:	4f 92       	push	r4
     e98:	5f 92       	push	r5
     e9a:	6f 92       	push	r6
     e9c:	7f 92       	push	r7
     e9e:	8f 92       	push	r8
     ea0:	9f 92       	push	r9
     ea2:	af 92       	push	r10
     ea4:	bf 92       	push	r11
     ea6:	cf 92       	push	r12
     ea8:	df 92       	push	r13
     eaa:	ef 92       	push	r14
     eac:	ff 92       	push	r15
     eae:	0f 93       	push	r16
     eb0:	1f 93       	push	r17
     eb2:	cf 93       	push	r28
     eb4:	df 93       	push	r29
     eb6:	cd b7       	in	r28, 0x3d	; 61
     eb8:	de b7       	in	r29, 0x3e	; 62
     eba:	c4 54       	subi	r28, 0x44	; 68
     ebc:	d1 09       	sbc	r29, r1
     ebe:	0f b6       	in	r0, 0x3f	; 63
     ec0:	f8 94       	cli
     ec2:	de bf       	out	0x3e, r29	; 62
     ec4:	0f be       	out	0x3f, r0	; 63
     ec6:	cd bf       	out	0x3d, r28	; 61
     ec8:	29 83       	std	Y+1, r18	; 0x01
     eca:	3a 83       	std	Y+2, r19	; 0x02
     ecc:	4b 83       	std	Y+3, r20	; 0x03
     ece:	5c 83       	std	Y+4, r21	; 0x04
     ed0:	6d 83       	std	Y+5, r22	; 0x05
     ed2:	7e 83       	std	Y+6, r23	; 0x06
     ed4:	8f 83       	std	Y+7, r24	; 0x07
     ed6:	98 87       	std	Y+8, r25	; 0x08
     ed8:	1e ab       	std	Y+54, r17	; 0x36
     eda:	0d ab       	std	Y+53, r16	; 0x35
     edc:	6d 96       	adiw	r28, 0x1d	; 29
     ede:	4c ac       	ldd	r4, Y+60	; 0x3c
     ee0:	5d ac       	ldd	r5, Y+61	; 0x3d
     ee2:	6e ac       	ldd	r6, Y+62	; 0x3e
     ee4:	7f ac       	ldd	r7, Y+63	; 0x3f
     ee6:	6d 97       	sbiw	r28, 0x1d	; 29
     ee8:	29 80       	ldd	r2, Y+1	; 0x01
     eea:	3a 80       	ldd	r3, Y+2	; 0x02
     eec:	2b 81       	ldd	r18, Y+3	; 0x03
     eee:	3c 81       	ldd	r19, Y+4	; 0x04
     ef0:	21 96       	adiw	r28, 0x01	; 1
     ef2:	3f af       	std	Y+63, r19	; 0x3f
     ef4:	2e af       	std	Y+62, r18	; 0x3e
     ef6:	21 97       	sbiw	r28, 0x01	; 1
     ef8:	4d 81       	ldd	r20, Y+5	; 0x05
     efa:	5e 81       	ldd	r21, Y+6	; 0x06
     efc:	23 96       	adiw	r28, 0x03	; 3
     efe:	5f af       	std	Y+63, r21	; 0x3f
     f00:	4e af       	std	Y+62, r20	; 0x3e
     f02:	23 97       	sbiw	r28, 0x03	; 3
     f04:	8f 81       	ldd	r24, Y+7	; 0x07
     f06:	98 85       	ldd	r25, Y+8	; 0x08
     f08:	25 96       	adiw	r28, 0x05	; 5
     f0a:	9f af       	std	Y+63, r25	; 0x3f
     f0c:	8e af       	std	Y+62, r24	; 0x3e
     f0e:	25 97       	sbiw	r28, 0x05	; 5
     f10:	c1 01       	movw	r24, r2
     f12:	01 97       	sbiw	r24, 0x01	; 1
     f14:	02 97       	sbiw	r24, 0x02	; 2
     f16:	88 f4       	brcc	.+34     	; 0xf3a <CalcCurvedPath+0xa8>
     f18:	f7 fa       	bst	r15, 7
     f1a:	f0 94       	com	r15
     f1c:	f7 f8       	bld	r15, 7
     f1e:	f0 94       	com	r15
     f20:	a1 96       	adiw	r28, 0x21	; 33
     f22:	2c ad       	ldd	r18, Y+60	; 0x3c
     f24:	3d ad       	ldd	r19, Y+61	; 0x3d
     f26:	4e ad       	ldd	r20, Y+62	; 0x3e
     f28:	5f ad       	ldd	r21, Y+63	; 0x3f
     f2a:	a1 97       	sbiw	r28, 0x21	; 33
     f2c:	50 58       	subi	r21, 0x80	; 128
     f2e:	a1 96       	adiw	r28, 0x21	; 33
     f30:	2c af       	std	Y+60, r18	; 0x3c
     f32:	3d af       	std	Y+61, r19	; 0x3d
     f34:	4e af       	std	Y+62, r20	; 0x3e
     f36:	5f af       	std	Y+63, r21	; 0x3f
     f38:	a1 97       	sbiw	r28, 0x21	; 33
     f3a:	c1 01       	movw	r24, r2
     f3c:	03 97       	sbiw	r24, 0x03	; 3
     f3e:	02 97       	sbiw	r24, 0x02	; 2
     f40:	88 f4       	brcc	.+34     	; 0xf64 <CalcCurvedPath+0xd2>
     f42:	b7 fa       	bst	r11, 7
     f44:	b0 94       	com	r11
     f46:	b7 f8       	bld	r11, 7
     f48:	b0 94       	com	r11
     f4a:	a5 96       	adiw	r28, 0x25	; 37
     f4c:	8c ad       	ldd	r24, Y+60	; 0x3c
     f4e:	9d ad       	ldd	r25, Y+61	; 0x3d
     f50:	ae ad       	ldd	r26, Y+62	; 0x3e
     f52:	bf ad       	ldd	r27, Y+63	; 0x3f
     f54:	a5 97       	sbiw	r28, 0x25	; 37
     f56:	b0 58       	subi	r27, 0x80	; 128
     f58:	a5 96       	adiw	r28, 0x25	; 37
     f5a:	8c af       	std	Y+60, r24	; 0x3c
     f5c:	9d af       	std	Y+61, r25	; 0x3d
     f5e:	ae af       	std	Y+62, r26	; 0x3e
     f60:	bf af       	std	Y+63, r27	; 0x3f
     f62:	a5 97       	sbiw	r28, 0x25	; 37
     f64:	ad a9       	ldd	r26, Y+53	; 0x35
     f66:	be a9       	ldd	r27, Y+54	; 0x36
     f68:	bd 01       	movw	r22, r26
     f6a:	88 27       	eor	r24, r24
     f6c:	77 fd       	sbrc	r23, 7
     f6e:	80 95       	com	r24
     f70:	98 2f       	mov	r25, r24
     f72:	29 d7       	rcall	.+3666   	; 0x1dc6 <__floatsisf>
     f74:	69 87       	std	Y+9, r22	; 0x09
     f76:	7a 87       	std	Y+10, r23	; 0x0a
     f78:	8b 87       	std	Y+11, r24	; 0x0b
     f7a:	9c 87       	std	Y+12, r25	; 0x0c
     f7c:	a7 01       	movw	r20, r14
     f7e:	96 01       	movw	r18, r12
     f80:	a1 96       	adiw	r28, 0x21	; 33
     f82:	6c ad       	ldd	r22, Y+60	; 0x3c
     f84:	7d ad       	ldd	r23, Y+61	; 0x3d
     f86:	8e ad       	ldd	r24, Y+62	; 0x3e
     f88:	9f ad       	ldd	r25, Y+63	; 0x3f
     f8a:	a1 97       	sbiw	r28, 0x21	; 33
     f8c:	ba d5       	rcall	.+2932   	; 0x1b02 <__subsf3>
     f8e:	29 85       	ldd	r18, Y+9	; 0x09
     f90:	3a 85       	ldd	r19, Y+10	; 0x0a
     f92:	4b 85       	ldd	r20, Y+11	; 0x0b
     f94:	5c 85       	ldd	r21, Y+12	; 0x0c
     f96:	7c d6       	rcall	.+3320   	; 0x1c90 <__divsf3>
     f98:	6b a7       	std	Y+43, r22	; 0x2b
     f9a:	7c a7       	std	Y+44, r23	; 0x2c
     f9c:	8d a7       	std	Y+45, r24	; 0x2d
     f9e:	9e a7       	std	Y+46, r25	; 0x2e
     fa0:	a5 01       	movw	r20, r10
     fa2:	94 01       	movw	r18, r8
     fa4:	a5 96       	adiw	r28, 0x25	; 37
     fa6:	6c ad       	ldd	r22, Y+60	; 0x3c
     fa8:	7d ad       	ldd	r23, Y+61	; 0x3d
     faa:	8e ad       	ldd	r24, Y+62	; 0x3e
     fac:	9f ad       	ldd	r25, Y+63	; 0x3f
     fae:	a5 97       	sbiw	r28, 0x25	; 37
     fb0:	a8 d5       	rcall	.+2896   	; 0x1b02 <__subsf3>
     fb2:	29 85       	ldd	r18, Y+9	; 0x09
     fb4:	3a 85       	ldd	r19, Y+10	; 0x0a
     fb6:	4b 85       	ldd	r20, Y+11	; 0x0b
     fb8:	5c 85       	ldd	r21, Y+12	; 0x0c
     fba:	6a d6       	rcall	.+3284   	; 0x1c90 <__divsf3>
     fbc:	6f a7       	std	Y+47, r22	; 0x2f
     fbe:	78 ab       	std	Y+48, r23	; 0x30
     fc0:	89 ab       	std	Y+49, r24	; 0x31
     fc2:	9a ab       	std	Y+50, r25	; 0x32
     fc4:	8d a9       	ldd	r24, Y+53	; 0x35
     fc6:	9e a9       	ldd	r25, Y+54	; 0x36
     fc8:	99 23       	and	r25, r25
     fca:	0c f4       	brge	.+2      	; 0xfce <CalcCurvedPath+0x13c>
     fcc:	01 96       	adiw	r24, 0x01	; 1
     fce:	fc 01       	movw	r30, r24
     fd0:	f5 95       	asr	r31
     fd2:	e7 95       	ror	r30
     fd4:	fc ab       	std	Y+52, r31	; 0x34
     fd6:	eb ab       	std	Y+51, r30	; 0x33
     fd8:	bf 01       	movw	r22, r30
     fda:	88 27       	eor	r24, r24
     fdc:	77 fd       	sbrc	r23, 7
     fde:	80 95       	com	r24
     fe0:	98 2f       	mov	r25, r24
     fe2:	f1 d6       	rcall	.+3554   	; 0x1dc6 <__floatsisf>
     fe4:	69 87       	std	Y+9, r22	; 0x09
     fe6:	7a 87       	std	Y+10, r23	; 0x0a
     fe8:	8b 87       	std	Y+11, r24	; 0x0b
     fea:	9c 87       	std	Y+12, r25	; 0x0c
     fec:	20 e0       	ldi	r18, 0x00	; 0
     fee:	30 e0       	ldi	r19, 0x00	; 0
     ff0:	40 e2       	ldi	r20, 0x20	; 32
     ff2:	52 e4       	ldi	r21, 0x42	; 66
     ff4:	a9 96       	adiw	r28, 0x29	; 41
     ff6:	6c ad       	ldd	r22, Y+60	; 0x3c
     ff8:	7d ad       	ldd	r23, Y+61	; 0x3d
     ffa:	8e ad       	ldd	r24, Y+62	; 0x3e
     ffc:	9f ad       	ldd	r25, Y+63	; 0x3f
     ffe:	a9 97       	sbiw	r28, 0x29	; 41
    1000:	81 d5       	rcall	.+2818   	; 0x1b04 <__addsf3>
    1002:	a3 01       	movw	r20, r6
    1004:	92 01       	movw	r18, r4
    1006:	7d d5       	rcall	.+2810   	; 0x1b02 <__subsf3>
    1008:	29 85       	ldd	r18, Y+9	; 0x09
    100a:	3a 85       	ldd	r19, Y+10	; 0x0a
    100c:	4b 85       	ldd	r20, Y+11	; 0x0b
    100e:	5c 85       	ldd	r21, Y+12	; 0x0c
    1010:	3f d6       	rcall	.+3198   	; 0x1c90 <__divsf3>
    1012:	6f ab       	std	Y+55, r22	; 0x37
    1014:	78 af       	std	Y+56, r23	; 0x38
    1016:	89 af       	std	Y+57, r24	; 0x39
    1018:	9a af       	std	Y+58, r25	; 0x3a
    101a:	a3 01       	movw	r20, r6
    101c:	92 01       	movw	r18, r4
    101e:	a9 96       	adiw	r28, 0x29	; 41
    1020:	6c ad       	ldd	r22, Y+60	; 0x3c
    1022:	7d ad       	ldd	r23, Y+61	; 0x3d
    1024:	8e ad       	ldd	r24, Y+62	; 0x3e
    1026:	9f ad       	ldd	r25, Y+63	; 0x3f
    1028:	a9 97       	sbiw	r28, 0x29	; 41
    102a:	6b d5       	rcall	.+2774   	; 0x1b02 <__subsf3>
    102c:	20 e0       	ldi	r18, 0x00	; 0
    102e:	30 e0       	ldi	r19, 0x00	; 0
    1030:	40 e2       	ldi	r20, 0x20	; 32
    1032:	52 e4       	ldi	r21, 0x42	; 66
    1034:	66 d5       	rcall	.+2764   	; 0x1b02 <__subsf3>
    1036:	29 85       	ldd	r18, Y+9	; 0x09
    1038:	3a 85       	ldd	r19, Y+10	; 0x0a
    103a:	4b 85       	ldd	r20, Y+11	; 0x0b
    103c:	5c 85       	ldd	r21, Y+12	; 0x0c
    103e:	28 d6       	rcall	.+3152   	; 0x1c90 <__divsf3>
    1040:	6b af       	std	Y+59, r22	; 0x3b
    1042:	7c af       	std	Y+60, r23	; 0x3c
    1044:	8d af       	std	Y+61, r24	; 0x3d
    1046:	9e af       	std	Y+62, r25	; 0x3e
    1048:	2b a9       	ldd	r18, Y+51	; 0x33
    104a:	3c a9       	ldd	r19, Y+52	; 0x34
    104c:	12 16       	cp	r1, r18
    104e:	13 06       	cpc	r1, r19
    1050:	0c f0       	brlt	.+2      	; 0x1054 <CalcCurvedPath+0x1c2>
    1052:	06 c2       	rjmp	.+1036   	; 0x1460 <CalcCurvedPath+0x5ce>
    1054:	20 e5       	ldi	r18, 0x50	; 80
    1056:	21 96       	adiw	r28, 0x01	; 1
    1058:	4e ad       	ldd	r20, Y+62	; 0x3e
    105a:	5f ad       	ldd	r21, Y+63	; 0x3f
    105c:	21 97       	sbiw	r28, 0x01	; 1
    105e:	24 9f       	mul	r18, r20
    1060:	c0 01       	movw	r24, r0
    1062:	25 9f       	mul	r18, r21
    1064:	90 0d       	add	r25, r0
    1066:	11 24       	eor	r1, r1
    1068:	dc 01       	movw	r26, r24
    106a:	ae 5d       	subi	r26, 0xDE	; 222
    106c:	be 4f       	sbci	r27, 0xFE	; 254
    106e:	ba a3       	std	Y+34, r27	; 0x22
    1070:	a9 a3       	std	Y+33, r26	; 0x21
    1072:	23 96       	adiw	r28, 0x03	; 3
    1074:	ee ad       	ldd	r30, Y+62	; 0x3e
    1076:	ff ad       	ldd	r31, Y+63	; 0x3f
    1078:	23 97       	sbiw	r28, 0x03	; 3
    107a:	2e 9f       	mul	r18, r30
    107c:	c0 01       	movw	r24, r0
    107e:	2f 9f       	mul	r18, r31
    1080:	90 0d       	add	r25, r0
    1082:	11 24       	eor	r1, r1
    1084:	ac 01       	movw	r20, r24
    1086:	4e 5d       	subi	r20, 0xDE	; 222
    1088:	5e 4f       	sbci	r21, 0xFE	; 254
    108a:	5c a3       	std	Y+36, r21	; 0x24
    108c:	4b a3       	std	Y+35, r20	; 0x23
    108e:	25 96       	adiw	r28, 0x05	; 5
    1090:	ae ad       	ldd	r26, Y+62	; 0x3e
    1092:	bf ad       	ldd	r27, Y+63	; 0x3f
    1094:	25 97       	sbiw	r28, 0x05	; 5
    1096:	2a 9f       	mul	r18, r26
    1098:	c0 01       	movw	r24, r0
    109a:	2b 9f       	mul	r18, r27
    109c:	90 0d       	add	r25, r0
    109e:	11 24       	eor	r1, r1
    10a0:	fc 01       	movw	r30, r24
    10a2:	ee 5d       	subi	r30, 0xDE	; 222
    10a4:	fe 4f       	sbci	r31, 0xFE	; 254
    10a6:	fe a3       	std	Y+38, r31	; 0x26
    10a8:	ed a3       	std	Y+37, r30	; 0x25
    10aa:	00 e0       	ldi	r16, 0x00	; 0
    10ac:	10 e0       	ldi	r17, 0x00	; 0
    10ae:	c9 86       	std	Y+9, r12	; 0x09
    10b0:	da 86       	std	Y+10, r13	; 0x0a
    10b2:	eb 86       	std	Y+11, r14	; 0x0b
    10b4:	fc 86       	std	Y+12, r15	; 0x0c
    10b6:	8d 86       	std	Y+13, r8	; 0x0d
    10b8:	9e 86       	std	Y+14, r9	; 0x0e
    10ba:	af 86       	std	Y+15, r10	; 0x0f
    10bc:	b8 8a       	std	Y+16, r11	; 0x10
    10be:	49 8a       	std	Y+17, r4	; 0x11
    10c0:	5a 8a       	std	Y+18, r5	; 0x12
    10c2:	6b 8a       	std	Y+19, r6	; 0x13
    10c4:	7c 8a       	std	Y+20, r7	; 0x14
    10c6:	2b a5       	ldd	r18, Y+43	; 0x2b
    10c8:	3c a5       	ldd	r19, Y+44	; 0x2c
    10ca:	4d a5       	ldd	r20, Y+45	; 0x2d
    10cc:	5e a5       	ldd	r21, Y+46	; 0x2e
    10ce:	69 85       	ldd	r22, Y+9	; 0x09
    10d0:	7a 85       	ldd	r23, Y+10	; 0x0a
    10d2:	8b 85       	ldd	r24, Y+11	; 0x0b
    10d4:	9c 85       	ldd	r25, Y+12	; 0x0c
    10d6:	16 d5       	rcall	.+2604   	; 0x1b04 <__addsf3>
    10d8:	69 87       	std	Y+9, r22	; 0x09
    10da:	7a 87       	std	Y+10, r23	; 0x0a
    10dc:	8b 87       	std	Y+11, r24	; 0x0b
    10de:	9c 87       	std	Y+12, r25	; 0x0c
    10e0:	2f a5       	ldd	r18, Y+47	; 0x2f
    10e2:	38 a9       	ldd	r19, Y+48	; 0x30
    10e4:	49 a9       	ldd	r20, Y+49	; 0x31
    10e6:	5a a9       	ldd	r21, Y+50	; 0x32
    10e8:	6d 85       	ldd	r22, Y+13	; 0x0d
    10ea:	7e 85       	ldd	r23, Y+14	; 0x0e
    10ec:	8f 85       	ldd	r24, Y+15	; 0x0f
    10ee:	98 89       	ldd	r25, Y+16	; 0x10
    10f0:	09 d5       	rcall	.+2578   	; 0x1b04 <__addsf3>
    10f2:	6d 87       	std	Y+13, r22	; 0x0d
    10f4:	7e 87       	std	Y+14, r23	; 0x0e
    10f6:	8f 87       	std	Y+15, r24	; 0x0f
    10f8:	98 8b       	std	Y+16, r25	; 0x10
    10fa:	2f a9       	ldd	r18, Y+55	; 0x37
    10fc:	38 ad       	ldd	r19, Y+56	; 0x38
    10fe:	49 ad       	ldd	r20, Y+57	; 0x39
    1100:	5a ad       	ldd	r21, Y+58	; 0x3a
    1102:	69 89       	ldd	r22, Y+17	; 0x11
    1104:	7a 89       	ldd	r23, Y+18	; 0x12
    1106:	8b 89       	ldd	r24, Y+19	; 0x13
    1108:	9c 89       	ldd	r25, Y+20	; 0x14
    110a:	fc d4       	rcall	.+2552   	; 0x1b04 <__addsf3>
    110c:	69 8b       	std	Y+17, r22	; 0x11
    110e:	7a 8b       	std	Y+18, r23	; 0x12
    1110:	8b 8b       	std	Y+19, r24	; 0x13
    1112:	9c 8b       	std	Y+20, r25	; 0x14
    1114:	2d 85       	ldd	r18, Y+13	; 0x0d
    1116:	3e 85       	ldd	r19, Y+14	; 0x0e
    1118:	4f 85       	ldd	r20, Y+15	; 0x0f
    111a:	58 89       	ldd	r21, Y+16	; 0x10
    111c:	69 85       	ldd	r22, Y+9	; 0x09
    111e:	7a 85       	ldd	r23, Y+10	; 0x0a
    1120:	8b 85       	ldd	r24, Y+11	; 0x0b
    1122:	9c 85       	ldd	r25, Y+12	; 0x0c
    1124:	62 d5       	rcall	.+2756   	; 0x1bea <atan2>
    1126:	20 e0       	ldi	r18, 0x00	; 0
    1128:	30 e0       	ldi	r19, 0x00	; 0
    112a:	44 e3       	ldi	r20, 0x34	; 52
    112c:	53 e4       	ldi	r21, 0x43	; 67
    112e:	1e d7       	rcall	.+3644   	; 0x1f6c <__mulsf3>
    1130:	28 ed       	ldi	r18, 0xD8	; 216
    1132:	3f e0       	ldi	r19, 0x0F	; 15
    1134:	49 e4       	ldi	r20, 0x49	; 73
    1136:	50 e4       	ldi	r21, 0x40	; 64
    1138:	ab d5       	rcall	.+2902   	; 0x1c90 <__divsf3>
    113a:	12 d6       	rcall	.+3108   	; 0x1d60 <__fixsfsi>
    113c:	6f a3       	std	Y+39, r22	; 0x27
    113e:	78 a7       	std	Y+40, r23	; 0x28
    1140:	89 a7       	std	Y+41, r24	; 0x29
    1142:	9a a7       	std	Y+42, r25	; 0x2a
    1144:	29 89       	ldd	r18, Y+17	; 0x11
    1146:	3a 89       	ldd	r19, Y+18	; 0x12
    1148:	4b 89       	ldd	r20, Y+19	; 0x13
    114a:	5c 89       	ldd	r21, Y+20	; 0x14
    114c:	ca 01       	movw	r24, r20
    114e:	b9 01       	movw	r22, r18
    1150:	0d d7       	rcall	.+3610   	; 0x1f6c <__mulsf3>
    1152:	6d 8b       	std	Y+21, r22	; 0x15
    1154:	7e 8b       	std	Y+22, r23	; 0x16
    1156:	8f 8b       	std	Y+23, r24	; 0x17
    1158:	98 8f       	std	Y+24, r25	; 0x18
    115a:	29 85       	ldd	r18, Y+9	; 0x09
    115c:	3a 85       	ldd	r19, Y+10	; 0x0a
    115e:	4b 85       	ldd	r20, Y+11	; 0x0b
    1160:	5c 85       	ldd	r21, Y+12	; 0x0c
    1162:	ca 01       	movw	r24, r20
    1164:	b9 01       	movw	r22, r18
    1166:	02 d7       	rcall	.+3588   	; 0x1f6c <__mulsf3>
    1168:	6b 01       	movw	r12, r22
    116a:	7c 01       	movw	r14, r24
    116c:	2d 85       	ldd	r18, Y+13	; 0x0d
    116e:	3e 85       	ldd	r19, Y+14	; 0x0e
    1170:	4f 85       	ldd	r20, Y+15	; 0x0f
    1172:	58 89       	ldd	r21, Y+16	; 0x10
    1174:	ca 01       	movw	r24, r20
    1176:	b9 01       	movw	r22, r18
    1178:	f9 d6       	rcall	.+3570   	; 0x1f6c <__mulsf3>
    117a:	9b 01       	movw	r18, r22
    117c:	ac 01       	movw	r20, r24
    117e:	c7 01       	movw	r24, r14
    1180:	b6 01       	movw	r22, r12
    1182:	c0 d4       	rcall	.+2432   	; 0x1b04 <__addsf3>
    1184:	69 8f       	std	Y+25, r22	; 0x19
    1186:	7a 8f       	std	Y+26, r23	; 0x1a
    1188:	8b 8f       	std	Y+27, r24	; 0x1b
    118a:	9c 8f       	std	Y+28, r25	; 0x1c
    118c:	56 d7       	rcall	.+3756   	; 0x203a <sqrt>
    118e:	20 e0       	ldi	r18, 0x00	; 0
    1190:	30 e0       	ldi	r19, 0x00	; 0
    1192:	48 e4       	ldi	r20, 0x48	; 72
    1194:	52 e4       	ldi	r21, 0x42	; 66
    1196:	b5 d4       	rcall	.+2410   	; 0x1b02 <__subsf3>
    1198:	6b 01       	movw	r12, r22
    119a:	7c 01       	movw	r14, r24
    119c:	9b 01       	movw	r18, r22
    119e:	ac 01       	movw	r20, r24
    11a0:	e5 d6       	rcall	.+3530   	; 0x1f6c <__mulsf3>
    11a2:	6d 8f       	std	Y+29, r22	; 0x1d
    11a4:	7e 8f       	std	Y+30, r23	; 0x1e
    11a6:	8f 8f       	std	Y+31, r24	; 0x1f
    11a8:	98 a3       	std	Y+32, r25	; 0x20
    11aa:	9b 01       	movw	r18, r22
    11ac:	ac 01       	movw	r20, r24
    11ae:	6d 89       	ldd	r22, Y+21	; 0x15
    11b0:	7e 89       	ldd	r23, Y+22	; 0x16
    11b2:	8f 89       	ldd	r24, Y+23	; 0x17
    11b4:	98 8d       	ldd	r25, Y+24	; 0x18
    11b6:	a6 d4       	rcall	.+2380   	; 0x1b04 <__addsf3>
    11b8:	4b 01       	movw	r8, r22
    11ba:	5c 01       	movw	r10, r24
    11bc:	3e d7       	rcall	.+3708   	; 0x203a <sqrt>
    11be:	9b 01       	movw	r18, r22
    11c0:	ac 01       	movw	r20, r24
    11c2:	69 89       	ldd	r22, Y+17	; 0x11
    11c4:	7a 89       	ldd	r23, Y+18	; 0x12
    11c6:	8b 89       	ldd	r24, Y+19	; 0x13
    11c8:	9c 89       	ldd	r25, Y+20	; 0x14
    11ca:	90 58       	subi	r25, 0x80	; 128
    11cc:	61 d5       	rcall	.+2754   	; 0x1c90 <__divsf3>
    11ce:	8b d4       	rcall	.+2326   	; 0x1ae6 <acos>
    11d0:	2b 01       	movw	r4, r22
    11d2:	3c 01       	movw	r6, r24
    11d4:	20 e0       	ldi	r18, 0x00	; 0
    11d6:	30 e0       	ldi	r19, 0x00	; 0
    11d8:	48 e4       	ldi	r20, 0x48	; 72
    11da:	52 e4       	ldi	r21, 0x42	; 66
    11dc:	69 8d       	ldd	r22, Y+25	; 0x19
    11de:	7a 8d       	ldd	r23, Y+26	; 0x1a
    11e0:	8b 8d       	ldd	r24, Y+27	; 0x1b
    11e2:	9c 8d       	ldd	r25, Y+28	; 0x1c
    11e4:	8e d4       	rcall	.+2332   	; 0x1b02 <__subsf3>
    11e6:	29 d7       	rcall	.+3666   	; 0x203a <sqrt>
    11e8:	9b 01       	movw	r18, r22
    11ea:	ac 01       	movw	r20, r24
    11ec:	c7 01       	movw	r24, r14
    11ee:	b6 01       	movw	r22, r12
    11f0:	bd d6       	rcall	.+3450   	; 0x1f6c <__mulsf3>
    11f2:	9b 01       	movw	r18, r22
    11f4:	ac 01       	movw	r20, r24
    11f6:	6d 89       	ldd	r22, Y+21	; 0x15
    11f8:	7e 89       	ldd	r23, Y+22	; 0x16
    11fa:	8f 89       	ldd	r24, Y+23	; 0x17
    11fc:	98 8d       	ldd	r25, Y+24	; 0x18
    11fe:	82 d4       	rcall	.+2308   	; 0x1b04 <__addsf3>
    1200:	1c d7       	rcall	.+3640   	; 0x203a <sqrt>
    1202:	6b 01       	movw	r12, r22
    1204:	7c 01       	movw	r14, r24
    1206:	20 e0       	ldi	r18, 0x00	; 0
    1208:	38 e4       	ldi	r19, 0x48	; 72
    120a:	4c e8       	ldi	r20, 0x8C	; 140
    120c:	55 e4       	ldi	r21, 0x45	; 69
    120e:	c5 01       	movw	r24, r10
    1210:	b4 01       	movw	r22, r8
    1212:	78 d4       	rcall	.+2288   	; 0x1b04 <__addsf3>
    1214:	20 e0       	ldi	r18, 0x00	; 0
    1216:	38 e0       	ldi	r19, 0x08	; 8
    1218:	44 e8       	ldi	r20, 0x84	; 132
    121a:	56 e4       	ldi	r21, 0x46	; 70
    121c:	72 d4       	rcall	.+2276   	; 0x1b02 <__subsf3>
    121e:	4b 01       	movw	r8, r22
    1220:	5c 01       	movw	r10, r24
    1222:	a7 01       	movw	r20, r14
    1224:	96 01       	movw	r18, r12
    1226:	c7 01       	movw	r24, r14
    1228:	b6 01       	movw	r22, r12
    122a:	6c d4       	rcall	.+2264   	; 0x1b04 <__addsf3>
    122c:	20 e0       	ldi	r18, 0x00	; 0
    122e:	30 e0       	ldi	r19, 0x00	; 0
    1230:	46 e8       	ldi	r20, 0x86	; 134
    1232:	52 e4       	ldi	r21, 0x42	; 66
    1234:	9b d6       	rcall	.+3382   	; 0x1f6c <__mulsf3>
    1236:	9b 01       	movw	r18, r22
    1238:	ac 01       	movw	r20, r24
    123a:	c5 01       	movw	r24, r10
    123c:	b4 01       	movw	r22, r8
    123e:	28 d5       	rcall	.+2640   	; 0x1c90 <__divsf3>
    1240:	52 d4       	rcall	.+2212   	; 0x1ae6 <acos>
    1242:	9b 01       	movw	r18, r22
    1244:	ac 01       	movw	r20, r24
    1246:	c3 01       	movw	r24, r6
    1248:	b2 01       	movw	r22, r4
    124a:	5c d4       	rcall	.+2232   	; 0x1b04 <__addsf3>
    124c:	24 ee       	ldi	r18, 0xE4	; 228
    124e:	3e e2       	ldi	r19, 0x2E	; 46
    1250:	45 e6       	ldi	r20, 0x65	; 101
    1252:	52 e4       	ldi	r21, 0x42	; 66
    1254:	8b d6       	rcall	.+3350   	; 0x1f6c <__mulsf3>
    1256:	84 d5       	rcall	.+2824   	; 0x1d60 <__fixsfsi>
    1258:	6b 01       	movw	r12, r22
    125a:	7c 01       	movw	r14, r24
    125c:	2d 89       	ldd	r18, Y+21	; 0x15
    125e:	3e 89       	ldd	r19, Y+22	; 0x16
    1260:	4f 89       	ldd	r20, Y+23	; 0x17
    1262:	58 8d       	ldd	r21, Y+24	; 0x18
    1264:	60 e0       	ldi	r22, 0x00	; 0
    1266:	7a e1       	ldi	r23, 0x1A	; 26
    1268:	87 ea       	ldi	r24, 0xA7	; 167
    126a:	96 e4       	ldi	r25, 0x46	; 70
    126c:	4a d4       	rcall	.+2196   	; 0x1b02 <__subsf3>
    126e:	2d 8d       	ldd	r18, Y+29	; 0x1d
    1270:	3e 8d       	ldd	r19, Y+30	; 0x1e
    1272:	4f 8d       	ldd	r20, Y+31	; 0x1f
    1274:	58 a1       	ldd	r21, Y+32	; 0x20
    1276:	45 d4       	rcall	.+2186   	; 0x1b02 <__subsf3>
    1278:	20 e0       	ldi	r18, 0x00	; 0
    127a:	38 e1       	ldi	r19, 0x18	; 24
    127c:	48 e8       	ldi	r20, 0x88	; 136
    127e:	56 e4       	ldi	r21, 0x46	; 70
    1280:	07 d5       	rcall	.+2574   	; 0x1c90 <__divsf3>
    1282:	31 d4       	rcall	.+2146   	; 0x1ae6 <acos>
    1284:	20 e0       	ldi	r18, 0x00	; 0
    1286:	30 e0       	ldi	r19, 0x00	; 0
    1288:	44 e3       	ldi	r20, 0x34	; 52
    128a:	53 e4       	ldi	r21, 0x43	; 67
    128c:	6f d6       	rcall	.+3294   	; 0x1f6c <__mulsf3>
    128e:	28 ed       	ldi	r18, 0xD8	; 216
    1290:	3f e0       	ldi	r19, 0x0F	; 15
    1292:	49 e4       	ldi	r20, 0x49	; 73
    1294:	50 e4       	ldi	r21, 0x40	; 64
    1296:	fc d4       	rcall	.+2552   	; 0x1c90 <__divsf3>
    1298:	63 d5       	rcall	.+2758   	; 0x1d60 <__fixsfsi>
    129a:	f2 e0       	ldi	r31, 0x02	; 2
    129c:	2f 16       	cp	r2, r31
    129e:	31 04       	cpc	r3, r1
    12a0:	c1 f1       	breq	.+112    	; 0x1312 <CalcCurvedPath+0x480>
    12a2:	2c f4       	brge	.+10     	; 0x12ae <CalcCurvedPath+0x41c>
    12a4:	31 e0       	ldi	r19, 0x01	; 1
    12a6:	23 16       	cp	r2, r19
    12a8:	31 04       	cpc	r3, r1
    12aa:	61 f0       	breq	.+24     	; 0x12c4 <CalcCurvedPath+0x432>
    12ac:	b4 c0       	rjmp	.+360    	; 0x1416 <CalcCurvedPath+0x584>
    12ae:	43 e0       	ldi	r20, 0x03	; 3
    12b0:	24 16       	cp	r2, r20
    12b2:	31 04       	cpc	r3, r1
    12b4:	09 f4       	brne	.+2      	; 0x12b8 <CalcCurvedPath+0x426>
    12b6:	54 c0       	rjmp	.+168    	; 0x1360 <CalcCurvedPath+0x4ce>
    12b8:	54 e0       	ldi	r21, 0x04	; 4
    12ba:	25 16       	cp	r2, r21
    12bc:	31 04       	cpc	r3, r1
    12be:	09 f4       	brne	.+2      	; 0x12c2 <CalcCurvedPath+0x430>
    12c0:	7d c0       	rjmp	.+250    	; 0x13bc <CalcCurvedPath+0x52a>
    12c2:	a9 c0       	rjmp	.+338    	; 0x1416 <CalcCurvedPath+0x584>
    12c4:	8f a0       	ldd	r8, Y+39	; 0x27
    12c6:	98 a4       	ldd	r9, Y+40	; 0x28
    12c8:	a9 a4       	ldd	r10, Y+41	; 0x29
    12ca:	ba a4       	ldd	r11, Y+42	; 0x2a
    12cc:	a9 e6       	ldi	r26, 0x69	; 105
    12ce:	8a 0e       	add	r8, r26
    12d0:	91 1c       	adc	r9, r1
    12d2:	a1 1c       	adc	r10, r1
    12d4:	b1 1c       	adc	r11, r1
    12d6:	e9 a1       	ldd	r30, Y+33	; 0x21
    12d8:	fa a1       	ldd	r31, Y+34	; 0x22
    12da:	80 82       	st	Z, r8
    12dc:	91 82       	std	Z+1, r9	; 0x01
    12de:	a2 82       	std	Z+2, r10	; 0x02
    12e0:	b3 82       	std	Z+3, r11	; 0x03
    12e2:	fb e4       	ldi	r31, 0x4B	; 75
    12e4:	cf 0e       	add	r12, r31
    12e6:	d1 1c       	adc	r13, r1
    12e8:	e1 1c       	adc	r14, r1
    12ea:	f1 1c       	adc	r15, r1
    12ec:	ab a1       	ldd	r26, Y+35	; 0x23
    12ee:	bc a1       	ldd	r27, Y+36	; 0x24
    12f0:	cd 92       	st	X+, r12
    12f2:	dd 92       	st	X+, r13
    12f4:	ed 92       	st	X+, r14
    12f6:	fc 92       	st	X, r15
    12f8:	13 97       	sbiw	r26, 0x03	; 3
    12fa:	dc 01       	movw	r26, r24
    12fc:	cb 01       	movw	r24, r22
    12fe:	01 96       	adiw	r24, 0x01	; 1
    1300:	a1 1d       	adc	r26, r1
    1302:	b1 1d       	adc	r27, r1
    1304:	ed a1       	ldd	r30, Y+37	; 0x25
    1306:	fe a1       	ldd	r31, Y+38	; 0x26
    1308:	80 83       	st	Z, r24
    130a:	91 83       	std	Z+1, r25	; 0x01
    130c:	a2 83       	std	Z+2, r26	; 0x02
    130e:	b3 83       	std	Z+3, r27	; 0x03
    1310:	82 c0       	rjmp	.+260    	; 0x1416 <CalcCurvedPath+0x584>
    1312:	8f a0       	ldd	r8, Y+39	; 0x27
    1314:	98 a4       	ldd	r9, Y+40	; 0x28
    1316:	a9 a4       	ldd	r10, Y+41	; 0x29
    1318:	ba a4       	ldd	r11, Y+42	; 0x2a
    131a:	f1 ec       	ldi	r31, 0xC1	; 193
    131c:	8f 0e       	add	r8, r31
    131e:	91 1c       	adc	r9, r1
    1320:	a1 1c       	adc	r10, r1
    1322:	b1 1c       	adc	r11, r1
    1324:	a9 a1       	ldd	r26, Y+33	; 0x21
    1326:	ba a1       	ldd	r27, Y+34	; 0x22
    1328:	8d 92       	st	X+, r8
    132a:	9d 92       	st	X+, r9
    132c:	ad 92       	st	X+, r10
    132e:	bc 92       	st	X, r11
    1330:	13 97       	sbiw	r26, 0x03	; 3
    1332:	bb e4       	ldi	r27, 0x4B	; 75
    1334:	cb 0e       	add	r12, r27
    1336:	d1 1c       	adc	r13, r1
    1338:	e1 1c       	adc	r14, r1
    133a:	f1 1c       	adc	r15, r1
    133c:	eb a1       	ldd	r30, Y+35	; 0x23
    133e:	fc a1       	ldd	r31, Y+36	; 0x24
    1340:	c0 82       	st	Z, r12
    1342:	d1 82       	std	Z+1, r13	; 0x01
    1344:	e2 82       	std	Z+2, r14	; 0x02
    1346:	f3 82       	std	Z+3, r15	; 0x03
    1348:	dc 01       	movw	r26, r24
    134a:	cb 01       	movw	r24, r22
    134c:	03 96       	adiw	r24, 0x03	; 3
    134e:	a1 1d       	adc	r26, r1
    1350:	b1 1d       	adc	r27, r1
    1352:	ed a1       	ldd	r30, Y+37	; 0x25
    1354:	fe a1       	ldd	r31, Y+38	; 0x26
    1356:	80 83       	st	Z, r24
    1358:	91 83       	std	Z+1, r25	; 0x01
    135a:	a2 83       	std	Z+2, r26	; 0x02
    135c:	b3 83       	std	Z+3, r27	; 0x03
    135e:	5b c0       	rjmp	.+182    	; 0x1416 <CalcCurvedPath+0x584>
    1360:	8f a0       	ldd	r8, Y+39	; 0x27
    1362:	98 a4       	ldd	r9, Y+40	; 0x28
    1364:	a9 a4       	ldd	r10, Y+41	; 0x29
    1366:	ba a4       	ldd	r11, Y+42	; 0x2a
    1368:	f3 ec       	ldi	r31, 0xC3	; 195
    136a:	8f 0e       	add	r8, r31
    136c:	91 1c       	adc	r9, r1
    136e:	a1 1c       	adc	r10, r1
    1370:	b1 1c       	adc	r11, r1
    1372:	a9 a1       	ldd	r26, Y+33	; 0x21
    1374:	ba a1       	ldd	r27, Y+34	; 0x22
    1376:	8d 92       	st	X+, r8
    1378:	9d 92       	st	X+, r9
    137a:	ad 92       	st	X+, r10
    137c:	bc 92       	st	X, r11
    137e:	13 97       	sbiw	r26, 0x03	; 3
    1380:	21 ee       	ldi	r18, 0xE1	; 225
    1382:	30 e0       	ldi	r19, 0x00	; 0
    1384:	40 e0       	ldi	r20, 0x00	; 0
    1386:	50 e0       	ldi	r21, 0x00	; 0
    1388:	2c 19       	sub	r18, r12
    138a:	3d 09       	sbc	r19, r13
    138c:	4e 09       	sbc	r20, r14
    138e:	5f 09       	sbc	r21, r15
    1390:	ab a1       	ldd	r26, Y+35	; 0x23
    1392:	bc a1       	ldd	r27, Y+36	; 0x24
    1394:	2d 93       	st	X+, r18
    1396:	3d 93       	st	X+, r19
    1398:	4d 93       	st	X+, r20
    139a:	5c 93       	st	X, r21
    139c:	13 97       	sbiw	r26, 0x03	; 3
    139e:	2c e2       	ldi	r18, 0x2C	; 44
    13a0:	31 e0       	ldi	r19, 0x01	; 1
    13a2:	40 e0       	ldi	r20, 0x00	; 0
    13a4:	50 e0       	ldi	r21, 0x00	; 0
    13a6:	26 1b       	sub	r18, r22
    13a8:	37 0b       	sbc	r19, r23
    13aa:	48 0b       	sbc	r20, r24
    13ac:	59 0b       	sbc	r21, r25
    13ae:	ed a1       	ldd	r30, Y+37	; 0x25
    13b0:	fe a1       	ldd	r31, Y+38	; 0x26
    13b2:	20 83       	st	Z, r18
    13b4:	31 83       	std	Z+1, r19	; 0x01
    13b6:	42 83       	std	Z+2, r20	; 0x02
    13b8:	53 83       	std	Z+3, r21	; 0x03
    13ba:	2d c0       	rjmp	.+90     	; 0x1416 <CalcCurvedPath+0x584>
    13bc:	8f a0       	ldd	r8, Y+39	; 0x27
    13be:	98 a4       	ldd	r9, Y+40	; 0x28
    13c0:	a9 a4       	ldd	r10, Y+41	; 0x29
    13c2:	ba a4       	ldd	r11, Y+42	; 0x2a
    13c4:	f9 e6       	ldi	r31, 0x69	; 105
    13c6:	8f 0e       	add	r8, r31
    13c8:	91 1c       	adc	r9, r1
    13ca:	a1 1c       	adc	r10, r1
    13cc:	b1 1c       	adc	r11, r1
    13ce:	a9 a1       	ldd	r26, Y+33	; 0x21
    13d0:	ba a1       	ldd	r27, Y+34	; 0x22
    13d2:	8d 92       	st	X+, r8
    13d4:	9d 92       	st	X+, r9
    13d6:	ad 92       	st	X+, r10
    13d8:	bc 92       	st	X, r11
    13da:	13 97       	sbiw	r26, 0x03	; 3
    13dc:	21 ee       	ldi	r18, 0xE1	; 225
    13de:	30 e0       	ldi	r19, 0x00	; 0
    13e0:	40 e0       	ldi	r20, 0x00	; 0
    13e2:	50 e0       	ldi	r21, 0x00	; 0
    13e4:	2c 19       	sub	r18, r12
    13e6:	3d 09       	sbc	r19, r13
    13e8:	4e 09       	sbc	r20, r14
    13ea:	5f 09       	sbc	r21, r15
    13ec:	ab a1       	ldd	r26, Y+35	; 0x23
    13ee:	bc a1       	ldd	r27, Y+36	; 0x24
    13f0:	2d 93       	st	X+, r18
    13f2:	3d 93       	st	X+, r19
    13f4:	4d 93       	st	X+, r20
    13f6:	5c 93       	st	X, r21
    13f8:	13 97       	sbiw	r26, 0x03	; 3
    13fa:	2c e2       	ldi	r18, 0x2C	; 44
    13fc:	31 e0       	ldi	r19, 0x01	; 1
    13fe:	40 e0       	ldi	r20, 0x00	; 0
    1400:	50 e0       	ldi	r21, 0x00	; 0
    1402:	26 1b       	sub	r18, r22
    1404:	37 0b       	sbc	r19, r23
    1406:	48 0b       	sbc	r20, r24
    1408:	59 0b       	sbc	r21, r25
    140a:	ed a1       	ldd	r30, Y+37	; 0x25
    140c:	fe a1       	ldd	r31, Y+38	; 0x26
    140e:	20 83       	st	Z, r18
    1410:	31 83       	std	Z+1, r19	; 0x01
    1412:	42 83       	std	Z+2, r20	; 0x02
    1414:	53 83       	std	Z+3, r21	; 0x03
    1416:	0f 5f       	subi	r16, 0xFF	; 255
    1418:	1f 4f       	sbci	r17, 0xFF	; 255
    141a:	29 a1       	ldd	r18, Y+33	; 0x21
    141c:	3a a1       	ldd	r19, Y+34	; 0x22
    141e:	2c 5f       	subi	r18, 0xFC	; 252
    1420:	3f 4f       	sbci	r19, 0xFF	; 255
    1422:	3a a3       	std	Y+34, r19	; 0x22
    1424:	29 a3       	std	Y+33, r18	; 0x21
    1426:	4b a1       	ldd	r20, Y+35	; 0x23
    1428:	5c a1       	ldd	r21, Y+36	; 0x24
    142a:	4c 5f       	subi	r20, 0xFC	; 252
    142c:	5f 4f       	sbci	r21, 0xFF	; 255
    142e:	5c a3       	std	Y+36, r21	; 0x24
    1430:	4b a3       	std	Y+35, r20	; 0x23
    1432:	8d a1       	ldd	r24, Y+37	; 0x25
    1434:	9e a1       	ldd	r25, Y+38	; 0x26
    1436:	04 96       	adiw	r24, 0x04	; 4
    1438:	9e a3       	std	Y+38, r25	; 0x26
    143a:	8d a3       	std	Y+37, r24	; 0x25
    143c:	ab a9       	ldd	r26, Y+51	; 0x33
    143e:	bc a9       	ldd	r27, Y+52	; 0x34
    1440:	0a 17       	cp	r16, r26
    1442:	1b 07       	cpc	r17, r27
    1444:	09 f0       	breq	.+2      	; 0x1448 <CalcCurvedPath+0x5b6>
    1446:	3f ce       	rjmp	.-898    	; 0x10c6 <CalcCurvedPath+0x234>
    1448:	c9 84       	ldd	r12, Y+9	; 0x09
    144a:	da 84       	ldd	r13, Y+10	; 0x0a
    144c:	eb 84       	ldd	r14, Y+11	; 0x0b
    144e:	fc 84       	ldd	r15, Y+12	; 0x0c
    1450:	8d 84       	ldd	r8, Y+13	; 0x0d
    1452:	9e 84       	ldd	r9, Y+14	; 0x0e
    1454:	af 84       	ldd	r10, Y+15	; 0x0f
    1456:	b8 88       	ldd	r11, Y+16	; 0x10
    1458:	49 88       	ldd	r4, Y+17	; 0x11
    145a:	5a 88       	ldd	r5, Y+18	; 0x12
    145c:	6b 88       	ldd	r6, Y+19	; 0x13
    145e:	7c 88       	ldd	r7, Y+20	; 0x14
    1460:	ed a9       	ldd	r30, Y+53	; 0x35
    1462:	fe a9       	ldd	r31, Y+54	; 0x36
    1464:	2b a9       	ldd	r18, Y+51	; 0x33
    1466:	3c a9       	ldd	r19, Y+52	; 0x34
    1468:	2e 17       	cp	r18, r30
    146a:	3f 07       	cpc	r19, r31
    146c:	0c f0       	brlt	.+2      	; 0x1470 <CalcCurvedPath+0x5de>
    146e:	0f c2       	rjmp	.+1054   	; 0x188e <CalcCurvedPath+0x9fc>
    1470:	24 e1       	ldi	r18, 0x14	; 20
    1472:	21 96       	adiw	r28, 0x01	; 1
    1474:	4e ad       	ldd	r20, Y+62	; 0x3e
    1476:	5f ad       	ldd	r21, Y+63	; 0x3f
    1478:	21 97       	sbiw	r28, 0x01	; 1
    147a:	24 9f       	mul	r18, r20
    147c:	80 01       	movw	r16, r0
    147e:	25 9f       	mul	r18, r21
    1480:	10 0d       	add	r17, r0
    1482:	11 24       	eor	r1, r1
    1484:	8b a9       	ldd	r24, Y+51	; 0x33
    1486:	9c a9       	ldd	r25, Y+52	; 0x34
    1488:	08 0f       	add	r16, r24
    148a:	19 1f       	adc	r17, r25
    148c:	00 0f       	add	r16, r16
    148e:	11 1f       	adc	r17, r17
    1490:	00 0f       	add	r16, r16
    1492:	11 1f       	adc	r17, r17
    1494:	0e 5d       	subi	r16, 0xDE	; 222
    1496:	1e 4f       	sbci	r17, 0xFE	; 254
    1498:	23 96       	adiw	r28, 0x03	; 3
    149a:	ae ad       	ldd	r26, Y+62	; 0x3e
    149c:	bf ad       	ldd	r27, Y+63	; 0x3f
    149e:	23 97       	sbiw	r28, 0x03	; 3
    14a0:	2a 9f       	mul	r18, r26
    14a2:	c0 01       	movw	r24, r0
    14a4:	2b 9f       	mul	r18, r27
    14a6:	90 0d       	add	r25, r0
    14a8:	11 24       	eor	r1, r1
    14aa:	eb a9       	ldd	r30, Y+51	; 0x33
    14ac:	fc a9       	ldd	r31, Y+52	; 0x34
    14ae:	8e 0f       	add	r24, r30
    14b0:	9f 1f       	adc	r25, r31
    14b2:	88 0f       	add	r24, r24
    14b4:	99 1f       	adc	r25, r25
    14b6:	88 0f       	add	r24, r24
    14b8:	99 1f       	adc	r25, r25
    14ba:	ac 01       	movw	r20, r24
    14bc:	4e 5d       	subi	r20, 0xDE	; 222
    14be:	5e 4f       	sbci	r21, 0xFE	; 254
    14c0:	5a a3       	std	Y+34, r21	; 0x22
    14c2:	49 a3       	std	Y+33, r20	; 0x21
    14c4:	25 96       	adiw	r28, 0x05	; 5
    14c6:	ae ad       	ldd	r26, Y+62	; 0x3e
    14c8:	bf ad       	ldd	r27, Y+63	; 0x3f
    14ca:	25 97       	sbiw	r28, 0x05	; 5
    14cc:	2a 9f       	mul	r18, r26
    14ce:	c0 01       	movw	r24, r0
    14d0:	2b 9f       	mul	r18, r27
    14d2:	90 0d       	add	r25, r0
    14d4:	11 24       	eor	r1, r1
    14d6:	8e 0f       	add	r24, r30
    14d8:	9f 1f       	adc	r25, r31
    14da:	88 0f       	add	r24, r24
    14dc:	99 1f       	adc	r25, r25
    14de:	88 0f       	add	r24, r24
    14e0:	99 1f       	adc	r25, r25
    14e2:	fc 01       	movw	r30, r24
    14e4:	ee 5d       	subi	r30, 0xDE	; 222
    14e6:	fe 4f       	sbci	r31, 0xFE	; 254
    14e8:	fc a3       	std	Y+36, r31	; 0x24
    14ea:	eb a3       	std	Y+35, r30	; 0x23
    14ec:	1e a3       	std	Y+38, r17	; 0x26
    14ee:	0d a3       	std	Y+37, r16	; 0x25
    14f0:	0b a9       	ldd	r16, Y+51	; 0x33
    14f2:	1c a9       	ldd	r17, Y+52	; 0x34
    14f4:	c9 86       	std	Y+9, r12	; 0x09
    14f6:	da 86       	std	Y+10, r13	; 0x0a
    14f8:	eb 86       	std	Y+11, r14	; 0x0b
    14fa:	fc 86       	std	Y+12, r15	; 0x0c
    14fc:	8d 86       	std	Y+13, r8	; 0x0d
    14fe:	9e 86       	std	Y+14, r9	; 0x0e
    1500:	af 86       	std	Y+15, r10	; 0x0f
    1502:	b8 8a       	std	Y+16, r11	; 0x10
    1504:	49 8a       	std	Y+17, r4	; 0x11
    1506:	5a 8a       	std	Y+18, r5	; 0x12
    1508:	6b 8a       	std	Y+19, r6	; 0x13
    150a:	7c 8a       	std	Y+20, r7	; 0x14
    150c:	2b a5       	ldd	r18, Y+43	; 0x2b
    150e:	3c a5       	ldd	r19, Y+44	; 0x2c
    1510:	4d a5       	ldd	r20, Y+45	; 0x2d
    1512:	5e a5       	ldd	r21, Y+46	; 0x2e
    1514:	69 85       	ldd	r22, Y+9	; 0x09
    1516:	7a 85       	ldd	r23, Y+10	; 0x0a
    1518:	8b 85       	ldd	r24, Y+11	; 0x0b
    151a:	9c 85       	ldd	r25, Y+12	; 0x0c
    151c:	f3 d2       	rcall	.+1510   	; 0x1b04 <__addsf3>
    151e:	69 87       	std	Y+9, r22	; 0x09
    1520:	7a 87       	std	Y+10, r23	; 0x0a
    1522:	8b 87       	std	Y+11, r24	; 0x0b
    1524:	9c 87       	std	Y+12, r25	; 0x0c
    1526:	2f a5       	ldd	r18, Y+47	; 0x2f
    1528:	38 a9       	ldd	r19, Y+48	; 0x30
    152a:	49 a9       	ldd	r20, Y+49	; 0x31
    152c:	5a a9       	ldd	r21, Y+50	; 0x32
    152e:	6d 85       	ldd	r22, Y+13	; 0x0d
    1530:	7e 85       	ldd	r23, Y+14	; 0x0e
    1532:	8f 85       	ldd	r24, Y+15	; 0x0f
    1534:	98 89       	ldd	r25, Y+16	; 0x10
    1536:	e6 d2       	rcall	.+1484   	; 0x1b04 <__addsf3>
    1538:	6d 87       	std	Y+13, r22	; 0x0d
    153a:	7e 87       	std	Y+14, r23	; 0x0e
    153c:	8f 87       	std	Y+15, r24	; 0x0f
    153e:	98 8b       	std	Y+16, r25	; 0x10
    1540:	2b ad       	ldd	r18, Y+59	; 0x3b
    1542:	3c ad       	ldd	r19, Y+60	; 0x3c
    1544:	4d ad       	ldd	r20, Y+61	; 0x3d
    1546:	5e ad       	ldd	r21, Y+62	; 0x3e
    1548:	69 89       	ldd	r22, Y+17	; 0x11
    154a:	7a 89       	ldd	r23, Y+18	; 0x12
    154c:	8b 89       	ldd	r24, Y+19	; 0x13
    154e:	9c 89       	ldd	r25, Y+20	; 0x14
    1550:	d9 d2       	rcall	.+1458   	; 0x1b04 <__addsf3>
    1552:	69 8b       	std	Y+17, r22	; 0x11
    1554:	7a 8b       	std	Y+18, r23	; 0x12
    1556:	8b 8b       	std	Y+19, r24	; 0x13
    1558:	9c 8b       	std	Y+20, r25	; 0x14
    155a:	2d 85       	ldd	r18, Y+13	; 0x0d
    155c:	3e 85       	ldd	r19, Y+14	; 0x0e
    155e:	4f 85       	ldd	r20, Y+15	; 0x0f
    1560:	58 89       	ldd	r21, Y+16	; 0x10
    1562:	69 85       	ldd	r22, Y+9	; 0x09
    1564:	7a 85       	ldd	r23, Y+10	; 0x0a
    1566:	8b 85       	ldd	r24, Y+11	; 0x0b
    1568:	9c 85       	ldd	r25, Y+12	; 0x0c
    156a:	3f d3       	rcall	.+1662   	; 0x1bea <atan2>
    156c:	20 e0       	ldi	r18, 0x00	; 0
    156e:	30 e0       	ldi	r19, 0x00	; 0
    1570:	44 e3       	ldi	r20, 0x34	; 52
    1572:	53 e4       	ldi	r21, 0x43	; 67
    1574:	fb d4       	rcall	.+2550   	; 0x1f6c <__mulsf3>
    1576:	28 ed       	ldi	r18, 0xD8	; 216
    1578:	3f e0       	ldi	r19, 0x0F	; 15
    157a:	49 e4       	ldi	r20, 0x49	; 73
    157c:	50 e4       	ldi	r21, 0x40	; 64
    157e:	88 d3       	rcall	.+1808   	; 0x1c90 <__divsf3>
    1580:	ef d3       	rcall	.+2014   	; 0x1d60 <__fixsfsi>
    1582:	6f a3       	std	Y+39, r22	; 0x27
    1584:	78 a7       	std	Y+40, r23	; 0x28
    1586:	89 a7       	std	Y+41, r24	; 0x29
    1588:	9a a7       	std	Y+42, r25	; 0x2a
    158a:	29 89       	ldd	r18, Y+17	; 0x11
    158c:	3a 89       	ldd	r19, Y+18	; 0x12
    158e:	4b 89       	ldd	r20, Y+19	; 0x13
    1590:	5c 89       	ldd	r21, Y+20	; 0x14
    1592:	ca 01       	movw	r24, r20
    1594:	b9 01       	movw	r22, r18
    1596:	ea d4       	rcall	.+2516   	; 0x1f6c <__mulsf3>
    1598:	6d 8b       	std	Y+21, r22	; 0x15
    159a:	7e 8b       	std	Y+22, r23	; 0x16
    159c:	8f 8b       	std	Y+23, r24	; 0x17
    159e:	98 8f       	std	Y+24, r25	; 0x18
    15a0:	29 85       	ldd	r18, Y+9	; 0x09
    15a2:	3a 85       	ldd	r19, Y+10	; 0x0a
    15a4:	4b 85       	ldd	r20, Y+11	; 0x0b
    15a6:	5c 85       	ldd	r21, Y+12	; 0x0c
    15a8:	ca 01       	movw	r24, r20
    15aa:	b9 01       	movw	r22, r18
    15ac:	df d4       	rcall	.+2494   	; 0x1f6c <__mulsf3>
    15ae:	6b 01       	movw	r12, r22
    15b0:	7c 01       	movw	r14, r24
    15b2:	2d 85       	ldd	r18, Y+13	; 0x0d
    15b4:	3e 85       	ldd	r19, Y+14	; 0x0e
    15b6:	4f 85       	ldd	r20, Y+15	; 0x0f
    15b8:	58 89       	ldd	r21, Y+16	; 0x10
    15ba:	ca 01       	movw	r24, r20
    15bc:	b9 01       	movw	r22, r18
    15be:	d6 d4       	rcall	.+2476   	; 0x1f6c <__mulsf3>
    15c0:	9b 01       	movw	r18, r22
    15c2:	ac 01       	movw	r20, r24
    15c4:	c7 01       	movw	r24, r14
    15c6:	b6 01       	movw	r22, r12
    15c8:	9d d2       	rcall	.+1338   	; 0x1b04 <__addsf3>
    15ca:	69 8f       	std	Y+25, r22	; 0x19
    15cc:	7a 8f       	std	Y+26, r23	; 0x1a
    15ce:	8b 8f       	std	Y+27, r24	; 0x1b
    15d0:	9c 8f       	std	Y+28, r25	; 0x1c
    15d2:	33 d5       	rcall	.+2662   	; 0x203a <sqrt>
    15d4:	20 e0       	ldi	r18, 0x00	; 0
    15d6:	30 e0       	ldi	r19, 0x00	; 0
    15d8:	48 e4       	ldi	r20, 0x48	; 72
    15da:	52 e4       	ldi	r21, 0x42	; 66
    15dc:	92 d2       	rcall	.+1316   	; 0x1b02 <__subsf3>
    15de:	6b 01       	movw	r12, r22
    15e0:	7c 01       	movw	r14, r24
    15e2:	9b 01       	movw	r18, r22
    15e4:	ac 01       	movw	r20, r24
    15e6:	c2 d4       	rcall	.+2436   	; 0x1f6c <__mulsf3>
    15e8:	6d 8f       	std	Y+29, r22	; 0x1d
    15ea:	7e 8f       	std	Y+30, r23	; 0x1e
    15ec:	8f 8f       	std	Y+31, r24	; 0x1f
    15ee:	98 a3       	std	Y+32, r25	; 0x20
    15f0:	9b 01       	movw	r18, r22
    15f2:	ac 01       	movw	r20, r24
    15f4:	6d 89       	ldd	r22, Y+21	; 0x15
    15f6:	7e 89       	ldd	r23, Y+22	; 0x16
    15f8:	8f 89       	ldd	r24, Y+23	; 0x17
    15fa:	98 8d       	ldd	r25, Y+24	; 0x18
    15fc:	83 d2       	rcall	.+1286   	; 0x1b04 <__addsf3>
    15fe:	4b 01       	movw	r8, r22
    1600:	5c 01       	movw	r10, r24
    1602:	1b d5       	rcall	.+2614   	; 0x203a <sqrt>
    1604:	9b 01       	movw	r18, r22
    1606:	ac 01       	movw	r20, r24
    1608:	69 89       	ldd	r22, Y+17	; 0x11
    160a:	7a 89       	ldd	r23, Y+18	; 0x12
    160c:	8b 89       	ldd	r24, Y+19	; 0x13
    160e:	9c 89       	ldd	r25, Y+20	; 0x14
    1610:	90 58       	subi	r25, 0x80	; 128
    1612:	3e d3       	rcall	.+1660   	; 0x1c90 <__divsf3>
    1614:	68 d2       	rcall	.+1232   	; 0x1ae6 <acos>
    1616:	2b 01       	movw	r4, r22
    1618:	3c 01       	movw	r6, r24
    161a:	20 e0       	ldi	r18, 0x00	; 0
    161c:	30 e0       	ldi	r19, 0x00	; 0
    161e:	48 e4       	ldi	r20, 0x48	; 72
    1620:	52 e4       	ldi	r21, 0x42	; 66
    1622:	69 8d       	ldd	r22, Y+25	; 0x19
    1624:	7a 8d       	ldd	r23, Y+26	; 0x1a
    1626:	8b 8d       	ldd	r24, Y+27	; 0x1b
    1628:	9c 8d       	ldd	r25, Y+28	; 0x1c
    162a:	6b d2       	rcall	.+1238   	; 0x1b02 <__subsf3>
    162c:	06 d5       	rcall	.+2572   	; 0x203a <sqrt>
    162e:	9b 01       	movw	r18, r22
    1630:	ac 01       	movw	r20, r24
    1632:	c7 01       	movw	r24, r14
    1634:	b6 01       	movw	r22, r12
    1636:	9a d4       	rcall	.+2356   	; 0x1f6c <__mulsf3>
    1638:	9b 01       	movw	r18, r22
    163a:	ac 01       	movw	r20, r24
    163c:	6d 89       	ldd	r22, Y+21	; 0x15
    163e:	7e 89       	ldd	r23, Y+22	; 0x16
    1640:	8f 89       	ldd	r24, Y+23	; 0x17
    1642:	98 8d       	ldd	r25, Y+24	; 0x18
    1644:	5f d2       	rcall	.+1214   	; 0x1b04 <__addsf3>
    1646:	f9 d4       	rcall	.+2546   	; 0x203a <sqrt>
    1648:	6b 01       	movw	r12, r22
    164a:	7c 01       	movw	r14, r24
    164c:	20 e0       	ldi	r18, 0x00	; 0
    164e:	38 e4       	ldi	r19, 0x48	; 72
    1650:	4c e8       	ldi	r20, 0x8C	; 140
    1652:	55 e4       	ldi	r21, 0x45	; 69
    1654:	c5 01       	movw	r24, r10
    1656:	b4 01       	movw	r22, r8
    1658:	55 d2       	rcall	.+1194   	; 0x1b04 <__addsf3>
    165a:	20 e0       	ldi	r18, 0x00	; 0
    165c:	38 e0       	ldi	r19, 0x08	; 8
    165e:	44 e8       	ldi	r20, 0x84	; 132
    1660:	56 e4       	ldi	r21, 0x46	; 70
    1662:	4f d2       	rcall	.+1182   	; 0x1b02 <__subsf3>
    1664:	4b 01       	movw	r8, r22
    1666:	5c 01       	movw	r10, r24
    1668:	a7 01       	movw	r20, r14
    166a:	96 01       	movw	r18, r12
    166c:	c7 01       	movw	r24, r14
    166e:	b6 01       	movw	r22, r12
    1670:	49 d2       	rcall	.+1170   	; 0x1b04 <__addsf3>
    1672:	20 e0       	ldi	r18, 0x00	; 0
    1674:	30 e0       	ldi	r19, 0x00	; 0
    1676:	46 e8       	ldi	r20, 0x86	; 134
    1678:	52 e4       	ldi	r21, 0x42	; 66
    167a:	78 d4       	rcall	.+2288   	; 0x1f6c <__mulsf3>
    167c:	9b 01       	movw	r18, r22
    167e:	ac 01       	movw	r20, r24
    1680:	c5 01       	movw	r24, r10
    1682:	b4 01       	movw	r22, r8
    1684:	05 d3       	rcall	.+1546   	; 0x1c90 <__divsf3>
    1686:	2f d2       	rcall	.+1118   	; 0x1ae6 <acos>
    1688:	9b 01       	movw	r18, r22
    168a:	ac 01       	movw	r20, r24
    168c:	c3 01       	movw	r24, r6
    168e:	b2 01       	movw	r22, r4
    1690:	39 d2       	rcall	.+1138   	; 0x1b04 <__addsf3>
    1692:	24 ee       	ldi	r18, 0xE4	; 228
    1694:	3e e2       	ldi	r19, 0x2E	; 46
    1696:	45 e6       	ldi	r20, 0x65	; 101
    1698:	52 e4       	ldi	r21, 0x42	; 66
    169a:	68 d4       	rcall	.+2256   	; 0x1f6c <__mulsf3>
    169c:	61 d3       	rcall	.+1730   	; 0x1d60 <__fixsfsi>
    169e:	6b 01       	movw	r12, r22
    16a0:	7c 01       	movw	r14, r24
    16a2:	2d 89       	ldd	r18, Y+21	; 0x15
    16a4:	3e 89       	ldd	r19, Y+22	; 0x16
    16a6:	4f 89       	ldd	r20, Y+23	; 0x17
    16a8:	58 8d       	ldd	r21, Y+24	; 0x18
    16aa:	60 e0       	ldi	r22, 0x00	; 0
    16ac:	7a e1       	ldi	r23, 0x1A	; 26
    16ae:	87 ea       	ldi	r24, 0xA7	; 167
    16b0:	96 e4       	ldi	r25, 0x46	; 70
    16b2:	27 d2       	rcall	.+1102   	; 0x1b02 <__subsf3>
    16b4:	2d 8d       	ldd	r18, Y+29	; 0x1d
    16b6:	3e 8d       	ldd	r19, Y+30	; 0x1e
    16b8:	4f 8d       	ldd	r20, Y+31	; 0x1f
    16ba:	58 a1       	ldd	r21, Y+32	; 0x20
    16bc:	22 d2       	rcall	.+1092   	; 0x1b02 <__subsf3>
    16be:	20 e0       	ldi	r18, 0x00	; 0
    16c0:	38 e1       	ldi	r19, 0x18	; 24
    16c2:	48 e8       	ldi	r20, 0x88	; 136
    16c4:	56 e4       	ldi	r21, 0x46	; 70
    16c6:	e4 d2       	rcall	.+1480   	; 0x1c90 <__divsf3>
    16c8:	0e d2       	rcall	.+1052   	; 0x1ae6 <acos>
    16ca:	20 e0       	ldi	r18, 0x00	; 0
    16cc:	30 e0       	ldi	r19, 0x00	; 0
    16ce:	44 e3       	ldi	r20, 0x34	; 52
    16d0:	53 e4       	ldi	r21, 0x43	; 67
    16d2:	4c d4       	rcall	.+2200   	; 0x1f6c <__mulsf3>
    16d4:	28 ed       	ldi	r18, 0xD8	; 216
    16d6:	3f e0       	ldi	r19, 0x0F	; 15
    16d8:	49 e4       	ldi	r20, 0x49	; 73
    16da:	50 e4       	ldi	r21, 0x40	; 64
    16dc:	d9 d2       	rcall	.+1458   	; 0x1c90 <__divsf3>
    16de:	40 d3       	rcall	.+1664   	; 0x1d60 <__fixsfsi>
    16e0:	f2 e0       	ldi	r31, 0x02	; 2
    16e2:	2f 16       	cp	r2, r31
    16e4:	31 04       	cpc	r3, r1
    16e6:	c1 f1       	breq	.+112    	; 0x1758 <CalcCurvedPath+0x8c6>
    16e8:	2c f4       	brge	.+10     	; 0x16f4 <CalcCurvedPath+0x862>
    16ea:	31 e0       	ldi	r19, 0x01	; 1
    16ec:	23 16       	cp	r2, r19
    16ee:	31 04       	cpc	r3, r1
    16f0:	61 f0       	breq	.+24     	; 0x170a <CalcCurvedPath+0x878>
    16f2:	b4 c0       	rjmp	.+360    	; 0x185c <CalcCurvedPath+0x9ca>
    16f4:	43 e0       	ldi	r20, 0x03	; 3
    16f6:	24 16       	cp	r2, r20
    16f8:	31 04       	cpc	r3, r1
    16fa:	09 f4       	brne	.+2      	; 0x16fe <CalcCurvedPath+0x86c>
    16fc:	54 c0       	rjmp	.+168    	; 0x17a6 <CalcCurvedPath+0x914>
    16fe:	54 e0       	ldi	r21, 0x04	; 4
    1700:	25 16       	cp	r2, r21
    1702:	31 04       	cpc	r3, r1
    1704:	09 f4       	brne	.+2      	; 0x1708 <CalcCurvedPath+0x876>
    1706:	7d c0       	rjmp	.+250    	; 0x1802 <CalcCurvedPath+0x970>
    1708:	a9 c0       	rjmp	.+338    	; 0x185c <CalcCurvedPath+0x9ca>
    170a:	8f a0       	ldd	r8, Y+39	; 0x27
    170c:	98 a4       	ldd	r9, Y+40	; 0x28
    170e:	a9 a4       	ldd	r10, Y+41	; 0x29
    1710:	ba a4       	ldd	r11, Y+42	; 0x2a
    1712:	a9 e6       	ldi	r26, 0x69	; 105
    1714:	8a 0e       	add	r8, r26
    1716:	91 1c       	adc	r9, r1
    1718:	a1 1c       	adc	r10, r1
    171a:	b1 1c       	adc	r11, r1
    171c:	ed a1       	ldd	r30, Y+37	; 0x25
    171e:	fe a1       	ldd	r31, Y+38	; 0x26
    1720:	80 82       	st	Z, r8
    1722:	91 82       	std	Z+1, r9	; 0x01
    1724:	a2 82       	std	Z+2, r10	; 0x02
    1726:	b3 82       	std	Z+3, r11	; 0x03
    1728:	fb e4       	ldi	r31, 0x4B	; 75
    172a:	cf 0e       	add	r12, r31
    172c:	d1 1c       	adc	r13, r1
    172e:	e1 1c       	adc	r14, r1
    1730:	f1 1c       	adc	r15, r1
    1732:	a9 a1       	ldd	r26, Y+33	; 0x21
    1734:	ba a1       	ldd	r27, Y+34	; 0x22
    1736:	cd 92       	st	X+, r12
    1738:	dd 92       	st	X+, r13
    173a:	ed 92       	st	X+, r14
    173c:	fc 92       	st	X, r15
    173e:	13 97       	sbiw	r26, 0x03	; 3
    1740:	dc 01       	movw	r26, r24
    1742:	cb 01       	movw	r24, r22
    1744:	01 96       	adiw	r24, 0x01	; 1
    1746:	a1 1d       	adc	r26, r1
    1748:	b1 1d       	adc	r27, r1
    174a:	eb a1       	ldd	r30, Y+35	; 0x23
    174c:	fc a1       	ldd	r31, Y+36	; 0x24
    174e:	80 83       	st	Z, r24
    1750:	91 83       	std	Z+1, r25	; 0x01
    1752:	a2 83       	std	Z+2, r26	; 0x02
    1754:	b3 83       	std	Z+3, r27	; 0x03
    1756:	82 c0       	rjmp	.+260    	; 0x185c <CalcCurvedPath+0x9ca>
    1758:	8f a0       	ldd	r8, Y+39	; 0x27
    175a:	98 a4       	ldd	r9, Y+40	; 0x28
    175c:	a9 a4       	ldd	r10, Y+41	; 0x29
    175e:	ba a4       	ldd	r11, Y+42	; 0x2a
    1760:	f1 ec       	ldi	r31, 0xC1	; 193
    1762:	8f 0e       	add	r8, r31
    1764:	91 1c       	adc	r9, r1
    1766:	a1 1c       	adc	r10, r1
    1768:	b1 1c       	adc	r11, r1
    176a:	ad a1       	ldd	r26, Y+37	; 0x25
    176c:	be a1       	ldd	r27, Y+38	; 0x26
    176e:	8d 92       	st	X+, r8
    1770:	9d 92       	st	X+, r9
    1772:	ad 92       	st	X+, r10
    1774:	bc 92       	st	X, r11
    1776:	13 97       	sbiw	r26, 0x03	; 3
    1778:	bb e4       	ldi	r27, 0x4B	; 75
    177a:	cb 0e       	add	r12, r27
    177c:	d1 1c       	adc	r13, r1
    177e:	e1 1c       	adc	r14, r1
    1780:	f1 1c       	adc	r15, r1
    1782:	e9 a1       	ldd	r30, Y+33	; 0x21
    1784:	fa a1       	ldd	r31, Y+34	; 0x22
    1786:	c0 82       	st	Z, r12
    1788:	d1 82       	std	Z+1, r13	; 0x01
    178a:	e2 82       	std	Z+2, r14	; 0x02
    178c:	f3 82       	std	Z+3, r15	; 0x03
    178e:	dc 01       	movw	r26, r24
    1790:	cb 01       	movw	r24, r22
    1792:	03 96       	adiw	r24, 0x03	; 3
    1794:	a1 1d       	adc	r26, r1
    1796:	b1 1d       	adc	r27, r1
    1798:	eb a1       	ldd	r30, Y+35	; 0x23
    179a:	fc a1       	ldd	r31, Y+36	; 0x24
    179c:	80 83       	st	Z, r24
    179e:	91 83       	std	Z+1, r25	; 0x01
    17a0:	a2 83       	std	Z+2, r26	; 0x02
    17a2:	b3 83       	std	Z+3, r27	; 0x03
    17a4:	5b c0       	rjmp	.+182    	; 0x185c <CalcCurvedPath+0x9ca>
    17a6:	8f a0       	ldd	r8, Y+39	; 0x27
    17a8:	98 a4       	ldd	r9, Y+40	; 0x28
    17aa:	a9 a4       	ldd	r10, Y+41	; 0x29
    17ac:	ba a4       	ldd	r11, Y+42	; 0x2a
    17ae:	f3 ec       	ldi	r31, 0xC3	; 195
    17b0:	8f 0e       	add	r8, r31
    17b2:	91 1c       	adc	r9, r1
    17b4:	a1 1c       	adc	r10, r1
    17b6:	b1 1c       	adc	r11, r1
    17b8:	ad a1       	ldd	r26, Y+37	; 0x25
    17ba:	be a1       	ldd	r27, Y+38	; 0x26
    17bc:	8d 92       	st	X+, r8
    17be:	9d 92       	st	X+, r9
    17c0:	ad 92       	st	X+, r10
    17c2:	bc 92       	st	X, r11
    17c4:	13 97       	sbiw	r26, 0x03	; 3
    17c6:	21 ee       	ldi	r18, 0xE1	; 225
    17c8:	30 e0       	ldi	r19, 0x00	; 0
    17ca:	40 e0       	ldi	r20, 0x00	; 0
    17cc:	50 e0       	ldi	r21, 0x00	; 0
    17ce:	2c 19       	sub	r18, r12
    17d0:	3d 09       	sbc	r19, r13
    17d2:	4e 09       	sbc	r20, r14
    17d4:	5f 09       	sbc	r21, r15
    17d6:	a9 a1       	ldd	r26, Y+33	; 0x21
    17d8:	ba a1       	ldd	r27, Y+34	; 0x22
    17da:	2d 93       	st	X+, r18
    17dc:	3d 93       	st	X+, r19
    17de:	4d 93       	st	X+, r20
    17e0:	5c 93       	st	X, r21
    17e2:	13 97       	sbiw	r26, 0x03	; 3
    17e4:	2c e2       	ldi	r18, 0x2C	; 44
    17e6:	31 e0       	ldi	r19, 0x01	; 1
    17e8:	40 e0       	ldi	r20, 0x00	; 0
    17ea:	50 e0       	ldi	r21, 0x00	; 0
    17ec:	26 1b       	sub	r18, r22
    17ee:	37 0b       	sbc	r19, r23
    17f0:	48 0b       	sbc	r20, r24
    17f2:	59 0b       	sbc	r21, r25
    17f4:	eb a1       	ldd	r30, Y+35	; 0x23
    17f6:	fc a1       	ldd	r31, Y+36	; 0x24
    17f8:	20 83       	st	Z, r18
    17fa:	31 83       	std	Z+1, r19	; 0x01
    17fc:	42 83       	std	Z+2, r20	; 0x02
    17fe:	53 83       	std	Z+3, r21	; 0x03
    1800:	2d c0       	rjmp	.+90     	; 0x185c <CalcCurvedPath+0x9ca>
    1802:	8f a0       	ldd	r8, Y+39	; 0x27
    1804:	98 a4       	ldd	r9, Y+40	; 0x28
    1806:	a9 a4       	ldd	r10, Y+41	; 0x29
    1808:	ba a4       	ldd	r11, Y+42	; 0x2a
    180a:	f9 e6       	ldi	r31, 0x69	; 105
    180c:	8f 0e       	add	r8, r31
    180e:	91 1c       	adc	r9, r1
    1810:	a1 1c       	adc	r10, r1
    1812:	b1 1c       	adc	r11, r1
    1814:	ad a1       	ldd	r26, Y+37	; 0x25
    1816:	be a1       	ldd	r27, Y+38	; 0x26
    1818:	8d 92       	st	X+, r8
    181a:	9d 92       	st	X+, r9
    181c:	ad 92       	st	X+, r10
    181e:	bc 92       	st	X, r11
    1820:	13 97       	sbiw	r26, 0x03	; 3
    1822:	21 ee       	ldi	r18, 0xE1	; 225
    1824:	30 e0       	ldi	r19, 0x00	; 0
    1826:	40 e0       	ldi	r20, 0x00	; 0
    1828:	50 e0       	ldi	r21, 0x00	; 0
    182a:	2c 19       	sub	r18, r12
    182c:	3d 09       	sbc	r19, r13
    182e:	4e 09       	sbc	r20, r14
    1830:	5f 09       	sbc	r21, r15
    1832:	a9 a1       	ldd	r26, Y+33	; 0x21
    1834:	ba a1       	ldd	r27, Y+34	; 0x22
    1836:	2d 93       	st	X+, r18
    1838:	3d 93       	st	X+, r19
    183a:	4d 93       	st	X+, r20
    183c:	5c 93       	st	X, r21
    183e:	13 97       	sbiw	r26, 0x03	; 3
    1840:	2c e2       	ldi	r18, 0x2C	; 44
    1842:	31 e0       	ldi	r19, 0x01	; 1
    1844:	40 e0       	ldi	r20, 0x00	; 0
    1846:	50 e0       	ldi	r21, 0x00	; 0
    1848:	26 1b       	sub	r18, r22
    184a:	37 0b       	sbc	r19, r23
    184c:	48 0b       	sbc	r20, r24
    184e:	59 0b       	sbc	r21, r25
    1850:	eb a1       	ldd	r30, Y+35	; 0x23
    1852:	fc a1       	ldd	r31, Y+36	; 0x24
    1854:	20 83       	st	Z, r18
    1856:	31 83       	std	Z+1, r19	; 0x01
    1858:	42 83       	std	Z+2, r20	; 0x02
    185a:	53 83       	std	Z+3, r21	; 0x03
    185c:	0f 5f       	subi	r16, 0xFF	; 255
    185e:	1f 4f       	sbci	r17, 0xFF	; 255
    1860:	2d a1       	ldd	r18, Y+37	; 0x25
    1862:	3e a1       	ldd	r19, Y+38	; 0x26
    1864:	2c 5f       	subi	r18, 0xFC	; 252
    1866:	3f 4f       	sbci	r19, 0xFF	; 255
    1868:	3e a3       	std	Y+38, r19	; 0x26
    186a:	2d a3       	std	Y+37, r18	; 0x25
    186c:	49 a1       	ldd	r20, Y+33	; 0x21
    186e:	5a a1       	ldd	r21, Y+34	; 0x22
    1870:	4c 5f       	subi	r20, 0xFC	; 252
    1872:	5f 4f       	sbci	r21, 0xFF	; 255
    1874:	5a a3       	std	Y+34, r21	; 0x22
    1876:	49 a3       	std	Y+33, r20	; 0x21
    1878:	8b a1       	ldd	r24, Y+35	; 0x23
    187a:	9c a1       	ldd	r25, Y+36	; 0x24
    187c:	04 96       	adiw	r24, 0x04	; 4
    187e:	9c a3       	std	Y+36, r25	; 0x24
    1880:	8b a3       	std	Y+35, r24	; 0x23
    1882:	ad a9       	ldd	r26, Y+53	; 0x35
    1884:	be a9       	ldd	r27, Y+54	; 0x36
    1886:	0a 17       	cp	r16, r26
    1888:	1b 07       	cpc	r17, r27
    188a:	09 f0       	breq	.+2      	; 0x188e <CalcCurvedPath+0x9fc>
    188c:	3f ce       	rjmp	.-898    	; 0x150c <CalcCurvedPath+0x67a>
    188e:	cc 5b       	subi	r28, 0xBC	; 188
    1890:	df 4f       	sbci	r29, 0xFF	; 255
    1892:	0f b6       	in	r0, 0x3f	; 63
    1894:	f8 94       	cli
    1896:	de bf       	out	0x3e, r29	; 62
    1898:	0f be       	out	0x3f, r0	; 63
    189a:	cd bf       	out	0x3d, r28	; 61
    189c:	df 91       	pop	r29
    189e:	cf 91       	pop	r28
    18a0:	1f 91       	pop	r17
    18a2:	0f 91       	pop	r16
    18a4:	ff 90       	pop	r15
    18a6:	ef 90       	pop	r14
    18a8:	df 90       	pop	r13
    18aa:	cf 90       	pop	r12
    18ac:	bf 90       	pop	r11
    18ae:	af 90       	pop	r10
    18b0:	9f 90       	pop	r9
    18b2:	8f 90       	pop	r8
    18b4:	7f 90       	pop	r7
    18b6:	6f 90       	pop	r6
    18b8:	5f 90       	pop	r5
    18ba:	4f 90       	pop	r4
    18bc:	3f 90       	pop	r3
    18be:	2f 90       	pop	r2
    18c0:	08 95       	ret

000018c2 <main>:

int main(void)
{
	initUSART();
    18c2:	0e 94 a2 00 	call	0x144	; 0x144 <initUSART>
	cli();
    18c6:	f8 94       	cli
	EICRA = 0b1100; // Stigande flank p INT1 genererar avbrott
    18c8:	8c e0       	ldi	r24, 0x0C	; 12
    18ca:	80 93 69 00 	sts	0x0069, r24
	EIMSK = (EIMSK | 2); // Mjliggr externa avbrott p INT0, pinne 40  
    18ce:	e9 9a       	sbi	0x1d, 1	; 29
	DDRA = 0;
    18d0:	11 b8       	out	0x01, r1	; 1
	// MCUCR = (MCUCR | (1 << PUD)); Ngot som testades fr att se om det gjorde ngot
	//PORTA |= (1 << PORTA0);
	 // Mjliggr globala avbrott
	sei();
    18d2:	78 94       	sei
	MoveDynamixel(5,120 - 45 ,10);
	USARTReadStatusPacket();
	*/
    // timer0Init();
    
    MoveFrontRightLeg(120,120,-85,10);
    18d4:	0f 2e       	mov	r0, r31
    18d6:	fa e0       	ldi	r31, 0x0A	; 10
    18d8:	cf 2e       	mov	r12, r31
    18da:	d1 2c       	mov	r13, r1
    18dc:	f0 2d       	mov	r31, r0
    18de:	e1 2c       	mov	r14, r1
    18e0:	f1 2c       	mov	r15, r1
    18e2:	0a ea       	ldi	r16, 0xAA	; 170
    18e4:	12 ec       	ldi	r17, 0xC2	; 194
    18e6:	20 e0       	ldi	r18, 0x00	; 0
    18e8:	30 e0       	ldi	r19, 0x00	; 0
    18ea:	40 ef       	ldi	r20, 0xF0	; 240
    18ec:	52 e4       	ldi	r21, 0x42	; 66
    18ee:	ca 01       	movw	r24, r20
    18f0:	b9 01       	movw	r22, r18
    18f2:	0e 94 d4 02 	call	0x5a8	; 0x5a8 <MoveFrontRightLeg>
	MoveFrontLeftLeg(-120,120,-85,10);
    18f6:	20 e0       	ldi	r18, 0x00	; 0
    18f8:	30 e0       	ldi	r19, 0x00	; 0
    18fa:	40 ef       	ldi	r20, 0xF0	; 240
    18fc:	52 e4       	ldi	r21, 0x42	; 66
    18fe:	60 e0       	ldi	r22, 0x00	; 0
    1900:	70 e0       	ldi	r23, 0x00	; 0
    1902:	80 ef       	ldi	r24, 0xF0	; 240
    1904:	92 ec       	ldi	r25, 0xC2	; 194
    1906:	0e 94 93 01 	call	0x326	; 0x326 <MoveFrontLeftLeg>
	MoveRearLeftLeg(-120,-80,-85,10);
    190a:	20 e0       	ldi	r18, 0x00	; 0
    190c:	30 e0       	ldi	r19, 0x00	; 0
    190e:	40 ea       	ldi	r20, 0xA0	; 160
    1910:	52 ec       	ldi	r21, 0xC2	; 194
    1912:	60 e0       	ldi	r22, 0x00	; 0
    1914:	70 e0       	ldi	r23, 0x00	; 0
    1916:	80 ef       	ldi	r24, 0xF0	; 240
    1918:	92 ec       	ldi	r25, 0xC2	; 194
    191a:	0e 94 15 04 	call	0x82a	; 0x82a <MoveRearLeftLeg>
	MoveRearRightLeg(120,-80,-85,10);
    191e:	20 e0       	ldi	r18, 0x00	; 0
    1920:	30 e0       	ldi	r19, 0x00	; 0
    1922:	40 ea       	ldi	r20, 0xA0	; 160
    1924:	52 ec       	ldi	r21, 0xC2	; 194
    1926:	60 e0       	ldi	r22, 0x00	; 0
    1928:	70 e0       	ldi	r23, 0x00	; 0
    192a:	80 ef       	ldi	r24, 0xF0	; 240
    192c:	92 e4       	ldi	r25, 0x42	; 66
    192e:	d1 d8       	rcall	.-3678   	; 0xad2 <MoveRearRightLeg>
    
	CalcCurvedPath(frontLeftLeg,10,-120,120,-85,-120,20,-85);
    1930:	c2 ec       	ldi	r28, 0xC2	; 194
    1932:	cf 93       	push	r28
    1934:	da ea       	ldi	r29, 0xAA	; 170
    1936:	df 93       	push	r29
    1938:	1f 92       	push	r1
    193a:	1f 92       	push	r1
    193c:	0f 2e       	mov	r0, r31
    193e:	f1 e4       	ldi	r31, 0x41	; 65
    1940:	5f 2e       	mov	r5, r31
    1942:	f0 2d       	mov	r31, r0
    1944:	5f 92       	push	r5
    1946:	0f 2e       	mov	r0, r31
    1948:	f0 ea       	ldi	r31, 0xA0	; 160
    194a:	6f 2e       	mov	r6, r31
    194c:	f0 2d       	mov	r31, r0
    194e:	6f 92       	push	r6
    1950:	1f 92       	push	r1
    1952:	1f 92       	push	r1
    1954:	cf 93       	push	r28
    1956:	0f 2e       	mov	r0, r31
    1958:	f0 ef       	ldi	r31, 0xF0	; 240
    195a:	7f 2e       	mov	r7, r31
    195c:	f0 2d       	mov	r31, r0
    195e:	7f 92       	push	r7
    1960:	1f 92       	push	r1
    1962:	1f 92       	push	r1
    1964:	cf 93       	push	r28
    1966:	df 93       	push	r29
    1968:	1f 92       	push	r1
    196a:	1f 92       	push	r1
    196c:	0f 2e       	mov	r0, r31
    196e:	81 2c       	mov	r8, r1
    1970:	91 2c       	mov	r9, r1
    1972:	f0 ef       	ldi	r31, 0xF0	; 240
    1974:	af 2e       	mov	r10, r31
    1976:	f2 e4       	ldi	r31, 0x42	; 66
    1978:	bf 2e       	mov	r11, r31
    197a:	f0 2d       	mov	r31, r0
    197c:	0f 2e       	mov	r0, r31
    197e:	c1 2c       	mov	r12, r1
    1980:	d1 2c       	mov	r13, r1
    1982:	f0 ef       	ldi	r31, 0xF0	; 240
    1984:	ef 2e       	mov	r14, r31
    1986:	f2 ec       	ldi	r31, 0xC2	; 194
    1988:	ff 2e       	mov	r15, r31
    198a:	f0 2d       	mov	r31, r0
    198c:	0a e0       	ldi	r16, 0x0A	; 10
    198e:	10 e0       	ldi	r17, 0x00	; 0
    1990:	20 91 18 01 	lds	r18, 0x0118
    1994:	30 91 19 01 	lds	r19, 0x0119
    1998:	40 91 1a 01 	lds	r20, 0x011A
    199c:	50 91 1b 01 	lds	r21, 0x011B
    19a0:	60 91 1c 01 	lds	r22, 0x011C
    19a4:	70 91 1d 01 	lds	r23, 0x011D
    19a8:	80 91 1e 01 	lds	r24, 0x011E
    19ac:	90 91 1f 01 	lds	r25, 0x011F
    19b0:	70 da       	rcall	.-2848   	; 0xe92 <CalcCurvedPath>
    CalcCurvedPath(frontRightLeg,10,120,120,-85,120,20,-85);
    19b2:	cf 93       	push	r28
    19b4:	df 93       	push	r29
    19b6:	1f 92       	push	r1
    19b8:	1f 92       	push	r1
    19ba:	5f 92       	push	r5
    19bc:	6f 92       	push	r6
    19be:	1f 92       	push	r1
    19c0:	1f 92       	push	r1
    19c2:	0f 2e       	mov	r0, r31
    19c4:	f2 e4       	ldi	r31, 0x42	; 66
    19c6:	6f 2e       	mov	r6, r31
    19c8:	f0 2d       	mov	r31, r0
    19ca:	6f 92       	push	r6
    19cc:	7f 92       	push	r7
    19ce:	1f 92       	push	r1
    19d0:	1f 92       	push	r1
    19d2:	cf 93       	push	r28
    19d4:	df 93       	push	r29
    19d6:	1f 92       	push	r1
    19d8:	1f 92       	push	r1
    19da:	75 01       	movw	r14, r10
    19dc:	64 01       	movw	r12, r8
    19de:	20 91 10 01 	lds	r18, 0x0110
    19e2:	30 91 11 01 	lds	r19, 0x0111
    19e6:	40 91 12 01 	lds	r20, 0x0112
    19ea:	50 91 13 01 	lds	r21, 0x0113
    19ee:	60 91 14 01 	lds	r22, 0x0114
    19f2:	70 91 15 01 	lds	r23, 0x0115
    19f6:	80 91 16 01 	lds	r24, 0x0116
    19fa:	90 91 17 01 	lds	r25, 0x0117
    19fe:	49 da       	rcall	.-2926   	; 0xe92 <CalcCurvedPath>
    CalcCurvedPath(rearLeftLeg,10,-120,-80,-85,-120,-180,-85);
    1a00:	8d b7       	in	r24, 0x3d	; 61
    1a02:	9e b7       	in	r25, 0x3e	; 62
    1a04:	80 96       	adiw	r24, 0x20	; 32
    1a06:	0f b6       	in	r0, 0x3f	; 63
    1a08:	f8 94       	cli
    1a0a:	9e bf       	out	0x3e, r25	; 62
    1a0c:	0f be       	out	0x3f, r0	; 63
    1a0e:	8d bf       	out	0x3d, r24	; 61
    1a10:	cf 93       	push	r28
    1a12:	df 93       	push	r29
    1a14:	1f 92       	push	r1
    1a16:	1f 92       	push	r1
    1a18:	0f 2e       	mov	r0, r31
    1a1a:	f3 ec       	ldi	r31, 0xC3	; 195
    1a1c:	4f 2e       	mov	r4, r31
    1a1e:	f0 2d       	mov	r31, r0
    1a20:	4f 92       	push	r4
    1a22:	0f 2e       	mov	r0, r31
    1a24:	f4 e3       	ldi	r31, 0x34	; 52
    1a26:	5f 2e       	mov	r5, r31
    1a28:	f0 2d       	mov	r31, r0
    1a2a:	5f 92       	push	r5
    1a2c:	1f 92       	push	r1
    1a2e:	1f 92       	push	r1
    1a30:	cf 93       	push	r28
    1a32:	7f 92       	push	r7
    1a34:	1f 92       	push	r1
    1a36:	1f 92       	push	r1
    1a38:	cf 93       	push	r28
    1a3a:	df 93       	push	r29
    1a3c:	1f 92       	push	r1
    1a3e:	1f 92       	push	r1
    1a40:	0f 2e       	mov	r0, r31
    1a42:	81 2c       	mov	r8, r1
    1a44:	91 2c       	mov	r9, r1
    1a46:	f0 ea       	ldi	r31, 0xA0	; 160
    1a48:	af 2e       	mov	r10, r31
    1a4a:	f2 ec       	ldi	r31, 0xC2	; 194
    1a4c:	bf 2e       	mov	r11, r31
    1a4e:	f0 2d       	mov	r31, r0
    1a50:	0f 2e       	mov	r0, r31
    1a52:	c1 2c       	mov	r12, r1
    1a54:	d1 2c       	mov	r13, r1
    1a56:	f0 ef       	ldi	r31, 0xF0	; 240
    1a58:	ef 2e       	mov	r14, r31
    1a5a:	f2 ec       	ldi	r31, 0xC2	; 194
    1a5c:	ff 2e       	mov	r15, r31
    1a5e:	f0 2d       	mov	r31, r0
    1a60:	20 91 08 01 	lds	r18, 0x0108
    1a64:	30 91 09 01 	lds	r19, 0x0109
    1a68:	40 91 0a 01 	lds	r20, 0x010A
    1a6c:	50 91 0b 01 	lds	r21, 0x010B
    1a70:	60 91 0c 01 	lds	r22, 0x010C
    1a74:	70 91 0d 01 	lds	r23, 0x010D
    1a78:	80 91 0e 01 	lds	r24, 0x010E
    1a7c:	90 91 0f 01 	lds	r25, 0x010F
    1a80:	08 da       	rcall	.-3056   	; 0xe92 <CalcCurvedPath>
    CalcCurvedPath(rearRightLeg,10,120,-80,-85,120,-180,-85);
    1a82:	cf 93       	push	r28
    1a84:	df 93       	push	r29
    1a86:	1f 92       	push	r1
    1a88:	1f 92       	push	r1
    1a8a:	4f 92       	push	r4
    1a8c:	5f 92       	push	r5
    1a8e:	1f 92       	push	r1
    1a90:	1f 92       	push	r1
    1a92:	6f 92       	push	r6
    1a94:	7f 92       	push	r7
    1a96:	1f 92       	push	r1
    1a98:	1f 92       	push	r1
    1a9a:	cf 93       	push	r28
    1a9c:	df 93       	push	r29
    1a9e:	1f 92       	push	r1
    1aa0:	1f 92       	push	r1
    1aa2:	0f 2e       	mov	r0, r31
    1aa4:	c1 2c       	mov	r12, r1
    1aa6:	d1 2c       	mov	r13, r1
    1aa8:	f0 ef       	ldi	r31, 0xF0	; 240
    1aaa:	ef 2e       	mov	r14, r31
    1aac:	f2 e4       	ldi	r31, 0x42	; 66
    1aae:	ff 2e       	mov	r15, r31
    1ab0:	f0 2d       	mov	r31, r0
    1ab2:	20 91 00 01 	lds	r18, 0x0100
    1ab6:	30 91 01 01 	lds	r19, 0x0101
    1aba:	40 91 02 01 	lds	r20, 0x0102
    1abe:	50 91 03 01 	lds	r21, 0x0103
    1ac2:	60 91 04 01 	lds	r22, 0x0104
    1ac6:	70 91 05 01 	lds	r23, 0x0105
    1aca:	80 91 06 01 	lds	r24, 0x0106
    1ace:	90 91 07 01 	lds	r25, 0x0107
    1ad2:	df d9       	rcall	.-3138   	; 0xe92 <CalcCurvedPath>
    1ad4:	8d b7       	in	r24, 0x3d	; 61
    1ad6:	9e b7       	in	r25, 0x3e	; 62
    1ad8:	80 96       	adiw	r24, 0x20	; 32
    1ada:	0f b6       	in	r0, 0x3f	; 63
    1adc:	f8 94       	cli
    1ade:	9e bf       	out	0x3e, r25	; 62
    1ae0:	0f be       	out	0x3f, r0	; 63
    1ae2:	8d bf       	out	0x3d, r24	; 61
    1ae4:	ff cf       	rjmp	.-2      	; 0x1ae4 <main+0x222>

00001ae6 <acos>:
    1ae6:	9f 93       	push	r25
    1ae8:	9f 77       	andi	r25, 0x7F	; 127
    1aea:	a8 d1       	rcall	.+848    	; 0x1e3c <__fp_arccos>
    1aec:	0f 90       	pop	r0
    1aee:	00 20       	and	r0, r0
    1af0:	3a f4       	brpl	.+14     	; 0x1b00 <acos+0x1a>
    1af2:	90 58       	subi	r25, 0x80	; 128
    1af4:	a2 ea       	ldi	r26, 0xA2	; 162
    1af6:	2a ed       	ldi	r18, 0xDA	; 218
    1af8:	3f e0       	ldi	r19, 0x0F	; 15
    1afa:	49 e4       	ldi	r20, 0x49	; 73
    1afc:	50 e4       	ldi	r21, 0x40	; 64
    1afe:	13 d0       	rcall	.+38     	; 0x1b26 <__addsf3x>
    1b00:	f4 c1       	rjmp	.+1000   	; 0x1eea <__fp_round>

00001b02 <__subsf3>:
    1b02:	50 58       	subi	r21, 0x80	; 128

00001b04 <__addsf3>:
    1b04:	bb 27       	eor	r27, r27
    1b06:	aa 27       	eor	r26, r26
    1b08:	0e d0       	rcall	.+28     	; 0x1b26 <__addsf3x>
    1b0a:	ef c1       	rjmp	.+990    	; 0x1eea <__fp_round>
    1b0c:	e0 d1       	rcall	.+960    	; 0x1ece <__fp_pscA>
    1b0e:	30 f0       	brcs	.+12     	; 0x1b1c <__addsf3+0x18>
    1b10:	e5 d1       	rcall	.+970    	; 0x1edc <__fp_pscB>
    1b12:	20 f0       	brcs	.+8      	; 0x1b1c <__addsf3+0x18>
    1b14:	31 f4       	brne	.+12     	; 0x1b22 <__addsf3+0x1e>
    1b16:	9f 3f       	cpi	r25, 0xFF	; 255
    1b18:	11 f4       	brne	.+4      	; 0x1b1e <__addsf3+0x1a>
    1b1a:	1e f4       	brtc	.+6      	; 0x1b22 <__addsf3+0x1e>
    1b1c:	b0 c1       	rjmp	.+864    	; 0x1e7e <__fp_nan>
    1b1e:	0e f4       	brtc	.+2      	; 0x1b22 <__addsf3+0x1e>
    1b20:	e0 95       	com	r30
    1b22:	e7 fb       	bst	r30, 7
    1b24:	a6 c1       	rjmp	.+844    	; 0x1e72 <__fp_inf>

00001b26 <__addsf3x>:
    1b26:	e9 2f       	mov	r30, r25
    1b28:	f1 d1       	rcall	.+994    	; 0x1f0c <__fp_split3>
    1b2a:	80 f3       	brcs	.-32     	; 0x1b0c <__addsf3+0x8>
    1b2c:	ba 17       	cp	r27, r26
    1b2e:	62 07       	cpc	r22, r18
    1b30:	73 07       	cpc	r23, r19
    1b32:	84 07       	cpc	r24, r20
    1b34:	95 07       	cpc	r25, r21
    1b36:	18 f0       	brcs	.+6      	; 0x1b3e <__addsf3x+0x18>
    1b38:	71 f4       	brne	.+28     	; 0x1b56 <__addsf3x+0x30>
    1b3a:	9e f5       	brtc	.+102    	; 0x1ba2 <__addsf3x+0x7c>
    1b3c:	09 c2       	rjmp	.+1042   	; 0x1f50 <__fp_zero>
    1b3e:	0e f4       	brtc	.+2      	; 0x1b42 <__addsf3x+0x1c>
    1b40:	e0 95       	com	r30
    1b42:	0b 2e       	mov	r0, r27
    1b44:	ba 2f       	mov	r27, r26
    1b46:	a0 2d       	mov	r26, r0
    1b48:	0b 01       	movw	r0, r22
    1b4a:	b9 01       	movw	r22, r18
    1b4c:	90 01       	movw	r18, r0
    1b4e:	0c 01       	movw	r0, r24
    1b50:	ca 01       	movw	r24, r20
    1b52:	a0 01       	movw	r20, r0
    1b54:	11 24       	eor	r1, r1
    1b56:	ff 27       	eor	r31, r31
    1b58:	59 1b       	sub	r21, r25
    1b5a:	99 f0       	breq	.+38     	; 0x1b82 <__addsf3x+0x5c>
    1b5c:	59 3f       	cpi	r21, 0xF9	; 249
    1b5e:	50 f4       	brcc	.+20     	; 0x1b74 <__addsf3x+0x4e>
    1b60:	50 3e       	cpi	r21, 0xE0	; 224
    1b62:	68 f1       	brcs	.+90     	; 0x1bbe <__addsf3x+0x98>
    1b64:	1a 16       	cp	r1, r26
    1b66:	f0 40       	sbci	r31, 0x00	; 0
    1b68:	a2 2f       	mov	r26, r18
    1b6a:	23 2f       	mov	r18, r19
    1b6c:	34 2f       	mov	r19, r20
    1b6e:	44 27       	eor	r20, r20
    1b70:	58 5f       	subi	r21, 0xF8	; 248
    1b72:	f3 cf       	rjmp	.-26     	; 0x1b5a <__addsf3x+0x34>
    1b74:	46 95       	lsr	r20
    1b76:	37 95       	ror	r19
    1b78:	27 95       	ror	r18
    1b7a:	a7 95       	ror	r26
    1b7c:	f0 40       	sbci	r31, 0x00	; 0
    1b7e:	53 95       	inc	r21
    1b80:	c9 f7       	brne	.-14     	; 0x1b74 <__addsf3x+0x4e>
    1b82:	7e f4       	brtc	.+30     	; 0x1ba2 <__addsf3x+0x7c>
    1b84:	1f 16       	cp	r1, r31
    1b86:	ba 0b       	sbc	r27, r26
    1b88:	62 0b       	sbc	r22, r18
    1b8a:	73 0b       	sbc	r23, r19
    1b8c:	84 0b       	sbc	r24, r20
    1b8e:	ba f0       	brmi	.+46     	; 0x1bbe <__addsf3x+0x98>
    1b90:	91 50       	subi	r25, 0x01	; 1
    1b92:	a1 f0       	breq	.+40     	; 0x1bbc <__addsf3x+0x96>
    1b94:	ff 0f       	add	r31, r31
    1b96:	bb 1f       	adc	r27, r27
    1b98:	66 1f       	adc	r22, r22
    1b9a:	77 1f       	adc	r23, r23
    1b9c:	88 1f       	adc	r24, r24
    1b9e:	c2 f7       	brpl	.-16     	; 0x1b90 <__addsf3x+0x6a>
    1ba0:	0e c0       	rjmp	.+28     	; 0x1bbe <__addsf3x+0x98>
    1ba2:	ba 0f       	add	r27, r26
    1ba4:	62 1f       	adc	r22, r18
    1ba6:	73 1f       	adc	r23, r19
    1ba8:	84 1f       	adc	r24, r20
    1baa:	48 f4       	brcc	.+18     	; 0x1bbe <__addsf3x+0x98>
    1bac:	87 95       	ror	r24
    1bae:	77 95       	ror	r23
    1bb0:	67 95       	ror	r22
    1bb2:	b7 95       	ror	r27
    1bb4:	f7 95       	ror	r31
    1bb6:	9e 3f       	cpi	r25, 0xFE	; 254
    1bb8:	08 f0       	brcs	.+2      	; 0x1bbc <__addsf3x+0x96>
    1bba:	b3 cf       	rjmp	.-154    	; 0x1b22 <__addsf3+0x1e>
    1bbc:	93 95       	inc	r25
    1bbe:	88 0f       	add	r24, r24
    1bc0:	08 f0       	brcs	.+2      	; 0x1bc4 <__addsf3x+0x9e>
    1bc2:	99 27       	eor	r25, r25
    1bc4:	ee 0f       	add	r30, r30
    1bc6:	97 95       	ror	r25
    1bc8:	87 95       	ror	r24
    1bca:	08 95       	ret
    1bcc:	80 d1       	rcall	.+768    	; 0x1ece <__fp_pscA>
    1bce:	58 f0       	brcs	.+22     	; 0x1be6 <__addsf3x+0xc0>
    1bd0:	80 e8       	ldi	r24, 0x80	; 128
    1bd2:	91 e0       	ldi	r25, 0x01	; 1
    1bd4:	09 f4       	brne	.+2      	; 0x1bd8 <__addsf3x+0xb2>
    1bd6:	9e ef       	ldi	r25, 0xFE	; 254
    1bd8:	81 d1       	rcall	.+770    	; 0x1edc <__fp_pscB>
    1bda:	28 f0       	brcs	.+10     	; 0x1be6 <__addsf3x+0xc0>
    1bdc:	40 e8       	ldi	r20, 0x80	; 128
    1bde:	51 e0       	ldi	r21, 0x01	; 1
    1be0:	59 f4       	brne	.+22     	; 0x1bf8 <atan2+0xe>
    1be2:	5e ef       	ldi	r21, 0xFE	; 254
    1be4:	09 c0       	rjmp	.+18     	; 0x1bf8 <atan2+0xe>
    1be6:	4b c1       	rjmp	.+662    	; 0x1e7e <__fp_nan>
    1be8:	b3 c1       	rjmp	.+870    	; 0x1f50 <__fp_zero>

00001bea <atan2>:
    1bea:	e9 2f       	mov	r30, r25
    1bec:	e0 78       	andi	r30, 0x80	; 128
    1bee:	8e d1       	rcall	.+796    	; 0x1f0c <__fp_split3>
    1bf0:	68 f3       	brcs	.-38     	; 0x1bcc <__addsf3x+0xa6>
    1bf2:	09 2e       	mov	r0, r25
    1bf4:	05 2a       	or	r0, r21
    1bf6:	c1 f3       	breq	.-16     	; 0x1be8 <__addsf3x+0xc2>
    1bf8:	26 17       	cp	r18, r22
    1bfa:	37 07       	cpc	r19, r23
    1bfc:	48 07       	cpc	r20, r24
    1bfe:	59 07       	cpc	r21, r25
    1c00:	38 f0       	brcs	.+14     	; 0x1c10 <atan2+0x26>
    1c02:	0e 2e       	mov	r0, r30
    1c04:	07 f8       	bld	r0, 7
    1c06:	e0 25       	eor	r30, r0
    1c08:	69 f0       	breq	.+26     	; 0x1c24 <atan2+0x3a>
    1c0a:	e0 25       	eor	r30, r0
    1c0c:	e0 64       	ori	r30, 0x40	; 64
    1c0e:	0a c0       	rjmp	.+20     	; 0x1c24 <atan2+0x3a>
    1c10:	ef 63       	ori	r30, 0x3F	; 63
    1c12:	07 f8       	bld	r0, 7
    1c14:	00 94       	com	r0
    1c16:	07 fa       	bst	r0, 7
    1c18:	db 01       	movw	r26, r22
    1c1a:	b9 01       	movw	r22, r18
    1c1c:	9d 01       	movw	r18, r26
    1c1e:	dc 01       	movw	r26, r24
    1c20:	ca 01       	movw	r24, r20
    1c22:	ad 01       	movw	r20, r26
    1c24:	ef 93       	push	r30
    1c26:	43 d0       	rcall	.+134    	; 0x1cae <__divsf3_pse>
    1c28:	60 d1       	rcall	.+704    	; 0x1eea <__fp_round>
    1c2a:	0a d0       	rcall	.+20     	; 0x1c40 <atan>
    1c2c:	5f 91       	pop	r21
    1c2e:	55 23       	and	r21, r21
    1c30:	31 f0       	breq	.+12     	; 0x1c3e <atan2+0x54>
    1c32:	2b ed       	ldi	r18, 0xDB	; 219
    1c34:	3f e0       	ldi	r19, 0x0F	; 15
    1c36:	49 e4       	ldi	r20, 0x49	; 73
    1c38:	50 fd       	sbrc	r21, 0
    1c3a:	49 ec       	ldi	r20, 0xC9	; 201
    1c3c:	63 cf       	rjmp	.-314    	; 0x1b04 <__addsf3>
    1c3e:	08 95       	ret

00001c40 <atan>:
    1c40:	df 93       	push	r29
    1c42:	dd 27       	eor	r29, r29
    1c44:	b9 2f       	mov	r27, r25
    1c46:	bf 77       	andi	r27, 0x7F	; 127
    1c48:	40 e8       	ldi	r20, 0x80	; 128
    1c4a:	5f e3       	ldi	r21, 0x3F	; 63
    1c4c:	16 16       	cp	r1, r22
    1c4e:	17 06       	cpc	r1, r23
    1c50:	48 07       	cpc	r20, r24
    1c52:	5b 07       	cpc	r21, r27
    1c54:	10 f4       	brcc	.+4      	; 0x1c5a <atan+0x1a>
    1c56:	d9 2f       	mov	r29, r25
    1c58:	82 d1       	rcall	.+772    	; 0x1f5e <inverse>
    1c5a:	9f 93       	push	r25
    1c5c:	8f 93       	push	r24
    1c5e:	7f 93       	push	r23
    1c60:	6f 93       	push	r22
    1c62:	29 d2       	rcall	.+1106   	; 0x20b6 <square>
    1c64:	ec e8       	ldi	r30, 0x8C	; 140
    1c66:	f0 e0       	ldi	r31, 0x00	; 0
    1c68:	0d d1       	rcall	.+538    	; 0x1e84 <__fp_powser>
    1c6a:	3f d1       	rcall	.+638    	; 0x1eea <__fp_round>
    1c6c:	2f 91       	pop	r18
    1c6e:	3f 91       	pop	r19
    1c70:	4f 91       	pop	r20
    1c72:	5f 91       	pop	r21
    1c74:	87 d1       	rcall	.+782    	; 0x1f84 <__mulsf3x>
    1c76:	dd 23       	and	r29, r29
    1c78:	49 f0       	breq	.+18     	; 0x1c8c <atan+0x4c>
    1c7a:	90 58       	subi	r25, 0x80	; 128
    1c7c:	a2 ea       	ldi	r26, 0xA2	; 162
    1c7e:	2a ed       	ldi	r18, 0xDA	; 218
    1c80:	3f e0       	ldi	r19, 0x0F	; 15
    1c82:	49 ec       	ldi	r20, 0xC9	; 201
    1c84:	5f e3       	ldi	r21, 0x3F	; 63
    1c86:	d0 78       	andi	r29, 0x80	; 128
    1c88:	5d 27       	eor	r21, r29
    1c8a:	4d df       	rcall	.-358    	; 0x1b26 <__addsf3x>
    1c8c:	df 91       	pop	r29
    1c8e:	2d c1       	rjmp	.+602    	; 0x1eea <__fp_round>

00001c90 <__divsf3>:
    1c90:	0c d0       	rcall	.+24     	; 0x1caa <__divsf3x>
    1c92:	2b c1       	rjmp	.+598    	; 0x1eea <__fp_round>
    1c94:	23 d1       	rcall	.+582    	; 0x1edc <__fp_pscB>
    1c96:	40 f0       	brcs	.+16     	; 0x1ca8 <__divsf3+0x18>
    1c98:	1a d1       	rcall	.+564    	; 0x1ece <__fp_pscA>
    1c9a:	30 f0       	brcs	.+12     	; 0x1ca8 <__divsf3+0x18>
    1c9c:	21 f4       	brne	.+8      	; 0x1ca6 <__divsf3+0x16>
    1c9e:	5f 3f       	cpi	r21, 0xFF	; 255
    1ca0:	19 f0       	breq	.+6      	; 0x1ca8 <__divsf3+0x18>
    1ca2:	e7 c0       	rjmp	.+462    	; 0x1e72 <__fp_inf>
    1ca4:	51 11       	cpse	r21, r1
    1ca6:	55 c1       	rjmp	.+682    	; 0x1f52 <__fp_szero>
    1ca8:	ea c0       	rjmp	.+468    	; 0x1e7e <__fp_nan>

00001caa <__divsf3x>:
    1caa:	30 d1       	rcall	.+608    	; 0x1f0c <__fp_split3>
    1cac:	98 f3       	brcs	.-26     	; 0x1c94 <__divsf3+0x4>

00001cae <__divsf3_pse>:
    1cae:	99 23       	and	r25, r25
    1cb0:	c9 f3       	breq	.-14     	; 0x1ca4 <__divsf3+0x14>
    1cb2:	55 23       	and	r21, r21
    1cb4:	b1 f3       	breq	.-20     	; 0x1ca2 <__divsf3+0x12>
    1cb6:	95 1b       	sub	r25, r21
    1cb8:	55 0b       	sbc	r21, r21
    1cba:	bb 27       	eor	r27, r27
    1cbc:	aa 27       	eor	r26, r26
    1cbe:	62 17       	cp	r22, r18
    1cc0:	73 07       	cpc	r23, r19
    1cc2:	84 07       	cpc	r24, r20
    1cc4:	38 f0       	brcs	.+14     	; 0x1cd4 <__divsf3_pse+0x26>
    1cc6:	9f 5f       	subi	r25, 0xFF	; 255
    1cc8:	5f 4f       	sbci	r21, 0xFF	; 255
    1cca:	22 0f       	add	r18, r18
    1ccc:	33 1f       	adc	r19, r19
    1cce:	44 1f       	adc	r20, r20
    1cd0:	aa 1f       	adc	r26, r26
    1cd2:	a9 f3       	breq	.-22     	; 0x1cbe <__divsf3_pse+0x10>
    1cd4:	33 d0       	rcall	.+102    	; 0x1d3c <__divsf3_pse+0x8e>
    1cd6:	0e 2e       	mov	r0, r30
    1cd8:	3a f0       	brmi	.+14     	; 0x1ce8 <__divsf3_pse+0x3a>
    1cda:	e0 e8       	ldi	r30, 0x80	; 128
    1cdc:	30 d0       	rcall	.+96     	; 0x1d3e <__divsf3_pse+0x90>
    1cde:	91 50       	subi	r25, 0x01	; 1
    1ce0:	50 40       	sbci	r21, 0x00	; 0
    1ce2:	e6 95       	lsr	r30
    1ce4:	00 1c       	adc	r0, r0
    1ce6:	ca f7       	brpl	.-14     	; 0x1cda <__divsf3_pse+0x2c>
    1ce8:	29 d0       	rcall	.+82     	; 0x1d3c <__divsf3_pse+0x8e>
    1cea:	fe 2f       	mov	r31, r30
    1cec:	27 d0       	rcall	.+78     	; 0x1d3c <__divsf3_pse+0x8e>
    1cee:	66 0f       	add	r22, r22
    1cf0:	77 1f       	adc	r23, r23
    1cf2:	88 1f       	adc	r24, r24
    1cf4:	bb 1f       	adc	r27, r27
    1cf6:	26 17       	cp	r18, r22
    1cf8:	37 07       	cpc	r19, r23
    1cfa:	48 07       	cpc	r20, r24
    1cfc:	ab 07       	cpc	r26, r27
    1cfe:	b0 e8       	ldi	r27, 0x80	; 128
    1d00:	09 f0       	breq	.+2      	; 0x1d04 <__divsf3_pse+0x56>
    1d02:	bb 0b       	sbc	r27, r27
    1d04:	80 2d       	mov	r24, r0
    1d06:	bf 01       	movw	r22, r30
    1d08:	ff 27       	eor	r31, r31
    1d0a:	93 58       	subi	r25, 0x83	; 131
    1d0c:	5f 4f       	sbci	r21, 0xFF	; 255
    1d0e:	2a f0       	brmi	.+10     	; 0x1d1a <__divsf3_pse+0x6c>
    1d10:	9e 3f       	cpi	r25, 0xFE	; 254
    1d12:	51 05       	cpc	r21, r1
    1d14:	68 f0       	brcs	.+26     	; 0x1d30 <__divsf3_pse+0x82>
    1d16:	ad c0       	rjmp	.+346    	; 0x1e72 <__fp_inf>
    1d18:	1c c1       	rjmp	.+568    	; 0x1f52 <__fp_szero>
    1d1a:	5f 3f       	cpi	r21, 0xFF	; 255
    1d1c:	ec f3       	brlt	.-6      	; 0x1d18 <__divsf3_pse+0x6a>
    1d1e:	98 3e       	cpi	r25, 0xE8	; 232
    1d20:	dc f3       	brlt	.-10     	; 0x1d18 <__divsf3_pse+0x6a>
    1d22:	86 95       	lsr	r24
    1d24:	77 95       	ror	r23
    1d26:	67 95       	ror	r22
    1d28:	b7 95       	ror	r27
    1d2a:	f7 95       	ror	r31
    1d2c:	9f 5f       	subi	r25, 0xFF	; 255
    1d2e:	c9 f7       	brne	.-14     	; 0x1d22 <__divsf3_pse+0x74>
    1d30:	88 0f       	add	r24, r24
    1d32:	91 1d       	adc	r25, r1
    1d34:	96 95       	lsr	r25
    1d36:	87 95       	ror	r24
    1d38:	97 f9       	bld	r25, 7
    1d3a:	08 95       	ret
    1d3c:	e1 e0       	ldi	r30, 0x01	; 1
    1d3e:	66 0f       	add	r22, r22
    1d40:	77 1f       	adc	r23, r23
    1d42:	88 1f       	adc	r24, r24
    1d44:	bb 1f       	adc	r27, r27
    1d46:	62 17       	cp	r22, r18
    1d48:	73 07       	cpc	r23, r19
    1d4a:	84 07       	cpc	r24, r20
    1d4c:	ba 07       	cpc	r27, r26
    1d4e:	20 f0       	brcs	.+8      	; 0x1d58 <__divsf3_pse+0xaa>
    1d50:	62 1b       	sub	r22, r18
    1d52:	73 0b       	sbc	r23, r19
    1d54:	84 0b       	sbc	r24, r20
    1d56:	ba 0b       	sbc	r27, r26
    1d58:	ee 1f       	adc	r30, r30
    1d5a:	88 f7       	brcc	.-30     	; 0x1d3e <__divsf3_pse+0x90>
    1d5c:	e0 95       	com	r30
    1d5e:	08 95       	ret

00001d60 <__fixsfsi>:
    1d60:	04 d0       	rcall	.+8      	; 0x1d6a <__fixunssfsi>
    1d62:	68 94       	set
    1d64:	b1 11       	cpse	r27, r1
    1d66:	f5 c0       	rjmp	.+490    	; 0x1f52 <__fp_szero>
    1d68:	08 95       	ret

00001d6a <__fixunssfsi>:
    1d6a:	d8 d0       	rcall	.+432    	; 0x1f1c <__fp_splitA>
    1d6c:	88 f0       	brcs	.+34     	; 0x1d90 <__fixunssfsi+0x26>
    1d6e:	9f 57       	subi	r25, 0x7F	; 127
    1d70:	90 f0       	brcs	.+36     	; 0x1d96 <__fixunssfsi+0x2c>
    1d72:	b9 2f       	mov	r27, r25
    1d74:	99 27       	eor	r25, r25
    1d76:	b7 51       	subi	r27, 0x17	; 23
    1d78:	a0 f0       	brcs	.+40     	; 0x1da2 <__fixunssfsi+0x38>
    1d7a:	d1 f0       	breq	.+52     	; 0x1db0 <__fixunssfsi+0x46>
    1d7c:	66 0f       	add	r22, r22
    1d7e:	77 1f       	adc	r23, r23
    1d80:	88 1f       	adc	r24, r24
    1d82:	99 1f       	adc	r25, r25
    1d84:	1a f0       	brmi	.+6      	; 0x1d8c <__fixunssfsi+0x22>
    1d86:	ba 95       	dec	r27
    1d88:	c9 f7       	brne	.-14     	; 0x1d7c <__fixunssfsi+0x12>
    1d8a:	12 c0       	rjmp	.+36     	; 0x1db0 <__fixunssfsi+0x46>
    1d8c:	b1 30       	cpi	r27, 0x01	; 1
    1d8e:	81 f0       	breq	.+32     	; 0x1db0 <__fixunssfsi+0x46>
    1d90:	df d0       	rcall	.+446    	; 0x1f50 <__fp_zero>
    1d92:	b1 e0       	ldi	r27, 0x01	; 1
    1d94:	08 95       	ret
    1d96:	dc c0       	rjmp	.+440    	; 0x1f50 <__fp_zero>
    1d98:	67 2f       	mov	r22, r23
    1d9a:	78 2f       	mov	r23, r24
    1d9c:	88 27       	eor	r24, r24
    1d9e:	b8 5f       	subi	r27, 0xF8	; 248
    1da0:	39 f0       	breq	.+14     	; 0x1db0 <__fixunssfsi+0x46>
    1da2:	b9 3f       	cpi	r27, 0xF9	; 249
    1da4:	cc f3       	brlt	.-14     	; 0x1d98 <__fixunssfsi+0x2e>
    1da6:	86 95       	lsr	r24
    1da8:	77 95       	ror	r23
    1daa:	67 95       	ror	r22
    1dac:	b3 95       	inc	r27
    1dae:	d9 f7       	brne	.-10     	; 0x1da6 <__fixunssfsi+0x3c>
    1db0:	3e f4       	brtc	.+14     	; 0x1dc0 <__fixunssfsi+0x56>
    1db2:	90 95       	com	r25
    1db4:	80 95       	com	r24
    1db6:	70 95       	com	r23
    1db8:	61 95       	neg	r22
    1dba:	7f 4f       	sbci	r23, 0xFF	; 255
    1dbc:	8f 4f       	sbci	r24, 0xFF	; 255
    1dbe:	9f 4f       	sbci	r25, 0xFF	; 255
    1dc0:	08 95       	ret

00001dc2 <__floatunsisf>:
    1dc2:	e8 94       	clt
    1dc4:	09 c0       	rjmp	.+18     	; 0x1dd8 <__floatsisf+0x12>

00001dc6 <__floatsisf>:
    1dc6:	97 fb       	bst	r25, 7
    1dc8:	3e f4       	brtc	.+14     	; 0x1dd8 <__floatsisf+0x12>
    1dca:	90 95       	com	r25
    1dcc:	80 95       	com	r24
    1dce:	70 95       	com	r23
    1dd0:	61 95       	neg	r22
    1dd2:	7f 4f       	sbci	r23, 0xFF	; 255
    1dd4:	8f 4f       	sbci	r24, 0xFF	; 255
    1dd6:	9f 4f       	sbci	r25, 0xFF	; 255
    1dd8:	99 23       	and	r25, r25
    1dda:	a9 f0       	breq	.+42     	; 0x1e06 <__floatsisf+0x40>
    1ddc:	f9 2f       	mov	r31, r25
    1dde:	96 e9       	ldi	r25, 0x96	; 150
    1de0:	bb 27       	eor	r27, r27
    1de2:	93 95       	inc	r25
    1de4:	f6 95       	lsr	r31
    1de6:	87 95       	ror	r24
    1de8:	77 95       	ror	r23
    1dea:	67 95       	ror	r22
    1dec:	b7 95       	ror	r27
    1dee:	f1 11       	cpse	r31, r1
    1df0:	f8 cf       	rjmp	.-16     	; 0x1de2 <__floatsisf+0x1c>
    1df2:	fa f4       	brpl	.+62     	; 0x1e32 <__floatsisf+0x6c>
    1df4:	bb 0f       	add	r27, r27
    1df6:	11 f4       	brne	.+4      	; 0x1dfc <__floatsisf+0x36>
    1df8:	60 ff       	sbrs	r22, 0
    1dfa:	1b c0       	rjmp	.+54     	; 0x1e32 <__floatsisf+0x6c>
    1dfc:	6f 5f       	subi	r22, 0xFF	; 255
    1dfe:	7f 4f       	sbci	r23, 0xFF	; 255
    1e00:	8f 4f       	sbci	r24, 0xFF	; 255
    1e02:	9f 4f       	sbci	r25, 0xFF	; 255
    1e04:	16 c0       	rjmp	.+44     	; 0x1e32 <__floatsisf+0x6c>
    1e06:	88 23       	and	r24, r24
    1e08:	11 f0       	breq	.+4      	; 0x1e0e <__floatsisf+0x48>
    1e0a:	96 e9       	ldi	r25, 0x96	; 150
    1e0c:	11 c0       	rjmp	.+34     	; 0x1e30 <__floatsisf+0x6a>
    1e0e:	77 23       	and	r23, r23
    1e10:	21 f0       	breq	.+8      	; 0x1e1a <__floatsisf+0x54>
    1e12:	9e e8       	ldi	r25, 0x8E	; 142
    1e14:	87 2f       	mov	r24, r23
    1e16:	76 2f       	mov	r23, r22
    1e18:	05 c0       	rjmp	.+10     	; 0x1e24 <__floatsisf+0x5e>
    1e1a:	66 23       	and	r22, r22
    1e1c:	71 f0       	breq	.+28     	; 0x1e3a <__floatsisf+0x74>
    1e1e:	96 e8       	ldi	r25, 0x86	; 134
    1e20:	86 2f       	mov	r24, r22
    1e22:	70 e0       	ldi	r23, 0x00	; 0
    1e24:	60 e0       	ldi	r22, 0x00	; 0
    1e26:	2a f0       	brmi	.+10     	; 0x1e32 <__floatsisf+0x6c>
    1e28:	9a 95       	dec	r25
    1e2a:	66 0f       	add	r22, r22
    1e2c:	77 1f       	adc	r23, r23
    1e2e:	88 1f       	adc	r24, r24
    1e30:	da f7       	brpl	.-10     	; 0x1e28 <__floatsisf+0x62>
    1e32:	88 0f       	add	r24, r24
    1e34:	96 95       	lsr	r25
    1e36:	87 95       	ror	r24
    1e38:	97 f9       	bld	r25, 7
    1e3a:	08 95       	ret

00001e3c <__fp_arccos>:
    1e3c:	df 93       	push	r29
    1e3e:	cf 93       	push	r28
    1e40:	1f 93       	push	r17
    1e42:	0f 93       	push	r16
    1e44:	8b 01       	movw	r16, r22
    1e46:	ec 01       	movw	r28, r24
    1e48:	e9 eb       	ldi	r30, 0xB9	; 185
    1e4a:	f0 e0       	ldi	r31, 0x00	; 0
    1e4c:	1b d0       	rcall	.+54     	; 0x1e84 <__fp_powser>
    1e4e:	4d d0       	rcall	.+154    	; 0x1eea <__fp_round>
    1e50:	98 01       	movw	r18, r16
    1e52:	ae 01       	movw	r20, r28
    1e54:	8b 01       	movw	r16, r22
    1e56:	ec 01       	movw	r28, r24
    1e58:	60 e0       	ldi	r22, 0x00	; 0
    1e5a:	70 e0       	ldi	r23, 0x00	; 0
    1e5c:	80 e8       	ldi	r24, 0x80	; 128
    1e5e:	9f e3       	ldi	r25, 0x3F	; 63
    1e60:	50 de       	rcall	.-864    	; 0x1b02 <__subsf3>
    1e62:	eb d0       	rcall	.+470    	; 0x203a <sqrt>
    1e64:	98 01       	movw	r18, r16
    1e66:	ae 01       	movw	r20, r28
    1e68:	0f 91       	pop	r16
    1e6a:	1f 91       	pop	r17
    1e6c:	cf 91       	pop	r28
    1e6e:	df 91       	pop	r29
    1e70:	89 c0       	rjmp	.+274    	; 0x1f84 <__mulsf3x>

00001e72 <__fp_inf>:
    1e72:	97 f9       	bld	r25, 7
    1e74:	9f 67       	ori	r25, 0x7F	; 127
    1e76:	80 e8       	ldi	r24, 0x80	; 128
    1e78:	70 e0       	ldi	r23, 0x00	; 0
    1e7a:	60 e0       	ldi	r22, 0x00	; 0
    1e7c:	08 95       	ret

00001e7e <__fp_nan>:
    1e7e:	9f ef       	ldi	r25, 0xFF	; 255
    1e80:	80 ec       	ldi	r24, 0xC0	; 192
    1e82:	08 95       	ret

00001e84 <__fp_powser>:
    1e84:	df 93       	push	r29
    1e86:	cf 93       	push	r28
    1e88:	1f 93       	push	r17
    1e8a:	0f 93       	push	r16
    1e8c:	ff 92       	push	r15
    1e8e:	ef 92       	push	r14
    1e90:	df 92       	push	r13
    1e92:	7b 01       	movw	r14, r22
    1e94:	8c 01       	movw	r16, r24
    1e96:	68 94       	set
    1e98:	05 c0       	rjmp	.+10     	; 0x1ea4 <__fp_powser+0x20>
    1e9a:	da 2e       	mov	r13, r26
    1e9c:	ef 01       	movw	r28, r30
    1e9e:	72 d0       	rcall	.+228    	; 0x1f84 <__mulsf3x>
    1ea0:	fe 01       	movw	r30, r28
    1ea2:	e8 94       	clt
    1ea4:	a5 91       	lpm	r26, Z+
    1ea6:	25 91       	lpm	r18, Z+
    1ea8:	35 91       	lpm	r19, Z+
    1eaa:	45 91       	lpm	r20, Z+
    1eac:	55 91       	lpm	r21, Z+
    1eae:	ae f3       	brts	.-22     	; 0x1e9a <__fp_powser+0x16>
    1eb0:	ef 01       	movw	r28, r30
    1eb2:	39 de       	rcall	.-910    	; 0x1b26 <__addsf3x>
    1eb4:	fe 01       	movw	r30, r28
    1eb6:	97 01       	movw	r18, r14
    1eb8:	a8 01       	movw	r20, r16
    1eba:	da 94       	dec	r13
    1ebc:	79 f7       	brne	.-34     	; 0x1e9c <__fp_powser+0x18>
    1ebe:	df 90       	pop	r13
    1ec0:	ef 90       	pop	r14
    1ec2:	ff 90       	pop	r15
    1ec4:	0f 91       	pop	r16
    1ec6:	1f 91       	pop	r17
    1ec8:	cf 91       	pop	r28
    1eca:	df 91       	pop	r29
    1ecc:	08 95       	ret

00001ece <__fp_pscA>:
    1ece:	00 24       	eor	r0, r0
    1ed0:	0a 94       	dec	r0
    1ed2:	16 16       	cp	r1, r22
    1ed4:	17 06       	cpc	r1, r23
    1ed6:	18 06       	cpc	r1, r24
    1ed8:	09 06       	cpc	r0, r25
    1eda:	08 95       	ret

00001edc <__fp_pscB>:
    1edc:	00 24       	eor	r0, r0
    1ede:	0a 94       	dec	r0
    1ee0:	12 16       	cp	r1, r18
    1ee2:	13 06       	cpc	r1, r19
    1ee4:	14 06       	cpc	r1, r20
    1ee6:	05 06       	cpc	r0, r21
    1ee8:	08 95       	ret

00001eea <__fp_round>:
    1eea:	09 2e       	mov	r0, r25
    1eec:	03 94       	inc	r0
    1eee:	00 0c       	add	r0, r0
    1ef0:	11 f4       	brne	.+4      	; 0x1ef6 <__fp_round+0xc>
    1ef2:	88 23       	and	r24, r24
    1ef4:	52 f0       	brmi	.+20     	; 0x1f0a <__fp_round+0x20>
    1ef6:	bb 0f       	add	r27, r27
    1ef8:	40 f4       	brcc	.+16     	; 0x1f0a <__fp_round+0x20>
    1efa:	bf 2b       	or	r27, r31
    1efc:	11 f4       	brne	.+4      	; 0x1f02 <__fp_round+0x18>
    1efe:	60 ff       	sbrs	r22, 0
    1f00:	04 c0       	rjmp	.+8      	; 0x1f0a <__fp_round+0x20>
    1f02:	6f 5f       	subi	r22, 0xFF	; 255
    1f04:	7f 4f       	sbci	r23, 0xFF	; 255
    1f06:	8f 4f       	sbci	r24, 0xFF	; 255
    1f08:	9f 4f       	sbci	r25, 0xFF	; 255
    1f0a:	08 95       	ret

00001f0c <__fp_split3>:
    1f0c:	57 fd       	sbrc	r21, 7
    1f0e:	90 58       	subi	r25, 0x80	; 128
    1f10:	44 0f       	add	r20, r20
    1f12:	55 1f       	adc	r21, r21
    1f14:	59 f0       	breq	.+22     	; 0x1f2c <__fp_splitA+0x10>
    1f16:	5f 3f       	cpi	r21, 0xFF	; 255
    1f18:	71 f0       	breq	.+28     	; 0x1f36 <__fp_splitA+0x1a>
    1f1a:	47 95       	ror	r20

00001f1c <__fp_splitA>:
    1f1c:	88 0f       	add	r24, r24
    1f1e:	97 fb       	bst	r25, 7
    1f20:	99 1f       	adc	r25, r25
    1f22:	61 f0       	breq	.+24     	; 0x1f3c <__fp_splitA+0x20>
    1f24:	9f 3f       	cpi	r25, 0xFF	; 255
    1f26:	79 f0       	breq	.+30     	; 0x1f46 <__fp_splitA+0x2a>
    1f28:	87 95       	ror	r24
    1f2a:	08 95       	ret
    1f2c:	12 16       	cp	r1, r18
    1f2e:	13 06       	cpc	r1, r19
    1f30:	14 06       	cpc	r1, r20
    1f32:	55 1f       	adc	r21, r21
    1f34:	f2 cf       	rjmp	.-28     	; 0x1f1a <__fp_split3+0xe>
    1f36:	46 95       	lsr	r20
    1f38:	f1 df       	rcall	.-30     	; 0x1f1c <__fp_splitA>
    1f3a:	08 c0       	rjmp	.+16     	; 0x1f4c <__fp_splitA+0x30>
    1f3c:	16 16       	cp	r1, r22
    1f3e:	17 06       	cpc	r1, r23
    1f40:	18 06       	cpc	r1, r24
    1f42:	99 1f       	adc	r25, r25
    1f44:	f1 cf       	rjmp	.-30     	; 0x1f28 <__fp_splitA+0xc>
    1f46:	86 95       	lsr	r24
    1f48:	71 05       	cpc	r23, r1
    1f4a:	61 05       	cpc	r22, r1
    1f4c:	08 94       	sec
    1f4e:	08 95       	ret

00001f50 <__fp_zero>:
    1f50:	e8 94       	clt

00001f52 <__fp_szero>:
    1f52:	bb 27       	eor	r27, r27
    1f54:	66 27       	eor	r22, r22
    1f56:	77 27       	eor	r23, r23
    1f58:	cb 01       	movw	r24, r22
    1f5a:	97 f9       	bld	r25, 7
    1f5c:	08 95       	ret

00001f5e <inverse>:
    1f5e:	9b 01       	movw	r18, r22
    1f60:	ac 01       	movw	r20, r24
    1f62:	60 e0       	ldi	r22, 0x00	; 0
    1f64:	70 e0       	ldi	r23, 0x00	; 0
    1f66:	80 e8       	ldi	r24, 0x80	; 128
    1f68:	9f e3       	ldi	r25, 0x3F	; 63
    1f6a:	92 ce       	rjmp	.-732    	; 0x1c90 <__divsf3>

00001f6c <__mulsf3>:
    1f6c:	0b d0       	rcall	.+22     	; 0x1f84 <__mulsf3x>
    1f6e:	bd cf       	rjmp	.-134    	; 0x1eea <__fp_round>
    1f70:	ae df       	rcall	.-164    	; 0x1ece <__fp_pscA>
    1f72:	28 f0       	brcs	.+10     	; 0x1f7e <__mulsf3+0x12>
    1f74:	b3 df       	rcall	.-154    	; 0x1edc <__fp_pscB>
    1f76:	18 f0       	brcs	.+6      	; 0x1f7e <__mulsf3+0x12>
    1f78:	95 23       	and	r25, r21
    1f7a:	09 f0       	breq	.+2      	; 0x1f7e <__mulsf3+0x12>
    1f7c:	7a cf       	rjmp	.-268    	; 0x1e72 <__fp_inf>
    1f7e:	7f cf       	rjmp	.-258    	; 0x1e7e <__fp_nan>
    1f80:	11 24       	eor	r1, r1
    1f82:	e7 cf       	rjmp	.-50     	; 0x1f52 <__fp_szero>

00001f84 <__mulsf3x>:
    1f84:	c3 df       	rcall	.-122    	; 0x1f0c <__fp_split3>
    1f86:	a0 f3       	brcs	.-24     	; 0x1f70 <__mulsf3+0x4>

00001f88 <__mulsf3_pse>:
    1f88:	95 9f       	mul	r25, r21
    1f8a:	d1 f3       	breq	.-12     	; 0x1f80 <__mulsf3+0x14>
    1f8c:	95 0f       	add	r25, r21
    1f8e:	50 e0       	ldi	r21, 0x00	; 0
    1f90:	55 1f       	adc	r21, r21
    1f92:	62 9f       	mul	r22, r18
    1f94:	f0 01       	movw	r30, r0
    1f96:	72 9f       	mul	r23, r18
    1f98:	bb 27       	eor	r27, r27
    1f9a:	f0 0d       	add	r31, r0
    1f9c:	b1 1d       	adc	r27, r1
    1f9e:	63 9f       	mul	r22, r19
    1fa0:	aa 27       	eor	r26, r26
    1fa2:	f0 0d       	add	r31, r0
    1fa4:	b1 1d       	adc	r27, r1
    1fa6:	aa 1f       	adc	r26, r26
    1fa8:	64 9f       	mul	r22, r20
    1faa:	66 27       	eor	r22, r22
    1fac:	b0 0d       	add	r27, r0
    1fae:	a1 1d       	adc	r26, r1
    1fb0:	66 1f       	adc	r22, r22
    1fb2:	82 9f       	mul	r24, r18
    1fb4:	22 27       	eor	r18, r18
    1fb6:	b0 0d       	add	r27, r0
    1fb8:	a1 1d       	adc	r26, r1
    1fba:	62 1f       	adc	r22, r18
    1fbc:	73 9f       	mul	r23, r19
    1fbe:	b0 0d       	add	r27, r0
    1fc0:	a1 1d       	adc	r26, r1
    1fc2:	62 1f       	adc	r22, r18
    1fc4:	83 9f       	mul	r24, r19
    1fc6:	a0 0d       	add	r26, r0
    1fc8:	61 1d       	adc	r22, r1
    1fca:	22 1f       	adc	r18, r18
    1fcc:	74 9f       	mul	r23, r20
    1fce:	33 27       	eor	r19, r19
    1fd0:	a0 0d       	add	r26, r0
    1fd2:	61 1d       	adc	r22, r1
    1fd4:	23 1f       	adc	r18, r19
    1fd6:	84 9f       	mul	r24, r20
    1fd8:	60 0d       	add	r22, r0
    1fda:	21 1d       	adc	r18, r1
    1fdc:	82 2f       	mov	r24, r18
    1fde:	76 2f       	mov	r23, r22
    1fe0:	6a 2f       	mov	r22, r26
    1fe2:	11 24       	eor	r1, r1
    1fe4:	9f 57       	subi	r25, 0x7F	; 127
    1fe6:	50 40       	sbci	r21, 0x00	; 0
    1fe8:	8a f0       	brmi	.+34     	; 0x200c <__mulsf3_pse+0x84>
    1fea:	e1 f0       	breq	.+56     	; 0x2024 <__mulsf3_pse+0x9c>
    1fec:	88 23       	and	r24, r24
    1fee:	4a f0       	brmi	.+18     	; 0x2002 <__mulsf3_pse+0x7a>
    1ff0:	ee 0f       	add	r30, r30
    1ff2:	ff 1f       	adc	r31, r31
    1ff4:	bb 1f       	adc	r27, r27
    1ff6:	66 1f       	adc	r22, r22
    1ff8:	77 1f       	adc	r23, r23
    1ffa:	88 1f       	adc	r24, r24
    1ffc:	91 50       	subi	r25, 0x01	; 1
    1ffe:	50 40       	sbci	r21, 0x00	; 0
    2000:	a9 f7       	brne	.-22     	; 0x1fec <__mulsf3_pse+0x64>
    2002:	9e 3f       	cpi	r25, 0xFE	; 254
    2004:	51 05       	cpc	r21, r1
    2006:	70 f0       	brcs	.+28     	; 0x2024 <__mulsf3_pse+0x9c>
    2008:	34 cf       	rjmp	.-408    	; 0x1e72 <__fp_inf>
    200a:	a3 cf       	rjmp	.-186    	; 0x1f52 <__fp_szero>
    200c:	5f 3f       	cpi	r21, 0xFF	; 255
    200e:	ec f3       	brlt	.-6      	; 0x200a <__mulsf3_pse+0x82>
    2010:	98 3e       	cpi	r25, 0xE8	; 232
    2012:	dc f3       	brlt	.-10     	; 0x200a <__mulsf3_pse+0x82>
    2014:	86 95       	lsr	r24
    2016:	77 95       	ror	r23
    2018:	67 95       	ror	r22
    201a:	b7 95       	ror	r27
    201c:	f7 95       	ror	r31
    201e:	e7 95       	ror	r30
    2020:	9f 5f       	subi	r25, 0xFF	; 255
    2022:	c1 f7       	brne	.-16     	; 0x2014 <__mulsf3_pse+0x8c>
    2024:	fe 2b       	or	r31, r30
    2026:	88 0f       	add	r24, r24
    2028:	91 1d       	adc	r25, r1
    202a:	96 95       	lsr	r25
    202c:	87 95       	ror	r24
    202e:	97 f9       	bld	r25, 7
    2030:	08 95       	ret
    2032:	11 f4       	brne	.+4      	; 0x2038 <__mulsf3_pse+0xb0>
    2034:	0e f4       	brtc	.+2      	; 0x2038 <__mulsf3_pse+0xb0>
    2036:	23 cf       	rjmp	.-442    	; 0x1e7e <__fp_nan>
    2038:	41 c0       	rjmp	.+130    	; 0x20bc <__fp_mpack>

0000203a <sqrt>:
    203a:	70 df       	rcall	.-288    	; 0x1f1c <__fp_splitA>
    203c:	d0 f3       	brcs	.-12     	; 0x2032 <__mulsf3_pse+0xaa>
    203e:	99 23       	and	r25, r25
    2040:	d9 f3       	breq	.-10     	; 0x2038 <__mulsf3_pse+0xb0>
    2042:	ce f3       	brts	.-14     	; 0x2036 <__mulsf3_pse+0xae>
    2044:	9f 57       	subi	r25, 0x7F	; 127
    2046:	55 0b       	sbc	r21, r21
    2048:	87 ff       	sbrs	r24, 7
    204a:	46 d0       	rcall	.+140    	; 0x20d8 <__fp_norm2>
    204c:	00 24       	eor	r0, r0
    204e:	a0 e6       	ldi	r26, 0x60	; 96
    2050:	40 ea       	ldi	r20, 0xA0	; 160
    2052:	90 01       	movw	r18, r0
    2054:	80 58       	subi	r24, 0x80	; 128
    2056:	56 95       	lsr	r21
    2058:	97 95       	ror	r25
    205a:	28 f4       	brcc	.+10     	; 0x2066 <sqrt+0x2c>
    205c:	80 5c       	subi	r24, 0xC0	; 192
    205e:	66 0f       	add	r22, r22
    2060:	77 1f       	adc	r23, r23
    2062:	88 1f       	adc	r24, r24
    2064:	20 f0       	brcs	.+8      	; 0x206e <sqrt+0x34>
    2066:	26 17       	cp	r18, r22
    2068:	37 07       	cpc	r19, r23
    206a:	48 07       	cpc	r20, r24
    206c:	30 f4       	brcc	.+12     	; 0x207a <sqrt+0x40>
    206e:	62 1b       	sub	r22, r18
    2070:	73 0b       	sbc	r23, r19
    2072:	84 0b       	sbc	r24, r20
    2074:	20 29       	or	r18, r0
    2076:	31 29       	or	r19, r1
    2078:	4a 2b       	or	r20, r26
    207a:	a6 95       	lsr	r26
    207c:	17 94       	ror	r1
    207e:	07 94       	ror	r0
    2080:	20 25       	eor	r18, r0
    2082:	31 25       	eor	r19, r1
    2084:	4a 27       	eor	r20, r26
    2086:	58 f7       	brcc	.-42     	; 0x205e <sqrt+0x24>
    2088:	66 0f       	add	r22, r22
    208a:	77 1f       	adc	r23, r23
    208c:	88 1f       	adc	r24, r24
    208e:	20 f0       	brcs	.+8      	; 0x2098 <sqrt+0x5e>
    2090:	26 17       	cp	r18, r22
    2092:	37 07       	cpc	r19, r23
    2094:	48 07       	cpc	r20, r24
    2096:	30 f4       	brcc	.+12     	; 0x20a4 <sqrt+0x6a>
    2098:	62 0b       	sbc	r22, r18
    209a:	73 0b       	sbc	r23, r19
    209c:	84 0b       	sbc	r24, r20
    209e:	20 0d       	add	r18, r0
    20a0:	31 1d       	adc	r19, r1
    20a2:	41 1d       	adc	r20, r1
    20a4:	a0 95       	com	r26
    20a6:	81 f7       	brne	.-32     	; 0x2088 <sqrt+0x4e>
    20a8:	b9 01       	movw	r22, r18
    20aa:	84 2f       	mov	r24, r20
    20ac:	91 58       	subi	r25, 0x81	; 129
    20ae:	88 0f       	add	r24, r24
    20b0:	96 95       	lsr	r25
    20b2:	87 95       	ror	r24
    20b4:	08 95       	ret

000020b6 <square>:
    20b6:	9b 01       	movw	r18, r22
    20b8:	ac 01       	movw	r20, r24
    20ba:	58 cf       	rjmp	.-336    	; 0x1f6c <__mulsf3>

000020bc <__fp_mpack>:
    20bc:	9f 3f       	cpi	r25, 0xFF	; 255
    20be:	31 f0       	breq	.+12     	; 0x20cc <__fp_mpack_finite+0xc>

000020c0 <__fp_mpack_finite>:
    20c0:	91 50       	subi	r25, 0x01	; 1
    20c2:	20 f4       	brcc	.+8      	; 0x20cc <__fp_mpack_finite+0xc>
    20c4:	87 95       	ror	r24
    20c6:	77 95       	ror	r23
    20c8:	67 95       	ror	r22
    20ca:	b7 95       	ror	r27
    20cc:	88 0f       	add	r24, r24
    20ce:	91 1d       	adc	r25, r1
    20d0:	96 95       	lsr	r25
    20d2:	87 95       	ror	r24
    20d4:	97 f9       	bld	r25, 7
    20d6:	08 95       	ret

000020d8 <__fp_norm2>:
    20d8:	91 50       	subi	r25, 0x01	; 1
    20da:	50 40       	sbci	r21, 0x00	; 0
    20dc:	66 0f       	add	r22, r22
    20de:	77 1f       	adc	r23, r23
    20e0:	88 1f       	adc	r24, r24
    20e2:	d2 f7       	brpl	.-12     	; 0x20d8 <__fp_norm2>
    20e4:	08 95       	ret

000020e6 <__divmodsi4>:
    20e6:	05 2e       	mov	r0, r21
    20e8:	97 fb       	bst	r25, 7
    20ea:	16 f4       	brtc	.+4      	; 0x20f0 <__divmodsi4+0xa>
    20ec:	00 94       	com	r0
    20ee:	0f d0       	rcall	.+30     	; 0x210e <__negsi2>
    20f0:	57 fd       	sbrc	r21, 7
    20f2:	05 d0       	rcall	.+10     	; 0x20fe <__divmodsi4_neg2>
    20f4:	1e d0       	rcall	.+60     	; 0x2132 <__udivmodsi4>
    20f6:	07 fc       	sbrc	r0, 7
    20f8:	02 d0       	rcall	.+4      	; 0x20fe <__divmodsi4_neg2>
    20fa:	46 f4       	brtc	.+16     	; 0x210c <__divmodsi4_exit>
    20fc:	08 c0       	rjmp	.+16     	; 0x210e <__negsi2>

000020fe <__divmodsi4_neg2>:
    20fe:	50 95       	com	r21
    2100:	40 95       	com	r20
    2102:	30 95       	com	r19
    2104:	21 95       	neg	r18
    2106:	3f 4f       	sbci	r19, 0xFF	; 255
    2108:	4f 4f       	sbci	r20, 0xFF	; 255
    210a:	5f 4f       	sbci	r21, 0xFF	; 255

0000210c <__divmodsi4_exit>:
    210c:	08 95       	ret

0000210e <__negsi2>:
    210e:	90 95       	com	r25
    2110:	80 95       	com	r24
    2112:	70 95       	com	r23
    2114:	61 95       	neg	r22
    2116:	7f 4f       	sbci	r23, 0xFF	; 255
    2118:	8f 4f       	sbci	r24, 0xFF	; 255
    211a:	9f 4f       	sbci	r25, 0xFF	; 255
    211c:	08 95       	ret

0000211e <__muluhisi3>:
    211e:	2b d0       	rcall	.+86     	; 0x2176 <__umulhisi3>
    2120:	a5 9f       	mul	r26, r21
    2122:	90 0d       	add	r25, r0
    2124:	b4 9f       	mul	r27, r20
    2126:	90 0d       	add	r25, r0
    2128:	a4 9f       	mul	r26, r20
    212a:	80 0d       	add	r24, r0
    212c:	91 1d       	adc	r25, r1
    212e:	11 24       	eor	r1, r1
    2130:	08 95       	ret

00002132 <__udivmodsi4>:
    2132:	a1 e2       	ldi	r26, 0x21	; 33
    2134:	1a 2e       	mov	r1, r26
    2136:	aa 1b       	sub	r26, r26
    2138:	bb 1b       	sub	r27, r27
    213a:	fd 01       	movw	r30, r26
    213c:	0d c0       	rjmp	.+26     	; 0x2158 <__udivmodsi4_ep>

0000213e <__udivmodsi4_loop>:
    213e:	aa 1f       	adc	r26, r26
    2140:	bb 1f       	adc	r27, r27
    2142:	ee 1f       	adc	r30, r30
    2144:	ff 1f       	adc	r31, r31
    2146:	a2 17       	cp	r26, r18
    2148:	b3 07       	cpc	r27, r19
    214a:	e4 07       	cpc	r30, r20
    214c:	f5 07       	cpc	r31, r21
    214e:	20 f0       	brcs	.+8      	; 0x2158 <__udivmodsi4_ep>
    2150:	a2 1b       	sub	r26, r18
    2152:	b3 0b       	sbc	r27, r19
    2154:	e4 0b       	sbc	r30, r20
    2156:	f5 0b       	sbc	r31, r21

00002158 <__udivmodsi4_ep>:
    2158:	66 1f       	adc	r22, r22
    215a:	77 1f       	adc	r23, r23
    215c:	88 1f       	adc	r24, r24
    215e:	99 1f       	adc	r25, r25
    2160:	1a 94       	dec	r1
    2162:	69 f7       	brne	.-38     	; 0x213e <__udivmodsi4_loop>
    2164:	60 95       	com	r22
    2166:	70 95       	com	r23
    2168:	80 95       	com	r24
    216a:	90 95       	com	r25
    216c:	9b 01       	movw	r18, r22
    216e:	ac 01       	movw	r20, r24
    2170:	bd 01       	movw	r22, r26
    2172:	cf 01       	movw	r24, r30
    2174:	08 95       	ret

00002176 <__umulhisi3>:
    2176:	a2 9f       	mul	r26, r18
    2178:	b0 01       	movw	r22, r0
    217a:	b3 9f       	mul	r27, r19
    217c:	c0 01       	movw	r24, r0
    217e:	a3 9f       	mul	r26, r19
    2180:	70 0d       	add	r23, r0
    2182:	81 1d       	adc	r24, r1
    2184:	11 24       	eor	r1, r1
    2186:	91 1d       	adc	r25, r1
    2188:	b2 9f       	mul	r27, r18
    218a:	70 0d       	add	r23, r0
    218c:	81 1d       	adc	r24, r1
    218e:	11 24       	eor	r1, r1
    2190:	91 1d       	adc	r25, r1
    2192:	08 95       	ret

00002194 <_exit>:
    2194:	f8 94       	cli

00002196 <__stop_program>:
    2196:	ff cf       	rjmp	.-2      	; 0x2196 <__stop_program>
