
Test_servo_v1.elf:     file format elf32-avr

Sections:
Idx Name          Size      VMA       LMA       File off  Algn
  0 .data         00000008  00800100  00000f0c  00000fa0  2**0
                  CONTENTS, ALLOC, LOAD, DATA
  1 .text         00000f0c  00000000  00000000  00000094  2**1
                  CONTENTS, ALLOC, LOAD, READONLY, CODE
  2 .bss          000003c2  00800108  00800108  00000fa8  2**0
                  ALLOC
  3 .comment      00000030  00000000  00000000  00000fa8  2**0
                  CONTENTS, READONLY
  4 .debug_aranges 000000b8  00000000  00000000  00000fd8  2**0
                  CONTENTS, READONLY, DEBUGGING
  5 .debug_info   00001648  00000000  00000000  00001090  2**0
                  CONTENTS, READONLY, DEBUGGING
  6 .debug_abbrev 000002af  00000000  00000000  000026d8  2**0
                  CONTENTS, READONLY, DEBUGGING
  7 .debug_line   00000823  00000000  00000000  00002987  2**0
                  CONTENTS, READONLY, DEBUGGING
  8 .debug_frame  00000468  00000000  00000000  000031ac  2**2
                  CONTENTS, READONLY, DEBUGGING
  9 .debug_str    00000476  00000000  00000000  00003614  2**0
                  CONTENTS, READONLY, DEBUGGING
 10 .debug_loc    0000193b  00000000  00000000  00003a8a  2**0
                  CONTENTS, READONLY, DEBUGGING
 11 .debug_ranges 000000a8  00000000  00000000  000053c5  2**0
                  CONTENTS, READONLY, DEBUGGING

Disassembly of section .text:

00000000 <__vectors>:
   0:	70 c0       	rjmp	.+224    	; 0xe2 <__ctors_end>
   2:	00 00       	nop
   4:	8b c0       	rjmp	.+278    	; 0x11c <__bad_interrupt>
   6:	00 00       	nop
   8:	b0 c3       	rjmp	.+1888   	; 0x76a <__vector_2>
   a:	00 00       	nop
   c:	87 c0       	rjmp	.+270    	; 0x11c <__bad_interrupt>
   e:	00 00       	nop
  10:	85 c0       	rjmp	.+266    	; 0x11c <__bad_interrupt>
  12:	00 00       	nop
  14:	83 c0       	rjmp	.+262    	; 0x11c <__bad_interrupt>
  16:	00 00       	nop
  18:	81 c0       	rjmp	.+258    	; 0x11c <__bad_interrupt>
  1a:	00 00       	nop
  1c:	7f c0       	rjmp	.+254    	; 0x11c <__bad_interrupt>
  1e:	00 00       	nop
  20:	7d c0       	rjmp	.+250    	; 0x11c <__bad_interrupt>
  22:	00 00       	nop
  24:	7b c0       	rjmp	.+246    	; 0x11c <__bad_interrupt>
  26:	00 00       	nop
  28:	79 c0       	rjmp	.+242    	; 0x11c <__bad_interrupt>
  2a:	00 00       	nop
  2c:	77 c0       	rjmp	.+238    	; 0x11c <__bad_interrupt>
  2e:	00 00       	nop
  30:	75 c0       	rjmp	.+234    	; 0x11c <__bad_interrupt>
  32:	00 00       	nop
  34:	73 c0       	rjmp	.+230    	; 0x11c <__bad_interrupt>
  36:	00 00       	nop
  38:	71 c0       	rjmp	.+226    	; 0x11c <__bad_interrupt>
  3a:	00 00       	nop
  3c:	6f c0       	rjmp	.+222    	; 0x11c <__bad_interrupt>
  3e:	00 00       	nop
  40:	6d c0       	rjmp	.+218    	; 0x11c <__bad_interrupt>
  42:	00 00       	nop
  44:	6b c0       	rjmp	.+214    	; 0x11c <__bad_interrupt>
  46:	00 00       	nop
  48:	69 c0       	rjmp	.+210    	; 0x11c <__bad_interrupt>
  4a:	00 00       	nop
  4c:	67 c0       	rjmp	.+206    	; 0x11c <__bad_interrupt>
  4e:	00 00       	nop
  50:	65 c0       	rjmp	.+202    	; 0x11c <__bad_interrupt>
  52:	00 00       	nop
  54:	63 c0       	rjmp	.+198    	; 0x11c <__bad_interrupt>
  56:	00 00       	nop
  58:	61 c0       	rjmp	.+194    	; 0x11c <__bad_interrupt>
  5a:	00 00       	nop
  5c:	5f c0       	rjmp	.+190    	; 0x11c <__bad_interrupt>
  5e:	00 00       	nop
  60:	5d c0       	rjmp	.+186    	; 0x11c <__bad_interrupt>
  62:	00 00       	nop
  64:	5b c0       	rjmp	.+182    	; 0x11c <__bad_interrupt>
  66:	00 00       	nop
  68:	59 c0       	rjmp	.+178    	; 0x11c <__bad_interrupt>
  6a:	00 00       	nop
  6c:	57 c0       	rjmp	.+174    	; 0x11c <__bad_interrupt>
  6e:	00 00       	nop
  70:	55 c0       	rjmp	.+170    	; 0x11c <__bad_interrupt>
  72:	00 00       	nop
  74:	53 c0       	rjmp	.+166    	; 0x11c <__bad_interrupt>
  76:	00 00       	nop
  78:	51 c0       	rjmp	.+162    	; 0x11c <__bad_interrupt>
  7a:	00 00       	nop
  7c:	4f c0       	rjmp	.+158    	; 0x11c <__bad_interrupt>
  7e:	00 00       	nop
  80:	4d c0       	rjmp	.+154    	; 0x11c <__bad_interrupt>
  82:	00 00       	nop
  84:	4b c0       	rjmp	.+150    	; 0x11c <__bad_interrupt>
  86:	00 00       	nop
  88:	49 c0       	rjmp	.+146    	; 0x11c <__bad_interrupt>
  8a:	00 00       	nop
  8c:	08 4a       	sbci	r16, 0xA8	; 168
  8e:	d7 3b       	cpi	r29, 0xB7	; 183
  90:	3b ce       	rjmp	.-906    	; 0xfffffd08 <__eeprom_end+0xff7efd08>
  92:	01 6e       	ori	r16, 0xE1	; 225
  94:	84 bc       	out	0x24, r8	; 36
  96:	bf fd       	.word	0xfdbf	; ????
  98:	c1 2f       	mov	r28, r17
  9a:	3d 6c       	ori	r19, 0xCD	; 205
  9c:	74 31       	cpi	r23, 0x14	; 20
  9e:	9a bd       	out	0x2a, r25	; 42
  a0:	56 83       	std	Z+6, r21	; 0x06
  a2:	3d da       	rcall	.-2950   	; 0xfffff51e <__eeprom_end+0xff7ef51e>
  a4:	3d 00       	.word	0x003d	; ????
  a6:	c7 7f       	andi	r28, 0xF7	; 247
  a8:	11 be       	out	0x31, r1	; 49
  aa:	d9 e4       	ldi	r29, 0x49	; 73
  ac:	bb 4c       	sbci	r27, 0xCB	; 203
  ae:	3e 91       	ld	r19, -X
  b0:	6b aa       	std	Y+51, r6	; 0x33
  b2:	aa be       	out	0x3a, r10	; 58
  b4:	00 00       	nop
  b6:	00 80       	ld	r0, Z
  b8:	3f 07       	cpc	r19, r31
  ba:	2c 7a       	andi	r18, 0xAC	; 172
  bc:	a5 ba       	out	0x15, r10	; 21
  be:	6c c5       	rjmp	.+2776   	; 0xb98 <__fixunssfsi+0x40>
  c0:	90 da       	rcall	.-2784   	; 0xfffff5e2 <__eeprom_end+0xff7ef5e2>
  c2:	3b 93       	.word	0x933b	; ????
  c4:	65 fc       	sbrc	r6, 5
  c6:	8b bc       	out	0x2b, r8	; 43
  c8:	53 f8       	bld	r5, 3
  ca:	10 fd       	sbrc	r17, 0
  cc:	3c 56       	subi	r19, 0x6C	; 108
  ce:	92 83       	std	Z+2, r25	; 0x02
  d0:	4d bd       	out	0x2d, r20	; 45
  d2:	87 9d       	mul	r24, r7
  d4:	3a b6       	in	r3, 0x3a	; 58
  d6:	3d cb       	rjmp	.-2438   	; 0xfffff752 <__eeprom_end+0xff7ef752>
  d8:	c9 bf       	out	0x39, r28	; 57
  da:	5b be       	out	0x3b, r5	; 59
  dc:	73 da       	rcall	.-2842   	; 0xfffff5c4 <__eeprom_end+0xff7ef5c4>
  de:	0f c9       	rjmp	.-3554   	; 0xfffff2fe <__eeprom_end+0xff7ef2fe>
  e0:	3f 00       	.word	0x003f	; ????

000000e2 <__ctors_end>:
  e2:	11 24       	eor	r1, r1
  e4:	1f be       	out	0x3f, r1	; 63
  e6:	cf ef       	ldi	r28, 0xFF	; 255
  e8:	d0 e4       	ldi	r29, 0x40	; 64
  ea:	de bf       	out	0x3e, r29	; 62
  ec:	cd bf       	out	0x3d, r28	; 61

000000ee <__do_copy_data>:
  ee:	11 e0       	ldi	r17, 0x01	; 1
  f0:	a0 e0       	ldi	r26, 0x00	; 0
  f2:	b1 e0       	ldi	r27, 0x01	; 1
  f4:	ec e0       	ldi	r30, 0x0C	; 12
  f6:	ff e0       	ldi	r31, 0x0F	; 15
  f8:	00 e0       	ldi	r16, 0x00	; 0
  fa:	0b bf       	out	0x3b, r16	; 59
  fc:	02 c0       	rjmp	.+4      	; 0x102 <__do_copy_data+0x14>
  fe:	07 90       	elpm	r0, Z+
 100:	0d 92       	st	X+, r0
 102:	a8 30       	cpi	r26, 0x08	; 8
 104:	b1 07       	cpc	r27, r17
 106:	d9 f7       	brne	.-10     	; 0xfe <__do_copy_data+0x10>

00000108 <__do_clear_bss>:
 108:	24 e0       	ldi	r18, 0x04	; 4
 10a:	a8 e0       	ldi	r26, 0x08	; 8
 10c:	b1 e0       	ldi	r27, 0x01	; 1
 10e:	01 c0       	rjmp	.+2      	; 0x112 <.do_clear_bss_start>

00000110 <.do_clear_bss_loop>:
 110:	1d 92       	st	X+, r1

00000112 <.do_clear_bss_start>:
 112:	aa 3c       	cpi	r26, 0xCA	; 202
 114:	b2 07       	cpc	r27, r18
 116:	e1 f7       	brne	.-8      	; 0x110 <.do_clear_bss_loop>
 118:	bb d3       	rcall	.+1910   	; 0x890 <main>
 11a:	f6 c6       	rjmp	.+3564   	; 0xf08 <_exit>

0000011c <__bad_interrupt>:
 11c:	71 cf       	rjmp	.-286    	; 0x0 <__vectors>

0000011e <initUSART>:
		
        
        
        
    }
}
 11e:	84 e0       	ldi	r24, 0x04	; 4
 120:	8a b9       	out	0x0a, r24	; 10
 122:	1b b8       	out	0x0b, r1	; 11
 124:	10 92 c5 00 	sts	0x00C5, r1
 128:	10 92 c4 00 	sts	0x00C4, r1
 12c:	88 e1       	ldi	r24, 0x18	; 24
 12e:	80 93 c1 00 	sts	0x00C1, r24
 132:	86 e0       	ldi	r24, 0x06	; 6
 134:	80 93 c2 00 	sts	0x00C2, r24
 138:	08 95       	ret

0000013a <USARTWriteChar>:
 13a:	e0 ec       	ldi	r30, 0xC0	; 192
 13c:	f0 e0       	ldi	r31, 0x00	; 0
 13e:	90 81       	ld	r25, Z
 140:	95 ff       	sbrs	r25, 5
 142:	fd cf       	rjmp	.-6      	; 0x13e <USARTWriteChar+0x4>
 144:	80 93 c6 00 	sts	0x00C6, r24
 148:	08 95       	ret

0000014a <USARTSendInstruction5>:
 14a:	cf 92       	push	r12
 14c:	ef 92       	push	r14
 14e:	ff 92       	push	r15
 150:	0f 93       	push	r16
 152:	1f 93       	push	r17
 154:	cf 93       	push	r28
 156:	df 93       	push	r29
 158:	c8 2f       	mov	r28, r24
 15a:	d6 2f       	mov	r29, r22
 15c:	14 2f       	mov	r17, r20
 15e:	f2 2e       	mov	r15, r18
 160:	84 e0       	ldi	r24, 0x04	; 4
 162:	8b b9       	out	0x0b, r24	; 11
 164:	e0 ec       	ldi	r30, 0xC0	; 192
 166:	f0 e0       	ldi	r31, 0x00	; 0
 168:	80 81       	ld	r24, Z
 16a:	80 83       	st	Z, r24
 16c:	8f ef       	ldi	r24, 0xFF	; 255
 16e:	e5 df       	rcall	.-54     	; 0x13a <USARTWriteChar>
 170:	8f ef       	ldi	r24, 0xFF	; 255
 172:	e3 df       	rcall	.-58     	; 0x13a <USARTWriteChar>
 174:	8c 2f       	mov	r24, r28
 176:	e1 df       	rcall	.-62     	; 0x13a <USARTWriteChar>
 178:	87 e0       	ldi	r24, 0x07	; 7
 17a:	df df       	rcall	.-66     	; 0x13a <USARTWriteChar>
 17c:	8d 2f       	mov	r24, r29
 17e:	dd df       	rcall	.-70     	; 0x13a <USARTWriteChar>
 180:	81 2f       	mov	r24, r17
 182:	db df       	rcall	.-74     	; 0x13a <USARTWriteChar>
 184:	8f 2d       	mov	r24, r15
 186:	d9 df       	rcall	.-78     	; 0x13a <USARTWriteChar>
 188:	80 2f       	mov	r24, r16
 18a:	d7 df       	rcall	.-82     	; 0x13a <USARTWriteChar>
 18c:	8e 2d       	mov	r24, r14
 18e:	d5 df       	rcall	.-86     	; 0x13a <USARTWriteChar>
 190:	8c 2d       	mov	r24, r12
 192:	d3 df       	rcall	.-90     	; 0x13a <USARTWriteChar>
 194:	f8 94       	cli
 196:	87 e0       	ldi	r24, 0x07	; 7
 198:	8c 0d       	add	r24, r12
 19a:	e8 0e       	add	r14, r24
 19c:	0e 0d       	add	r16, r14
 19e:	f0 0e       	add	r15, r16
 1a0:	1f 0d       	add	r17, r15
 1a2:	d1 0f       	add	r29, r17
 1a4:	8d 2f       	mov	r24, r29
 1a6:	8c 0f       	add	r24, r28
 1a8:	80 95       	com	r24
 1aa:	c7 df       	rcall	.-114    	; 0x13a <USARTWriteChar>
 1ac:	e0 ec       	ldi	r30, 0xC0	; 192
 1ae:	f0 e0       	ldi	r31, 0x00	; 0
 1b0:	80 81       	ld	r24, Z
 1b2:	86 ff       	sbrs	r24, 6
 1b4:	fd cf       	rjmp	.-6      	; 0x1b0 <USARTSendInstruction5+0x66>
 1b6:	1b b8       	out	0x0b, r1	; 11
 1b8:	78 94       	sei
 1ba:	df 91       	pop	r29
 1bc:	cf 91       	pop	r28
 1be:	1f 91       	pop	r17
 1c0:	0f 91       	pop	r16
 1c2:	ff 90       	pop	r15
 1c4:	ef 90       	pop	r14
 1c6:	cf 90       	pop	r12
 1c8:	08 95       	ret

000001ca <USARTReadChar>:
 1ca:	e0 ec       	ldi	r30, 0xC0	; 192
 1cc:	f0 e0       	ldi	r31, 0x00	; 0
 1ce:	80 81       	ld	r24, Z
 1d0:	88 23       	and	r24, r24
 1d2:	ec f7       	brge	.-6      	; 0x1ce <USARTReadChar+0x4>
 1d4:	80 91 c6 00 	lds	r24, 0x00C6
 1d8:	08 95       	ret

000001da <USARTReadStatusPacket>:
 1da:	ff 92       	push	r15
 1dc:	0f 93       	push	r16
 1de:	1f 93       	push	r17
 1e0:	cf 93       	push	r28
 1e2:	df 93       	push	r29
 1e4:	f2 df       	rcall	.-28     	; 0x1ca <USARTReadChar>
 1e6:	f1 df       	rcall	.-30     	; 0x1ca <USARTReadChar>
 1e8:	f0 df       	rcall	.-32     	; 0x1ca <USARTReadChar>
 1ea:	ef df       	rcall	.-34     	; 0x1ca <USARTReadChar>
 1ec:	f8 2e       	mov	r15, r24
 1ee:	ed df       	rcall	.-38     	; 0x1ca <USARTReadChar>
 1f0:	82 e0       	ldi	r24, 0x02	; 2
 1f2:	8f 15       	cp	r24, r15
 1f4:	a8 f4       	brcc	.+42     	; 0x220 <USARTReadStatusPacket+0x46>
 1f6:	c0 e0       	ldi	r28, 0x00	; 0
 1f8:	d0 e0       	ldi	r29, 0x00	; 0
 1fa:	00 e0       	ldi	r16, 0x00	; 0
 1fc:	10 e0       	ldi	r17, 0x00	; 0
 1fe:	e5 df       	rcall	.-54     	; 0x1ca <USARTReadChar>
 200:	28 2f       	mov	r18, r24
 202:	30 e0       	ldi	r19, 0x00	; 0
 204:	0c 2e       	mov	r0, r28
 206:	02 c0       	rjmp	.+4      	; 0x20c <USARTReadStatusPacket+0x32>
 208:	22 0f       	add	r18, r18
 20a:	33 1f       	adc	r19, r19
 20c:	0a 94       	dec	r0
 20e:	e2 f7       	brpl	.-8      	; 0x208 <USARTReadStatusPacket+0x2e>
 210:	02 0f       	add	r16, r18
 212:	13 1f       	adc	r17, r19
 214:	fa 94       	dec	r15
 216:	28 96       	adiw	r28, 0x08	; 8
 218:	82 e0       	ldi	r24, 0x02	; 2
 21a:	f8 12       	cpse	r15, r24
 21c:	f0 cf       	rjmp	.-32     	; 0x1fe <USARTReadStatusPacket+0x24>
 21e:	02 c0       	rjmp	.+4      	; 0x224 <USARTReadStatusPacket+0x4a>
 220:	00 e0       	ldi	r16, 0x00	; 0
 222:	10 e0       	ldi	r17, 0x00	; 0
 224:	d2 df       	rcall	.-92     	; 0x1ca <USARTReadChar>
 226:	c8 01       	movw	r24, r16
 228:	df 91       	pop	r29
 22a:	cf 91       	pop	r28
 22c:	1f 91       	pop	r17
 22e:	0f 91       	pop	r16
 230:	ff 90       	pop	r15
 232:	08 95       	ret

00000234 <MoveDynamixel>:
 234:	4f 92       	push	r4
 236:	5f 92       	push	r5
 238:	6f 92       	push	r6
 23a:	7f 92       	push	r7
 23c:	8f 92       	push	r8
 23e:	9f 92       	push	r9
 240:	af 92       	push	r10
 242:	bf 92       	push	r11
 244:	cf 92       	push	r12
 246:	df 92       	push	r13
 248:	ef 92       	push	r14
 24a:	ff 92       	push	r15
 24c:	0f 93       	push	r16
 24e:	1f 93       	push	r17
 250:	cf 93       	push	r28
 252:	df 93       	push	r29
 254:	ec 01       	movw	r28, r24
 256:	68 01       	movw	r12, r16
 258:	79 01       	movw	r14, r18
 25a:	4d 32       	cpi	r20, 0x2D	; 45
 25c:	81 e0       	ldi	r24, 0x01	; 1
 25e:	58 07       	cpc	r21, r24
 260:	61 05       	cpc	r22, r1
 262:	71 05       	cpc	r23, r1
 264:	c0 f5       	brcc	.+112    	; 0x2d6 <MoveDynamixel+0xa2>
 266:	af ef       	ldi	r26, 0xFF	; 255
 268:	b3 e0       	ldi	r27, 0x03	; 3
 26a:	9a 01       	movw	r18, r20
 26c:	ab 01       	movw	r20, r22
 26e:	11 d6       	rcall	.+3106   	; 0xe92 <__muluhisi3>
 270:	2c e2       	ldi	r18, 0x2C	; 44
 272:	31 e0       	ldi	r19, 0x01	; 1
 274:	40 e0       	ldi	r20, 0x00	; 0
 276:	50 e0       	ldi	r21, 0x00	; 0
 278:	f0 d5       	rcall	.+3040   	; 0xe5a <__divmodsi4>
 27a:	49 01       	movw	r8, r18
 27c:	5a 01       	movw	r10, r20
 27e:	99 24       	eor	r9, r9
 280:	aa 24       	eor	r10, r10
 282:	bb 24       	eor	r11, r11
 284:	43 2e       	mov	r4, r19
 286:	51 2c       	mov	r5, r1
 288:	82 e7       	ldi	r24, 0x72	; 114
 28a:	c8 16       	cp	r12, r24
 28c:	d1 04       	cpc	r13, r1
 28e:	e1 04       	cpc	r14, r1
 290:	f1 04       	cpc	r15, r1
 292:	94 f4       	brge	.+36     	; 0x2b8 <MoveDynamixel+0x84>
 294:	af ef       	ldi	r26, 0xFF	; 255
 296:	b3 e0       	ldi	r27, 0x03	; 3
 298:	a7 01       	movw	r20, r14
 29a:	96 01       	movw	r18, r12
 29c:	fa d5       	rcall	.+3060   	; 0xe92 <__muluhisi3>
 29e:	22 e7       	ldi	r18, 0x72	; 114
 2a0:	30 e0       	ldi	r19, 0x00	; 0
 2a2:	40 e0       	ldi	r20, 0x00	; 0
 2a4:	50 e0       	ldi	r21, 0x00	; 0
 2a6:	d9 d5       	rcall	.+2994   	; 0xe5a <__divmodsi4>
 2a8:	79 01       	movw	r14, r18
 2aa:	8a 01       	movw	r16, r20
 2ac:	ff 24       	eor	r15, r15
 2ae:	00 27       	eor	r16, r16
 2b0:	11 27       	eor	r17, r17
 2b2:	43 2f       	mov	r20, r19
 2b4:	50 e0       	ldi	r21, 0x00	; 0
 2b6:	06 c0       	rjmp	.+12     	; 0x2c4 <MoveDynamixel+0x90>
 2b8:	40 e0       	ldi	r20, 0x00	; 0
 2ba:	50 e0       	ldi	r21, 0x00	; 0
 2bc:	ba 01       	movw	r22, r20
 2be:	e1 2c       	mov	r14, r1
 2c0:	f1 2c       	mov	r15, r1
 2c2:	87 01       	movw	r16, r14
 2c4:	6a 01       	movw	r12, r20
 2c6:	82 01       	movw	r16, r4
 2c8:	94 01       	movw	r18, r8
 2ca:	4e e1       	ldi	r20, 0x1E	; 30
 2cc:	50 e0       	ldi	r21, 0x00	; 0
 2ce:	63 e0       	ldi	r22, 0x03	; 3
 2d0:	70 e0       	ldi	r23, 0x00	; 0
 2d2:	ce 01       	movw	r24, r28
 2d4:	3a df       	rcall	.-396    	; 0x14a <USARTSendInstruction5>
 2d6:	df 91       	pop	r29
 2d8:	cf 91       	pop	r28
 2da:	1f 91       	pop	r17
 2dc:	0f 91       	pop	r16
 2de:	ff 90       	pop	r15
 2e0:	ef 90       	pop	r14
 2e2:	df 90       	pop	r13
 2e4:	cf 90       	pop	r12
 2e6:	bf 90       	pop	r11
 2e8:	af 90       	pop	r10
 2ea:	9f 90       	pop	r9
 2ec:	8f 90       	pop	r8
 2ee:	7f 90       	pop	r7
 2f0:	6f 90       	pop	r6
 2f2:	5f 90       	pop	r5
 2f4:	4f 90       	pop	r4
 2f6:	08 95       	ret

000002f8 <MoveFrontLeftLeg>:
 2f8:	4f 92       	push	r4
 2fa:	5f 92       	push	r5
 2fc:	6f 92       	push	r6
 2fe:	7f 92       	push	r7
 300:	8f 92       	push	r8
 302:	9f 92       	push	r9
 304:	af 92       	push	r10
 306:	bf 92       	push	r11
 308:	cf 92       	push	r12
 30a:	df 92       	push	r13
 30c:	ef 92       	push	r14
 30e:	ff 92       	push	r15
 310:	0f 93       	push	r16
 312:	1f 93       	push	r17
 314:	cf 93       	push	r28
 316:	df 93       	push	r29
 318:	cd b7       	in	r28, 0x3d	; 61
 31a:	de b7       	in	r29, 0x3e	; 62
 31c:	60 97       	sbiw	r28, 0x10	; 16
 31e:	0f b6       	in	r0, 0x3f	; 63
 320:	f8 94       	cli
 322:	de bf       	out	0x3e, r29	; 62
 324:	0f be       	out	0x3f, r0	; 63
 326:	cd bf       	out	0x3d, r28	; 61
 328:	2b 01       	movw	r4, r22
 32a:	3c 01       	movw	r6, r24
 32c:	49 01       	movw	r8, r18
 32e:	5a 01       	movw	r10, r20
 330:	e9 82       	std	Y+1, r14	; 0x01
 332:	fa 82       	std	Y+2, r15	; 0x02
 334:	0b 83       	std	Y+3, r16	; 0x03
 336:	1c 83       	std	Y+4, r17	; 0x04
 338:	86 01       	movw	r16, r12
 33a:	90 58       	subi	r25, 0x80	; 128
 33c:	4d d3       	rcall	.+1690   	; 0x9d8 <atan2>
 33e:	6d 87       	std	Y+13, r22	; 0x0d
 340:	7e 87       	std	Y+14, r23	; 0x0e
 342:	8f 87       	std	Y+15, r24	; 0x0f
 344:	98 8b       	std	Y+16, r25	; 0x10
 346:	29 81       	ldd	r18, Y+1	; 0x01
 348:	3a 81       	ldd	r19, Y+2	; 0x02
 34a:	4b 81       	ldd	r20, Y+3	; 0x03
 34c:	5c 81       	ldd	r21, Y+4	; 0x04
 34e:	ca 01       	movw	r24, r20
 350:	b9 01       	movw	r22, r18
 352:	c6 d4       	rcall	.+2444   	; 0xce0 <__mulsf3>
 354:	6b 01       	movw	r12, r22
 356:	7c 01       	movw	r14, r24
 358:	a3 01       	movw	r20, r6
 35a:	92 01       	movw	r18, r4
 35c:	c3 01       	movw	r24, r6
 35e:	b2 01       	movw	r22, r4
 360:	bf d4       	rcall	.+2430   	; 0xce0 <__mulsf3>
 362:	2b 01       	movw	r4, r22
 364:	3c 01       	movw	r6, r24
 366:	a5 01       	movw	r20, r10
 368:	94 01       	movw	r18, r8
 36a:	c5 01       	movw	r24, r10
 36c:	b4 01       	movw	r22, r8
 36e:	b8 d4       	rcall	.+2416   	; 0xce0 <__mulsf3>
 370:	9b 01       	movw	r18, r22
 372:	ac 01       	movw	r20, r24
 374:	c3 01       	movw	r24, r6
 376:	b2 01       	movw	r22, r4
 378:	bc d2       	rcall	.+1400   	; 0x8f2 <__addsf3>
 37a:	2b 01       	movw	r4, r22
 37c:	3c 01       	movw	r6, r24
 37e:	17 d5       	rcall	.+2606   	; 0xdae <sqrt>
 380:	20 e0       	ldi	r18, 0x00	; 0
 382:	30 e0       	ldi	r19, 0x00	; 0
 384:	48 e4       	ldi	r20, 0x48	; 72
 386:	52 e4       	ldi	r21, 0x42	; 66
 388:	b3 d2       	rcall	.+1382   	; 0x8f0 <__subsf3>
 38a:	4b 01       	movw	r8, r22
 38c:	5c 01       	movw	r10, r24
 38e:	9b 01       	movw	r18, r22
 390:	ac 01       	movw	r20, r24
 392:	a6 d4       	rcall	.+2380   	; 0xce0 <__mulsf3>
 394:	6d 83       	std	Y+5, r22	; 0x05
 396:	7e 83       	std	Y+6, r23	; 0x06
 398:	8f 83       	std	Y+7, r24	; 0x07
 39a:	98 87       	std	Y+8, r25	; 0x08
 39c:	9b 01       	movw	r18, r22
 39e:	ac 01       	movw	r20, r24
 3a0:	c7 01       	movw	r24, r14
 3a2:	b6 01       	movw	r22, r12
 3a4:	a6 d2       	rcall	.+1356   	; 0x8f2 <__addsf3>
 3a6:	69 87       	std	Y+9, r22	; 0x09
 3a8:	7a 87       	std	Y+10, r23	; 0x0a
 3aa:	8b 87       	std	Y+11, r24	; 0x0b
 3ac:	9c 87       	std	Y+12, r25	; 0x0c
 3ae:	ff d4       	rcall	.+2558   	; 0xdae <sqrt>
 3b0:	9b 01       	movw	r18, r22
 3b2:	ac 01       	movw	r20, r24
 3b4:	69 81       	ldd	r22, Y+1	; 0x01
 3b6:	7a 81       	ldd	r23, Y+2	; 0x02
 3b8:	8b 81       	ldd	r24, Y+3	; 0x03
 3ba:	9c 81       	ldd	r25, Y+4	; 0x04
 3bc:	90 58       	subi	r25, 0x80	; 128
 3be:	5f d3       	rcall	.+1726   	; 0xa7e <__divsf3>
 3c0:	89 d2       	rcall	.+1298   	; 0x8d4 <acos>
 3c2:	69 83       	std	Y+1, r22	; 0x01
 3c4:	7a 83       	std	Y+2, r23	; 0x02
 3c6:	8b 83       	std	Y+3, r24	; 0x03
 3c8:	9c 83       	std	Y+4, r25	; 0x04
 3ca:	20 e0       	ldi	r18, 0x00	; 0
 3cc:	30 e0       	ldi	r19, 0x00	; 0
 3ce:	48 e4       	ldi	r20, 0x48	; 72
 3d0:	52 e4       	ldi	r21, 0x42	; 66
 3d2:	c3 01       	movw	r24, r6
 3d4:	b2 01       	movw	r22, r4
 3d6:	8c d2       	rcall	.+1304   	; 0x8f0 <__subsf3>
 3d8:	ea d4       	rcall	.+2516   	; 0xdae <sqrt>
 3da:	9b 01       	movw	r18, r22
 3dc:	ac 01       	movw	r20, r24
 3de:	c5 01       	movw	r24, r10
 3e0:	b4 01       	movw	r22, r8
 3e2:	7e d4       	rcall	.+2300   	; 0xce0 <__mulsf3>
 3e4:	9b 01       	movw	r18, r22
 3e6:	ac 01       	movw	r20, r24
 3e8:	c7 01       	movw	r24, r14
 3ea:	b6 01       	movw	r22, r12
 3ec:	82 d2       	rcall	.+1284   	; 0x8f2 <__addsf3>
 3ee:	df d4       	rcall	.+2494   	; 0xdae <sqrt>
 3f0:	2b 01       	movw	r4, r22
 3f2:	3c 01       	movw	r6, r24
 3f4:	20 e0       	ldi	r18, 0x00	; 0
 3f6:	38 e4       	ldi	r19, 0x48	; 72
 3f8:	4c e8       	ldi	r20, 0x8C	; 140
 3fa:	55 e4       	ldi	r21, 0x45	; 69
 3fc:	69 85       	ldd	r22, Y+9	; 0x09
 3fe:	7a 85       	ldd	r23, Y+10	; 0x0a
 400:	8b 85       	ldd	r24, Y+11	; 0x0b
 402:	9c 85       	ldd	r25, Y+12	; 0x0c
 404:	76 d2       	rcall	.+1260   	; 0x8f2 <__addsf3>
 406:	20 e0       	ldi	r18, 0x00	; 0
 408:	38 e0       	ldi	r19, 0x08	; 8
 40a:	44 e8       	ldi	r20, 0x84	; 132
 40c:	56 e4       	ldi	r21, 0x46	; 70
 40e:	70 d2       	rcall	.+1248   	; 0x8f0 <__subsf3>
 410:	4b 01       	movw	r8, r22
 412:	5c 01       	movw	r10, r24
 414:	a3 01       	movw	r20, r6
 416:	92 01       	movw	r18, r4
 418:	c3 01       	movw	r24, r6
 41a:	b2 01       	movw	r22, r4
 41c:	6a d2       	rcall	.+1236   	; 0x8f2 <__addsf3>
 41e:	20 e0       	ldi	r18, 0x00	; 0
 420:	30 e0       	ldi	r19, 0x00	; 0
 422:	46 e8       	ldi	r20, 0x86	; 134
 424:	52 e4       	ldi	r21, 0x42	; 66
 426:	5c d4       	rcall	.+2232   	; 0xce0 <__mulsf3>
 428:	9b 01       	movw	r18, r22
 42a:	ac 01       	movw	r20, r24
 42c:	c5 01       	movw	r24, r10
 42e:	b4 01       	movw	r22, r8
 430:	26 d3       	rcall	.+1612   	; 0xa7e <__divsf3>
 432:	50 d2       	rcall	.+1184   	; 0x8d4 <acos>
 434:	2b 01       	movw	r4, r22
 436:	3c 01       	movw	r6, r24
 438:	a7 01       	movw	r20, r14
 43a:	96 01       	movw	r18, r12
 43c:	60 e0       	ldi	r22, 0x00	; 0
 43e:	7a e1       	ldi	r23, 0x1A	; 26
 440:	87 ea       	ldi	r24, 0xA7	; 167
 442:	96 e4       	ldi	r25, 0x46	; 70
 444:	55 d2       	rcall	.+1194   	; 0x8f0 <__subsf3>
 446:	2d 81       	ldd	r18, Y+5	; 0x05
 448:	3e 81       	ldd	r19, Y+6	; 0x06
 44a:	4f 81       	ldd	r20, Y+7	; 0x07
 44c:	58 85       	ldd	r21, Y+8	; 0x08
 44e:	50 d2       	rcall	.+1184   	; 0x8f0 <__subsf3>
 450:	20 e0       	ldi	r18, 0x00	; 0
 452:	38 e1       	ldi	r19, 0x18	; 24
 454:	48 e8       	ldi	r20, 0x88	; 136
 456:	56 e4       	ldi	r21, 0x46	; 70
 458:	12 d3       	rcall	.+1572   	; 0xa7e <__divsf3>
 45a:	3c d2       	rcall	.+1144   	; 0x8d4 <acos>
 45c:	4b 01       	movw	r8, r22
 45e:	5c 01       	movw	r10, r24
 460:	68 01       	movw	r12, r16
 462:	ee 24       	eor	r14, r14
 464:	d7 fc       	sbrc	r13, 7
 466:	e0 94       	com	r14
 468:	fe 2c       	mov	r15, r14
 46a:	20 e0       	ldi	r18, 0x00	; 0
 46c:	30 e0       	ldi	r19, 0x00	; 0
 46e:	44 e3       	ldi	r20, 0x34	; 52
 470:	53 e4       	ldi	r21, 0x43	; 67
 472:	6d 85       	ldd	r22, Y+13	; 0x0d
 474:	7e 85       	ldd	r23, Y+14	; 0x0e
 476:	8f 85       	ldd	r24, Y+15	; 0x0f
 478:	98 89       	ldd	r25, Y+16	; 0x10
 47a:	32 d4       	rcall	.+2148   	; 0xce0 <__mulsf3>
 47c:	28 ed       	ldi	r18, 0xD8	; 216
 47e:	3f e0       	ldi	r19, 0x0F	; 15
 480:	49 e4       	ldi	r20, 0x49	; 73
 482:	50 e4       	ldi	r21, 0x40	; 64
 484:	fc d2       	rcall	.+1528   	; 0xa7e <__divsf3>
 486:	63 d3       	rcall	.+1734   	; 0xb4e <__fixsfsi>
 488:	ab 01       	movw	r20, r22
 48a:	bc 01       	movw	r22, r24
 48c:	47 59       	subi	r20, 0x97	; 151
 48e:	5f 4f       	sbci	r21, 0xFF	; 255
 490:	6f 4f       	sbci	r22, 0xFF	; 255
 492:	7f 4f       	sbci	r23, 0xFF	; 255
 494:	97 01       	movw	r18, r14
 496:	86 01       	movw	r16, r12
 498:	82 e0       	ldi	r24, 0x02	; 2
 49a:	90 e0       	ldi	r25, 0x00	; 0
 49c:	cb de       	rcall	.-618    	; 0x234 <MoveDynamixel>
 49e:	9d de       	rcall	.-710    	; 0x1da <USARTReadStatusPacket>
 4a0:	a3 01       	movw	r20, r6
 4a2:	92 01       	movw	r18, r4
 4a4:	69 81       	ldd	r22, Y+1	; 0x01
 4a6:	7a 81       	ldd	r23, Y+2	; 0x02
 4a8:	8b 81       	ldd	r24, Y+3	; 0x03
 4aa:	9c 81       	ldd	r25, Y+4	; 0x04
 4ac:	22 d2       	rcall	.+1092   	; 0x8f2 <__addsf3>
 4ae:	24 ee       	ldi	r18, 0xE4	; 228
 4b0:	3e e2       	ldi	r19, 0x2E	; 46
 4b2:	45 e6       	ldi	r20, 0x65	; 101
 4b4:	52 e4       	ldi	r21, 0x42	; 66
 4b6:	14 d4       	rcall	.+2088   	; 0xce0 <__mulsf3>
 4b8:	4a d3       	rcall	.+1684   	; 0xb4e <__fixsfsi>
 4ba:	ab 01       	movw	r20, r22
 4bc:	bc 01       	movw	r22, r24
 4be:	44 5c       	subi	r20, 0xC4	; 196
 4c0:	5f 4f       	sbci	r21, 0xFF	; 255
 4c2:	6f 4f       	sbci	r22, 0xFF	; 255
 4c4:	7f 4f       	sbci	r23, 0xFF	; 255
 4c6:	97 01       	movw	r18, r14
 4c8:	86 01       	movw	r16, r12
 4ca:	84 e0       	ldi	r24, 0x04	; 4
 4cc:	90 e0       	ldi	r25, 0x00	; 0
 4ce:	b2 de       	rcall	.-668    	; 0x234 <MoveDynamixel>
 4d0:	84 de       	rcall	.-760    	; 0x1da <USARTReadStatusPacket>
 4d2:	20 e0       	ldi	r18, 0x00	; 0
 4d4:	30 e0       	ldi	r19, 0x00	; 0
 4d6:	44 e3       	ldi	r20, 0x34	; 52
 4d8:	53 e4       	ldi	r21, 0x43	; 67
 4da:	c5 01       	movw	r24, r10
 4dc:	b4 01       	movw	r22, r8
 4de:	00 d4       	rcall	.+2048   	; 0xce0 <__mulsf3>
 4e0:	28 ed       	ldi	r18, 0xD8	; 216
 4e2:	3f e0       	ldi	r19, 0x0F	; 15
 4e4:	49 e4       	ldi	r20, 0x49	; 73
 4e6:	50 e4       	ldi	r21, 0x40	; 64
 4e8:	ca d2       	rcall	.+1428   	; 0xa7e <__divsf3>
 4ea:	31 d3       	rcall	.+1634   	; 0xb4e <__fixsfsi>
 4ec:	ab 01       	movw	r20, r22
 4ee:	bc 01       	movw	r22, r24
 4f0:	4f 5f       	subi	r20, 0xFF	; 255
 4f2:	5f 4f       	sbci	r21, 0xFF	; 255
 4f4:	6f 4f       	sbci	r22, 0xFF	; 255
 4f6:	7f 4f       	sbci	r23, 0xFF	; 255
 4f8:	97 01       	movw	r18, r14
 4fa:	86 01       	movw	r16, r12
 4fc:	86 e0       	ldi	r24, 0x06	; 6
 4fe:	90 e0       	ldi	r25, 0x00	; 0
 500:	99 de       	rcall	.-718    	; 0x234 <MoveDynamixel>
 502:	6b de       	rcall	.-810    	; 0x1da <USARTReadStatusPacket>
 504:	60 96       	adiw	r28, 0x10	; 16
 506:	0f b6       	in	r0, 0x3f	; 63
 508:	f8 94       	cli
 50a:	de bf       	out	0x3e, r29	; 62
 50c:	0f be       	out	0x3f, r0	; 63
 50e:	cd bf       	out	0x3d, r28	; 61
 510:	df 91       	pop	r29
 512:	cf 91       	pop	r28
 514:	1f 91       	pop	r17
 516:	0f 91       	pop	r16
 518:	ff 90       	pop	r15
 51a:	ef 90       	pop	r14
 51c:	df 90       	pop	r13
 51e:	cf 90       	pop	r12
 520:	bf 90       	pop	r11
 522:	af 90       	pop	r10
 524:	9f 90       	pop	r9
 526:	8f 90       	pop	r8
 528:	7f 90       	pop	r7
 52a:	6f 90       	pop	r6
 52c:	5f 90       	pop	r5
 52e:	4f 90       	pop	r4
 530:	08 95       	ret

00000532 <MoveFrontRightLeg>:
 532:	4f 92       	push	r4
 534:	5f 92       	push	r5
 536:	6f 92       	push	r6
 538:	7f 92       	push	r7
 53a:	8f 92       	push	r8
 53c:	9f 92       	push	r9
 53e:	af 92       	push	r10
 540:	bf 92       	push	r11
 542:	cf 92       	push	r12
 544:	df 92       	push	r13
 546:	ef 92       	push	r14
 548:	ff 92       	push	r15
 54a:	0f 93       	push	r16
 54c:	1f 93       	push	r17
 54e:	cf 93       	push	r28
 550:	df 93       	push	r29
 552:	cd b7       	in	r28, 0x3d	; 61
 554:	de b7       	in	r29, 0x3e	; 62
 556:	60 97       	sbiw	r28, 0x10	; 16
 558:	0f b6       	in	r0, 0x3f	; 63
 55a:	f8 94       	cli
 55c:	de bf       	out	0x3e, r29	; 62
 55e:	0f be       	out	0x3f, r0	; 63
 560:	cd bf       	out	0x3d, r28	; 61
 562:	2b 01       	movw	r4, r22
 564:	3c 01       	movw	r6, r24
 566:	49 01       	movw	r8, r18
 568:	5a 01       	movw	r10, r20
 56a:	e9 82       	std	Y+1, r14	; 0x01
 56c:	fa 82       	std	Y+2, r15	; 0x02
 56e:	0b 83       	std	Y+3, r16	; 0x03
 570:	1c 83       	std	Y+4, r17	; 0x04
 572:	86 01       	movw	r16, r12
 574:	31 d2       	rcall	.+1122   	; 0x9d8 <atan2>
 576:	6d 87       	std	Y+13, r22	; 0x0d
 578:	7e 87       	std	Y+14, r23	; 0x0e
 57a:	8f 87       	std	Y+15, r24	; 0x0f
 57c:	98 8b       	std	Y+16, r25	; 0x10
 57e:	29 81       	ldd	r18, Y+1	; 0x01
 580:	3a 81       	ldd	r19, Y+2	; 0x02
 582:	4b 81       	ldd	r20, Y+3	; 0x03
 584:	5c 81       	ldd	r21, Y+4	; 0x04
 586:	ca 01       	movw	r24, r20
 588:	b9 01       	movw	r22, r18
 58a:	aa d3       	rcall	.+1876   	; 0xce0 <__mulsf3>
 58c:	6b 01       	movw	r12, r22
 58e:	7c 01       	movw	r14, r24
 590:	a3 01       	movw	r20, r6
 592:	92 01       	movw	r18, r4
 594:	c3 01       	movw	r24, r6
 596:	b2 01       	movw	r22, r4
 598:	a3 d3       	rcall	.+1862   	; 0xce0 <__mulsf3>
 59a:	2b 01       	movw	r4, r22
 59c:	3c 01       	movw	r6, r24
 59e:	a5 01       	movw	r20, r10
 5a0:	94 01       	movw	r18, r8
 5a2:	c5 01       	movw	r24, r10
 5a4:	b4 01       	movw	r22, r8
 5a6:	9c d3       	rcall	.+1848   	; 0xce0 <__mulsf3>
 5a8:	9b 01       	movw	r18, r22
 5aa:	ac 01       	movw	r20, r24
 5ac:	c3 01       	movw	r24, r6
 5ae:	b2 01       	movw	r22, r4
 5b0:	a0 d1       	rcall	.+832    	; 0x8f2 <__addsf3>
 5b2:	2b 01       	movw	r4, r22
 5b4:	3c 01       	movw	r6, r24
 5b6:	fb d3       	rcall	.+2038   	; 0xdae <sqrt>
 5b8:	20 e0       	ldi	r18, 0x00	; 0
 5ba:	30 e0       	ldi	r19, 0x00	; 0
 5bc:	48 e4       	ldi	r20, 0x48	; 72
 5be:	52 e4       	ldi	r21, 0x42	; 66
 5c0:	97 d1       	rcall	.+814    	; 0x8f0 <__subsf3>
 5c2:	4b 01       	movw	r8, r22
 5c4:	5c 01       	movw	r10, r24
 5c6:	9b 01       	movw	r18, r22
 5c8:	ac 01       	movw	r20, r24
 5ca:	8a d3       	rcall	.+1812   	; 0xce0 <__mulsf3>
 5cc:	6d 83       	std	Y+5, r22	; 0x05
 5ce:	7e 83       	std	Y+6, r23	; 0x06
 5d0:	8f 83       	std	Y+7, r24	; 0x07
 5d2:	98 87       	std	Y+8, r25	; 0x08
 5d4:	9b 01       	movw	r18, r22
 5d6:	ac 01       	movw	r20, r24
 5d8:	c7 01       	movw	r24, r14
 5da:	b6 01       	movw	r22, r12
 5dc:	8a d1       	rcall	.+788    	; 0x8f2 <__addsf3>
 5de:	69 87       	std	Y+9, r22	; 0x09
 5e0:	7a 87       	std	Y+10, r23	; 0x0a
 5e2:	8b 87       	std	Y+11, r24	; 0x0b
 5e4:	9c 87       	std	Y+12, r25	; 0x0c
 5e6:	e3 d3       	rcall	.+1990   	; 0xdae <sqrt>
 5e8:	9b 01       	movw	r18, r22
 5ea:	ac 01       	movw	r20, r24
 5ec:	69 81       	ldd	r22, Y+1	; 0x01
 5ee:	7a 81       	ldd	r23, Y+2	; 0x02
 5f0:	8b 81       	ldd	r24, Y+3	; 0x03
 5f2:	9c 81       	ldd	r25, Y+4	; 0x04
 5f4:	90 58       	subi	r25, 0x80	; 128
 5f6:	43 d2       	rcall	.+1158   	; 0xa7e <__divsf3>
 5f8:	6d d1       	rcall	.+730    	; 0x8d4 <acos>
 5fa:	69 83       	std	Y+1, r22	; 0x01
 5fc:	7a 83       	std	Y+2, r23	; 0x02
 5fe:	8b 83       	std	Y+3, r24	; 0x03
 600:	9c 83       	std	Y+4, r25	; 0x04
 602:	20 e0       	ldi	r18, 0x00	; 0
 604:	30 e0       	ldi	r19, 0x00	; 0
 606:	48 e4       	ldi	r20, 0x48	; 72
 608:	52 e4       	ldi	r21, 0x42	; 66
 60a:	c3 01       	movw	r24, r6
 60c:	b2 01       	movw	r22, r4
 60e:	70 d1       	rcall	.+736    	; 0x8f0 <__subsf3>
 610:	ce d3       	rcall	.+1948   	; 0xdae <sqrt>
 612:	9b 01       	movw	r18, r22
 614:	ac 01       	movw	r20, r24
 616:	c5 01       	movw	r24, r10
 618:	b4 01       	movw	r22, r8
 61a:	62 d3       	rcall	.+1732   	; 0xce0 <__mulsf3>
 61c:	9b 01       	movw	r18, r22
 61e:	ac 01       	movw	r20, r24
 620:	c7 01       	movw	r24, r14
 622:	b6 01       	movw	r22, r12
 624:	66 d1       	rcall	.+716    	; 0x8f2 <__addsf3>
 626:	c3 d3       	rcall	.+1926   	; 0xdae <sqrt>
 628:	2b 01       	movw	r4, r22
 62a:	3c 01       	movw	r6, r24
 62c:	20 e0       	ldi	r18, 0x00	; 0
 62e:	38 e4       	ldi	r19, 0x48	; 72
 630:	4c e8       	ldi	r20, 0x8C	; 140
 632:	55 e4       	ldi	r21, 0x45	; 69
 634:	69 85       	ldd	r22, Y+9	; 0x09
 636:	7a 85       	ldd	r23, Y+10	; 0x0a
 638:	8b 85       	ldd	r24, Y+11	; 0x0b
 63a:	9c 85       	ldd	r25, Y+12	; 0x0c
 63c:	5a d1       	rcall	.+692    	; 0x8f2 <__addsf3>
 63e:	20 e0       	ldi	r18, 0x00	; 0
 640:	38 e0       	ldi	r19, 0x08	; 8
 642:	44 e8       	ldi	r20, 0x84	; 132
 644:	56 e4       	ldi	r21, 0x46	; 70
 646:	54 d1       	rcall	.+680    	; 0x8f0 <__subsf3>
 648:	4b 01       	movw	r8, r22
 64a:	5c 01       	movw	r10, r24
 64c:	a3 01       	movw	r20, r6
 64e:	92 01       	movw	r18, r4
 650:	c3 01       	movw	r24, r6
 652:	b2 01       	movw	r22, r4
 654:	4e d1       	rcall	.+668    	; 0x8f2 <__addsf3>
 656:	20 e0       	ldi	r18, 0x00	; 0
 658:	30 e0       	ldi	r19, 0x00	; 0
 65a:	46 e8       	ldi	r20, 0x86	; 134
 65c:	52 e4       	ldi	r21, 0x42	; 66
 65e:	40 d3       	rcall	.+1664   	; 0xce0 <__mulsf3>
 660:	9b 01       	movw	r18, r22
 662:	ac 01       	movw	r20, r24
 664:	c5 01       	movw	r24, r10
 666:	b4 01       	movw	r22, r8
 668:	0a d2       	rcall	.+1044   	; 0xa7e <__divsf3>
 66a:	34 d1       	rcall	.+616    	; 0x8d4 <acos>
 66c:	2b 01       	movw	r4, r22
 66e:	3c 01       	movw	r6, r24
 670:	a7 01       	movw	r20, r14
 672:	96 01       	movw	r18, r12
 674:	60 e0       	ldi	r22, 0x00	; 0
 676:	7a e1       	ldi	r23, 0x1A	; 26
 678:	87 ea       	ldi	r24, 0xA7	; 167
 67a:	96 e4       	ldi	r25, 0x46	; 70
 67c:	39 d1       	rcall	.+626    	; 0x8f0 <__subsf3>
 67e:	2d 81       	ldd	r18, Y+5	; 0x05
 680:	3e 81       	ldd	r19, Y+6	; 0x06
 682:	4f 81       	ldd	r20, Y+7	; 0x07
 684:	58 85       	ldd	r21, Y+8	; 0x08
 686:	34 d1       	rcall	.+616    	; 0x8f0 <__subsf3>
 688:	20 e0       	ldi	r18, 0x00	; 0
 68a:	38 e1       	ldi	r19, 0x18	; 24
 68c:	48 e8       	ldi	r20, 0x88	; 136
 68e:	56 e4       	ldi	r21, 0x46	; 70
 690:	f6 d1       	rcall	.+1004   	; 0xa7e <__divsf3>
 692:	20 d1       	rcall	.+576    	; 0x8d4 <acos>
 694:	4b 01       	movw	r8, r22
 696:	5c 01       	movw	r10, r24
 698:	68 01       	movw	r12, r16
 69a:	ee 24       	eor	r14, r14
 69c:	d7 fc       	sbrc	r13, 7
 69e:	e0 94       	com	r14
 6a0:	fe 2c       	mov	r15, r14
 6a2:	20 e0       	ldi	r18, 0x00	; 0
 6a4:	30 e0       	ldi	r19, 0x00	; 0
 6a6:	44 e3       	ldi	r20, 0x34	; 52
 6a8:	53 e4       	ldi	r21, 0x43	; 67
 6aa:	6d 85       	ldd	r22, Y+13	; 0x0d
 6ac:	7e 85       	ldd	r23, Y+14	; 0x0e
 6ae:	8f 85       	ldd	r24, Y+15	; 0x0f
 6b0:	98 89       	ldd	r25, Y+16	; 0x10
 6b2:	16 d3       	rcall	.+1580   	; 0xce0 <__mulsf3>
 6b4:	28 ed       	ldi	r18, 0xD8	; 216
 6b6:	3f e0       	ldi	r19, 0x0F	; 15
 6b8:	49 e4       	ldi	r20, 0x49	; 73
 6ba:	50 e4       	ldi	r21, 0x40	; 64
 6bc:	e0 d1       	rcall	.+960    	; 0xa7e <__divsf3>
 6be:	47 d2       	rcall	.+1166   	; 0xb4e <__fixsfsi>
 6c0:	ab 01       	movw	r20, r22
 6c2:	bc 01       	movw	r22, r24
 6c4:	43 55       	subi	r20, 0x53	; 83
 6c6:	5f 4f       	sbci	r21, 0xFF	; 255
 6c8:	6f 4f       	sbci	r22, 0xFF	; 255
 6ca:	7f 4f       	sbci	r23, 0xFF	; 255
 6cc:	97 01       	movw	r18, r14
 6ce:	86 01       	movw	r16, r12
 6d0:	88 e0       	ldi	r24, 0x08	; 8
 6d2:	90 e0       	ldi	r25, 0x00	; 0
 6d4:	af dd       	rcall	.-1186   	; 0x234 <MoveDynamixel>
 6d6:	81 dd       	rcall	.-1278   	; 0x1da <USARTReadStatusPacket>
 6d8:	a3 01       	movw	r20, r6
 6da:	92 01       	movw	r18, r4
 6dc:	69 81       	ldd	r22, Y+1	; 0x01
 6de:	7a 81       	ldd	r23, Y+2	; 0x02
 6e0:	8b 81       	ldd	r24, Y+3	; 0x03
 6e2:	9c 81       	ldd	r25, Y+4	; 0x04
 6e4:	06 d1       	rcall	.+524    	; 0x8f2 <__addsf3>
 6e6:	24 ee       	ldi	r18, 0xE4	; 228
 6e8:	3e e2       	ldi	r19, 0x2E	; 46
 6ea:	45 e6       	ldi	r20, 0x65	; 101
 6ec:	52 e4       	ldi	r21, 0x42	; 66
 6ee:	f8 d2       	rcall	.+1520   	; 0xce0 <__mulsf3>
 6f0:	2e d2       	rcall	.+1116   	; 0xb4e <__fixsfsi>
 6f2:	ab 01       	movw	r20, r22
 6f4:	bc 01       	movw	r22, r24
 6f6:	45 5b       	subi	r20, 0xB5	; 181
 6f8:	5f 4f       	sbci	r21, 0xFF	; 255
 6fa:	6f 4f       	sbci	r22, 0xFF	; 255
 6fc:	7f 4f       	sbci	r23, 0xFF	; 255
 6fe:	97 01       	movw	r18, r14
 700:	86 01       	movw	r16, r12
 702:	8a e0       	ldi	r24, 0x0A	; 10
 704:	90 e0       	ldi	r25, 0x00	; 0
 706:	96 dd       	rcall	.-1236   	; 0x234 <MoveDynamixel>
 708:	68 dd       	rcall	.-1328   	; 0x1da <USARTReadStatusPacket>
 70a:	20 e0       	ldi	r18, 0x00	; 0
 70c:	30 e0       	ldi	r19, 0x00	; 0
 70e:	44 e3       	ldi	r20, 0x34	; 52
 710:	53 e4       	ldi	r21, 0x43	; 67
 712:	c5 01       	movw	r24, r10
 714:	b4 01       	movw	r22, r8
 716:	e4 d2       	rcall	.+1480   	; 0xce0 <__mulsf3>
 718:	28 ed       	ldi	r18, 0xD8	; 216
 71a:	3f e0       	ldi	r19, 0x0F	; 15
 71c:	49 e4       	ldi	r20, 0x49	; 73
 71e:	50 e4       	ldi	r21, 0x40	; 64
 720:	ae d1       	rcall	.+860    	; 0xa7e <__divsf3>
 722:	15 d2       	rcall	.+1066   	; 0xb4e <__fixsfsi>
 724:	ab 01       	movw	r20, r22
 726:	bc 01       	movw	r22, r24
 728:	4d 5f       	subi	r20, 0xFD	; 253
 72a:	5f 4f       	sbci	r21, 0xFF	; 255
 72c:	6f 4f       	sbci	r22, 0xFF	; 255
 72e:	7f 4f       	sbci	r23, 0xFF	; 255
 730:	97 01       	movw	r18, r14
 732:	86 01       	movw	r16, r12
 734:	8c e0       	ldi	r24, 0x0C	; 12
 736:	90 e0       	ldi	r25, 0x00	; 0
 738:	7d dd       	rcall	.-1286   	; 0x234 <MoveDynamixel>
 73a:	4f dd       	rcall	.-1378   	; 0x1da <USARTReadStatusPacket>
 73c:	60 96       	adiw	r28, 0x10	; 16
 73e:	0f b6       	in	r0, 0x3f	; 63
 740:	f8 94       	cli
 742:	de bf       	out	0x3e, r29	; 62
 744:	0f be       	out	0x3f, r0	; 63
 746:	cd bf       	out	0x3d, r28	; 61
 748:	df 91       	pop	r29
 74a:	cf 91       	pop	r28
 74c:	1f 91       	pop	r17
 74e:	0f 91       	pop	r16
 750:	ff 90       	pop	r15
 752:	ef 90       	pop	r14
 754:	df 90       	pop	r13
 756:	cf 90       	pop	r12
 758:	bf 90       	pop	r11
 75a:	af 90       	pop	r10
 75c:	9f 90       	pop	r9
 75e:	8f 90       	pop	r8
 760:	7f 90       	pop	r7
 762:	6f 90       	pop	r6
 764:	5f 90       	pop	r5
 766:	4f 90       	pop	r4
 768:	08 95       	ret

0000076a <__vector_2>:
 76a:	1f 92       	push	r1
 76c:	0f 92       	push	r0
 76e:	0f b6       	in	r0, 0x3f	; 63
 770:	0f 92       	push	r0
 772:	11 24       	eor	r1, r1
 774:	0b b6       	in	r0, 0x3b	; 59
 776:	0f 92       	push	r0
 778:	0f 93       	push	r16
 77a:	1f 93       	push	r17
 77c:	2f 93       	push	r18
 77e:	3f 93       	push	r19
 780:	4f 93       	push	r20
 782:	5f 93       	push	r21
 784:	6f 93       	push	r22
 786:	7f 93       	push	r23
 788:	8f 93       	push	r24
 78a:	9f 93       	push	r25
 78c:	af 93       	push	r26
 78e:	bf 93       	push	r27
 790:	cf 93       	push	r28
 792:	ef 93       	push	r30
 794:	ff 93       	push	r31
 796:	80 91 02 01 	lds	r24, 0x0102
 79a:	90 91 03 01 	lds	r25, 0x0103
 79e:	c4 e1       	ldi	r28, 0x14	; 20
 7a0:	c8 9f       	mul	r28, r24
 7a2:	f0 01       	movw	r30, r0
 7a4:	c9 9f       	mul	r28, r25
 7a6:	f0 0d       	add	r31, r0
 7a8:	11 24       	eor	r1, r1
 7aa:	20 91 08 01 	lds	r18, 0x0108
 7ae:	30 91 09 01 	lds	r19, 0x0109
 7b2:	e2 0f       	add	r30, r18
 7b4:	f3 1f       	adc	r31, r19
 7b6:	ee 0f       	add	r30, r30
 7b8:	ff 1f       	adc	r31, r31
 7ba:	ee 0f       	add	r30, r30
 7bc:	ff 1f       	adc	r31, r31
 7be:	e6 5f       	subi	r30, 0xF6	; 246
 7c0:	fe 4f       	sbci	r31, 0xFE	; 254
 7c2:	40 81       	ld	r20, Z
 7c4:	51 81       	ldd	r21, Z+1	; 0x01
 7c6:	62 81       	ldd	r22, Z+2	; 0x02
 7c8:	73 81       	ldd	r23, Z+3	; 0x03
 7ca:	0a e0       	ldi	r16, 0x0A	; 10
 7cc:	10 e0       	ldi	r17, 0x00	; 0
 7ce:	20 e0       	ldi	r18, 0x00	; 0
 7d0:	30 e0       	ldi	r19, 0x00	; 0
 7d2:	30 dd       	rcall	.-1440   	; 0x234 <MoveDynamixel>
 7d4:	02 dd       	rcall	.-1532   	; 0x1da <USARTReadStatusPacket>
 7d6:	80 91 04 01 	lds	r24, 0x0104
 7da:	90 91 05 01 	lds	r25, 0x0105
 7de:	c8 9f       	mul	r28, r24
 7e0:	f0 01       	movw	r30, r0
 7e2:	c9 9f       	mul	r28, r25
 7e4:	f0 0d       	add	r31, r0
 7e6:	11 24       	eor	r1, r1
 7e8:	20 91 08 01 	lds	r18, 0x0108
 7ec:	30 91 09 01 	lds	r19, 0x0109
 7f0:	e2 0f       	add	r30, r18
 7f2:	f3 1f       	adc	r31, r19
 7f4:	ee 0f       	add	r30, r30
 7f6:	ff 1f       	adc	r31, r31
 7f8:	ee 0f       	add	r30, r30
 7fa:	ff 1f       	adc	r31, r31
 7fc:	e6 5f       	subi	r30, 0xF6	; 246
 7fe:	fe 4f       	sbci	r31, 0xFE	; 254
 800:	40 81       	ld	r20, Z
 802:	51 81       	ldd	r21, Z+1	; 0x01
 804:	62 81       	ldd	r22, Z+2	; 0x02
 806:	73 81       	ldd	r23, Z+3	; 0x03
 808:	0a e0       	ldi	r16, 0x0A	; 10
 80a:	10 e0       	ldi	r17, 0x00	; 0
 80c:	20 e0       	ldi	r18, 0x00	; 0
 80e:	30 e0       	ldi	r19, 0x00	; 0
 810:	11 dd       	rcall	.-1502   	; 0x234 <MoveDynamixel>
 812:	e3 dc       	rcall	.-1594   	; 0x1da <USARTReadStatusPacket>
 814:	80 91 06 01 	lds	r24, 0x0106
 818:	90 91 07 01 	lds	r25, 0x0107
 81c:	c8 9f       	mul	r28, r24
 81e:	f0 01       	movw	r30, r0
 820:	c9 9f       	mul	r28, r25
 822:	f0 0d       	add	r31, r0
 824:	11 24       	eor	r1, r1
 826:	20 91 08 01 	lds	r18, 0x0108
 82a:	30 91 09 01 	lds	r19, 0x0109
 82e:	e2 0f       	add	r30, r18
 830:	f3 1f       	adc	r31, r19
 832:	ee 0f       	add	r30, r30
 834:	ff 1f       	adc	r31, r31
 836:	ee 0f       	add	r30, r30
 838:	ff 1f       	adc	r31, r31
 83a:	e6 5f       	subi	r30, 0xF6	; 246
 83c:	fe 4f       	sbci	r31, 0xFE	; 254
 83e:	40 81       	ld	r20, Z
 840:	51 81       	ldd	r21, Z+1	; 0x01
 842:	62 81       	ldd	r22, Z+2	; 0x02
 844:	73 81       	ldd	r23, Z+3	; 0x03
 846:	0a e0       	ldi	r16, 0x0A	; 10
 848:	10 e0       	ldi	r17, 0x00	; 0
 84a:	20 e0       	ldi	r18, 0x00	; 0
 84c:	30 e0       	ldi	r19, 0x00	; 0
 84e:	f2 dc       	rcall	.-1564   	; 0x234 <MoveDynamixel>
 850:	c4 dc       	rcall	.-1656   	; 0x1da <USARTReadStatusPacket>
 852:	80 91 08 01 	lds	r24, 0x0108
 856:	90 91 09 01 	lds	r25, 0x0109
 85a:	01 96       	adiw	r24, 0x01	; 1
 85c:	90 93 09 01 	sts	0x0109, r25
 860:	80 93 08 01 	sts	0x0108, r24
 864:	ff 91       	pop	r31
 866:	ef 91       	pop	r30
 868:	cf 91       	pop	r28
 86a:	bf 91       	pop	r27
 86c:	af 91       	pop	r26
 86e:	9f 91       	pop	r25
 870:	8f 91       	pop	r24
 872:	7f 91       	pop	r23
 874:	6f 91       	pop	r22
 876:	5f 91       	pop	r21
 878:	4f 91       	pop	r20
 87a:	3f 91       	pop	r19
 87c:	2f 91       	pop	r18
 87e:	1f 91       	pop	r17
 880:	0f 91       	pop	r16
 882:	0f 90       	pop	r0
 884:	0b be       	out	0x3b, r0	; 59
 886:	0f 90       	pop	r0
 888:	0f be       	out	0x3f, r0	; 63
 88a:	0f 90       	pop	r0
 88c:	1f 90       	pop	r1
 88e:	18 95       	reti

00000890 <main>:


int main(void)
{
	initUSART();
 890:	46 dc       	rcall	.-1908   	; 0x11e <initUSART>
	cli();
 892:	f8 94       	cli
	EICRA = 0b1100; // Stigande flank på INT1 genererar avbrott
 894:	8c e0       	ldi	r24, 0x0C	; 12
 896:	80 93 69 00 	sts	0x0069, r24
	EIMSK = (EIMSK | 2); // Möjliggör externa avbrott på INT0, pinne 40  
 89a:	e9 9a       	sbi	0x1d, 1	; 29
	DDRA = 0;
 89c:	11 b8       	out	0x01, r1	; 1
	// MCUCR = (MCUCR | (1 << PUD)); Något som testades för att se om det gjorde något
	//PORTA |= (1 << PORTA0);
	 // Möjliggör globala avbrott
	sei();
 89e:	78 94       	sei
	MoveFrontLeftLeg(0,120,-85,30);
 8a0:	0f 2e       	mov	r0, r31
 8a2:	fe e1       	ldi	r31, 0x1E	; 30
 8a4:	cf 2e       	mov	r12, r31
 8a6:	d1 2c       	mov	r13, r1
 8a8:	f0 2d       	mov	r31, r0
 8aa:	e1 2c       	mov	r14, r1
 8ac:	f1 2c       	mov	r15, r1
 8ae:	0a ea       	ldi	r16, 0xAA	; 170
 8b0:	12 ec       	ldi	r17, 0xC2	; 194
 8b2:	20 e0       	ldi	r18, 0x00	; 0
 8b4:	30 e0       	ldi	r19, 0x00	; 0
 8b6:	40 ef       	ldi	r20, 0xF0	; 240
 8b8:	52 e4       	ldi	r21, 0x42	; 66
 8ba:	60 e0       	ldi	r22, 0x00	; 0
 8bc:	70 e0       	ldi	r23, 0x00	; 0
 8be:	cb 01       	movw	r24, r22
 8c0:	1b dd       	rcall	.-1482   	; 0x2f8 <MoveFrontLeftLeg>
	MoveFrontRightLeg(0,120,-85,30);
 8c2:	20 e0       	ldi	r18, 0x00	; 0
 8c4:	30 e0       	ldi	r19, 0x00	; 0
 8c6:	40 ef       	ldi	r20, 0xF0	; 240
 8c8:	52 e4       	ldi	r21, 0x42	; 66
 8ca:	60 e0       	ldi	r22, 0x00	; 0
 8cc:	70 e0       	ldi	r23, 0x00	; 0
 8ce:	cb 01       	movw	r24, r22
 8d0:	30 de       	rcall	.-928    	; 0x532 <MoveFrontRightLeg>
 8d2:	ff cf       	rjmp	.-2      	; 0x8d2 <main+0x42>

000008d4 <acos>:
 8d4:	9f 93       	push	r25
 8d6:	9f 77       	andi	r25, 0x7F	; 127
 8d8:	6b d1       	rcall	.+726    	; 0xbb0 <__fp_arccos>
 8da:	0f 90       	pop	r0
 8dc:	00 20       	and	r0, r0
 8de:	3a f4       	brpl	.+14     	; 0x8ee <acos+0x1a>
 8e0:	90 58       	subi	r25, 0x80	; 128
 8e2:	a2 ea       	ldi	r26, 0xA2	; 162
 8e4:	2a ed       	ldi	r18, 0xDA	; 218
 8e6:	3f e0       	ldi	r19, 0x0F	; 15
 8e8:	49 e4       	ldi	r20, 0x49	; 73
 8ea:	50 e4       	ldi	r21, 0x40	; 64
 8ec:	13 d0       	rcall	.+38     	; 0x914 <__addsf3x>
 8ee:	b7 c1       	rjmp	.+878    	; 0xc5e <__fp_round>

000008f0 <__subsf3>:
 8f0:	50 58       	subi	r21, 0x80	; 128

000008f2 <__addsf3>:
 8f2:	bb 27       	eor	r27, r27
 8f4:	aa 27       	eor	r26, r26
 8f6:	0e d0       	rcall	.+28     	; 0x914 <__addsf3x>
 8f8:	b2 c1       	rjmp	.+868    	; 0xc5e <__fp_round>
 8fa:	a3 d1       	rcall	.+838    	; 0xc42 <__fp_pscA>
 8fc:	30 f0       	brcs	.+12     	; 0x90a <__addsf3+0x18>
 8fe:	a8 d1       	rcall	.+848    	; 0xc50 <__fp_pscB>
 900:	20 f0       	brcs	.+8      	; 0x90a <__addsf3+0x18>
 902:	31 f4       	brne	.+12     	; 0x910 <__addsf3+0x1e>
 904:	9f 3f       	cpi	r25, 0xFF	; 255
 906:	11 f4       	brne	.+4      	; 0x90c <__addsf3+0x1a>
 908:	1e f4       	brtc	.+6      	; 0x910 <__addsf3+0x1e>
 90a:	73 c1       	rjmp	.+742    	; 0xbf2 <__fp_nan>
 90c:	0e f4       	brtc	.+2      	; 0x910 <__addsf3+0x1e>
 90e:	e0 95       	com	r30
 910:	e7 fb       	bst	r30, 7
 912:	69 c1       	rjmp	.+722    	; 0xbe6 <__fp_inf>

00000914 <__addsf3x>:
 914:	e9 2f       	mov	r30, r25
 916:	b4 d1       	rcall	.+872    	; 0xc80 <__fp_split3>
 918:	80 f3       	brcs	.-32     	; 0x8fa <__addsf3+0x8>
 91a:	ba 17       	cp	r27, r26
 91c:	62 07       	cpc	r22, r18
 91e:	73 07       	cpc	r23, r19
 920:	84 07       	cpc	r24, r20
 922:	95 07       	cpc	r25, r21
 924:	18 f0       	brcs	.+6      	; 0x92c <__addsf3x+0x18>
 926:	71 f4       	brne	.+28     	; 0x944 <__addsf3x+0x30>
 928:	9e f5       	brtc	.+102    	; 0x990 <__addsf3x+0x7c>
 92a:	cc c1       	rjmp	.+920    	; 0xcc4 <__fp_zero>
 92c:	0e f4       	brtc	.+2      	; 0x930 <__addsf3x+0x1c>
 92e:	e0 95       	com	r30
 930:	0b 2e       	mov	r0, r27
 932:	ba 2f       	mov	r27, r26
 934:	a0 2d       	mov	r26, r0
 936:	0b 01       	movw	r0, r22
 938:	b9 01       	movw	r22, r18
 93a:	90 01       	movw	r18, r0
 93c:	0c 01       	movw	r0, r24
 93e:	ca 01       	movw	r24, r20
 940:	a0 01       	movw	r20, r0
 942:	11 24       	eor	r1, r1
 944:	ff 27       	eor	r31, r31
 946:	59 1b       	sub	r21, r25
 948:	99 f0       	breq	.+38     	; 0x970 <__addsf3x+0x5c>
 94a:	59 3f       	cpi	r21, 0xF9	; 249
 94c:	50 f4       	brcc	.+20     	; 0x962 <__addsf3x+0x4e>
 94e:	50 3e       	cpi	r21, 0xE0	; 224
 950:	68 f1       	brcs	.+90     	; 0x9ac <__addsf3x+0x98>
 952:	1a 16       	cp	r1, r26
 954:	f0 40       	sbci	r31, 0x00	; 0
 956:	a2 2f       	mov	r26, r18
 958:	23 2f       	mov	r18, r19
 95a:	34 2f       	mov	r19, r20
 95c:	44 27       	eor	r20, r20
 95e:	58 5f       	subi	r21, 0xF8	; 248
 960:	f3 cf       	rjmp	.-26     	; 0x948 <__addsf3x+0x34>
 962:	46 95       	lsr	r20
 964:	37 95       	ror	r19
 966:	27 95       	ror	r18
 968:	a7 95       	ror	r26
 96a:	f0 40       	sbci	r31, 0x00	; 0
 96c:	53 95       	inc	r21
 96e:	c9 f7       	brne	.-14     	; 0x962 <__addsf3x+0x4e>
 970:	7e f4       	brtc	.+30     	; 0x990 <__addsf3x+0x7c>
 972:	1f 16       	cp	r1, r31
 974:	ba 0b       	sbc	r27, r26
 976:	62 0b       	sbc	r22, r18
 978:	73 0b       	sbc	r23, r19
 97a:	84 0b       	sbc	r24, r20
 97c:	ba f0       	brmi	.+46     	; 0x9ac <__addsf3x+0x98>
 97e:	91 50       	subi	r25, 0x01	; 1
 980:	a1 f0       	breq	.+40     	; 0x9aa <__addsf3x+0x96>
 982:	ff 0f       	add	r31, r31
 984:	bb 1f       	adc	r27, r27
 986:	66 1f       	adc	r22, r22
 988:	77 1f       	adc	r23, r23
 98a:	88 1f       	adc	r24, r24
 98c:	c2 f7       	brpl	.-16     	; 0x97e <__addsf3x+0x6a>
 98e:	0e c0       	rjmp	.+28     	; 0x9ac <__addsf3x+0x98>
 990:	ba 0f       	add	r27, r26
 992:	62 1f       	adc	r22, r18
 994:	73 1f       	adc	r23, r19
 996:	84 1f       	adc	r24, r20
 998:	48 f4       	brcc	.+18     	; 0x9ac <__addsf3x+0x98>
 99a:	87 95       	ror	r24
 99c:	77 95       	ror	r23
 99e:	67 95       	ror	r22
 9a0:	b7 95       	ror	r27
 9a2:	f7 95       	ror	r31
 9a4:	9e 3f       	cpi	r25, 0xFE	; 254
 9a6:	08 f0       	brcs	.+2      	; 0x9aa <__addsf3x+0x96>
 9a8:	b3 cf       	rjmp	.-154    	; 0x910 <__addsf3+0x1e>
 9aa:	93 95       	inc	r25
 9ac:	88 0f       	add	r24, r24
 9ae:	08 f0       	brcs	.+2      	; 0x9b2 <__addsf3x+0x9e>
 9b0:	99 27       	eor	r25, r25
 9b2:	ee 0f       	add	r30, r30
 9b4:	97 95       	ror	r25
 9b6:	87 95       	ror	r24
 9b8:	08 95       	ret
 9ba:	43 d1       	rcall	.+646    	; 0xc42 <__fp_pscA>
 9bc:	58 f0       	brcs	.+22     	; 0x9d4 <__addsf3x+0xc0>
 9be:	80 e8       	ldi	r24, 0x80	; 128
 9c0:	91 e0       	ldi	r25, 0x01	; 1
 9c2:	09 f4       	brne	.+2      	; 0x9c6 <__addsf3x+0xb2>
 9c4:	9e ef       	ldi	r25, 0xFE	; 254
 9c6:	44 d1       	rcall	.+648    	; 0xc50 <__fp_pscB>
 9c8:	28 f0       	brcs	.+10     	; 0x9d4 <__addsf3x+0xc0>
 9ca:	40 e8       	ldi	r20, 0x80	; 128
 9cc:	51 e0       	ldi	r21, 0x01	; 1
 9ce:	59 f4       	brne	.+22     	; 0x9e6 <atan2+0xe>
 9d0:	5e ef       	ldi	r21, 0xFE	; 254
 9d2:	09 c0       	rjmp	.+18     	; 0x9e6 <atan2+0xe>
 9d4:	0e c1       	rjmp	.+540    	; 0xbf2 <__fp_nan>
 9d6:	76 c1       	rjmp	.+748    	; 0xcc4 <__fp_zero>

000009d8 <atan2>:
 9d8:	e9 2f       	mov	r30, r25
 9da:	e0 78       	andi	r30, 0x80	; 128
 9dc:	51 d1       	rcall	.+674    	; 0xc80 <__fp_split3>
 9de:	68 f3       	brcs	.-38     	; 0x9ba <__addsf3x+0xa6>
 9e0:	09 2e       	mov	r0, r25
 9e2:	05 2a       	or	r0, r21
 9e4:	c1 f3       	breq	.-16     	; 0x9d6 <__addsf3x+0xc2>
 9e6:	26 17       	cp	r18, r22
 9e8:	37 07       	cpc	r19, r23
 9ea:	48 07       	cpc	r20, r24
 9ec:	59 07       	cpc	r21, r25
 9ee:	38 f0       	brcs	.+14     	; 0x9fe <atan2+0x26>
 9f0:	0e 2e       	mov	r0, r30
 9f2:	07 f8       	bld	r0, 7
 9f4:	e0 25       	eor	r30, r0
 9f6:	69 f0       	breq	.+26     	; 0xa12 <atan2+0x3a>
 9f8:	e0 25       	eor	r30, r0
 9fa:	e0 64       	ori	r30, 0x40	; 64
 9fc:	0a c0       	rjmp	.+20     	; 0xa12 <atan2+0x3a>
 9fe:	ef 63       	ori	r30, 0x3F	; 63
 a00:	07 f8       	bld	r0, 7
 a02:	00 94       	com	r0
 a04:	07 fa       	bst	r0, 7
 a06:	db 01       	movw	r26, r22
 a08:	b9 01       	movw	r22, r18
 a0a:	9d 01       	movw	r18, r26
 a0c:	dc 01       	movw	r26, r24
 a0e:	ca 01       	movw	r24, r20
 a10:	ad 01       	movw	r20, r26
 a12:	ef 93       	push	r30
 a14:	43 d0       	rcall	.+134    	; 0xa9c <__divsf3_pse>
 a16:	23 d1       	rcall	.+582    	; 0xc5e <__fp_round>
 a18:	0a d0       	rcall	.+20     	; 0xa2e <atan>
 a1a:	5f 91       	pop	r21
 a1c:	55 23       	and	r21, r21
 a1e:	31 f0       	breq	.+12     	; 0xa2c <atan2+0x54>
 a20:	2b ed       	ldi	r18, 0xDB	; 219
 a22:	3f e0       	ldi	r19, 0x0F	; 15
 a24:	49 e4       	ldi	r20, 0x49	; 73
 a26:	50 fd       	sbrc	r21, 0
 a28:	49 ec       	ldi	r20, 0xC9	; 201
 a2a:	63 cf       	rjmp	.-314    	; 0x8f2 <__addsf3>
 a2c:	08 95       	ret

00000a2e <atan>:
 a2e:	df 93       	push	r29
 a30:	dd 27       	eor	r29, r29
 a32:	b9 2f       	mov	r27, r25
 a34:	bf 77       	andi	r27, 0x7F	; 127
 a36:	40 e8       	ldi	r20, 0x80	; 128
 a38:	5f e3       	ldi	r21, 0x3F	; 63
 a3a:	16 16       	cp	r1, r22
 a3c:	17 06       	cpc	r1, r23
 a3e:	48 07       	cpc	r20, r24
 a40:	5b 07       	cpc	r21, r27
 a42:	10 f4       	brcc	.+4      	; 0xa48 <atan+0x1a>
 a44:	d9 2f       	mov	r29, r25
 a46:	45 d1       	rcall	.+650    	; 0xcd2 <inverse>
 a48:	9f 93       	push	r25
 a4a:	8f 93       	push	r24
 a4c:	7f 93       	push	r23
 a4e:	6f 93       	push	r22
 a50:	ec d1       	rcall	.+984    	; 0xe2a <square>
 a52:	ec e8       	ldi	r30, 0x8C	; 140
 a54:	f0 e0       	ldi	r31, 0x00	; 0
 a56:	d0 d0       	rcall	.+416    	; 0xbf8 <__fp_powser>
 a58:	02 d1       	rcall	.+516    	; 0xc5e <__fp_round>
 a5a:	2f 91       	pop	r18
 a5c:	3f 91       	pop	r19
 a5e:	4f 91       	pop	r20
 a60:	5f 91       	pop	r21
 a62:	4a d1       	rcall	.+660    	; 0xcf8 <__mulsf3x>
 a64:	dd 23       	and	r29, r29
 a66:	49 f0       	breq	.+18     	; 0xa7a <atan+0x4c>
 a68:	90 58       	subi	r25, 0x80	; 128
 a6a:	a2 ea       	ldi	r26, 0xA2	; 162
 a6c:	2a ed       	ldi	r18, 0xDA	; 218
 a6e:	3f e0       	ldi	r19, 0x0F	; 15
 a70:	49 ec       	ldi	r20, 0xC9	; 201
 a72:	5f e3       	ldi	r21, 0x3F	; 63
 a74:	d0 78       	andi	r29, 0x80	; 128
 a76:	5d 27       	eor	r21, r29
 a78:	4d df       	rcall	.-358    	; 0x914 <__addsf3x>
 a7a:	df 91       	pop	r29
 a7c:	f0 c0       	rjmp	.+480    	; 0xc5e <__fp_round>

00000a7e <__divsf3>:
 a7e:	0c d0       	rcall	.+24     	; 0xa98 <__divsf3x>
 a80:	ee c0       	rjmp	.+476    	; 0xc5e <__fp_round>
 a82:	e6 d0       	rcall	.+460    	; 0xc50 <__fp_pscB>
 a84:	40 f0       	brcs	.+16     	; 0xa96 <__divsf3+0x18>
 a86:	dd d0       	rcall	.+442    	; 0xc42 <__fp_pscA>
 a88:	30 f0       	brcs	.+12     	; 0xa96 <__divsf3+0x18>
 a8a:	21 f4       	brne	.+8      	; 0xa94 <__divsf3+0x16>
 a8c:	5f 3f       	cpi	r21, 0xFF	; 255
 a8e:	19 f0       	breq	.+6      	; 0xa96 <__divsf3+0x18>
 a90:	aa c0       	rjmp	.+340    	; 0xbe6 <__fp_inf>
 a92:	51 11       	cpse	r21, r1
 a94:	18 c1       	rjmp	.+560    	; 0xcc6 <__fp_szero>
 a96:	ad c0       	rjmp	.+346    	; 0xbf2 <__fp_nan>

00000a98 <__divsf3x>:
 a98:	f3 d0       	rcall	.+486    	; 0xc80 <__fp_split3>
 a9a:	98 f3       	brcs	.-26     	; 0xa82 <__divsf3+0x4>

00000a9c <__divsf3_pse>:
 a9c:	99 23       	and	r25, r25
 a9e:	c9 f3       	breq	.-14     	; 0xa92 <__divsf3+0x14>
 aa0:	55 23       	and	r21, r21
 aa2:	b1 f3       	breq	.-20     	; 0xa90 <__divsf3+0x12>
 aa4:	95 1b       	sub	r25, r21
 aa6:	55 0b       	sbc	r21, r21
 aa8:	bb 27       	eor	r27, r27
 aaa:	aa 27       	eor	r26, r26
 aac:	62 17       	cp	r22, r18
 aae:	73 07       	cpc	r23, r19
 ab0:	84 07       	cpc	r24, r20
 ab2:	38 f0       	brcs	.+14     	; 0xac2 <__divsf3_pse+0x26>
 ab4:	9f 5f       	subi	r25, 0xFF	; 255
 ab6:	5f 4f       	sbci	r21, 0xFF	; 255
 ab8:	22 0f       	add	r18, r18
 aba:	33 1f       	adc	r19, r19
 abc:	44 1f       	adc	r20, r20
 abe:	aa 1f       	adc	r26, r26
 ac0:	a9 f3       	breq	.-22     	; 0xaac <__divsf3_pse+0x10>
 ac2:	33 d0       	rcall	.+102    	; 0xb2a <__divsf3_pse+0x8e>
 ac4:	0e 2e       	mov	r0, r30
 ac6:	3a f0       	brmi	.+14     	; 0xad6 <__divsf3_pse+0x3a>
 ac8:	e0 e8       	ldi	r30, 0x80	; 128
 aca:	30 d0       	rcall	.+96     	; 0xb2c <__divsf3_pse+0x90>
 acc:	91 50       	subi	r25, 0x01	; 1
 ace:	50 40       	sbci	r21, 0x00	; 0
 ad0:	e6 95       	lsr	r30
 ad2:	00 1c       	adc	r0, r0
 ad4:	ca f7       	brpl	.-14     	; 0xac8 <__divsf3_pse+0x2c>
 ad6:	29 d0       	rcall	.+82     	; 0xb2a <__divsf3_pse+0x8e>
 ad8:	fe 2f       	mov	r31, r30
 ada:	27 d0       	rcall	.+78     	; 0xb2a <__divsf3_pse+0x8e>
 adc:	66 0f       	add	r22, r22
 ade:	77 1f       	adc	r23, r23
 ae0:	88 1f       	adc	r24, r24
 ae2:	bb 1f       	adc	r27, r27
 ae4:	26 17       	cp	r18, r22
 ae6:	37 07       	cpc	r19, r23
 ae8:	48 07       	cpc	r20, r24
 aea:	ab 07       	cpc	r26, r27
 aec:	b0 e8       	ldi	r27, 0x80	; 128
 aee:	09 f0       	breq	.+2      	; 0xaf2 <__divsf3_pse+0x56>
 af0:	bb 0b       	sbc	r27, r27
 af2:	80 2d       	mov	r24, r0
 af4:	bf 01       	movw	r22, r30
 af6:	ff 27       	eor	r31, r31
 af8:	93 58       	subi	r25, 0x83	; 131
 afa:	5f 4f       	sbci	r21, 0xFF	; 255
 afc:	2a f0       	brmi	.+10     	; 0xb08 <__divsf3_pse+0x6c>
 afe:	9e 3f       	cpi	r25, 0xFE	; 254
 b00:	51 05       	cpc	r21, r1
 b02:	68 f0       	brcs	.+26     	; 0xb1e <__divsf3_pse+0x82>
 b04:	70 c0       	rjmp	.+224    	; 0xbe6 <__fp_inf>
 b06:	df c0       	rjmp	.+446    	; 0xcc6 <__fp_szero>
 b08:	5f 3f       	cpi	r21, 0xFF	; 255
 b0a:	ec f3       	brlt	.-6      	; 0xb06 <__divsf3_pse+0x6a>
 b0c:	98 3e       	cpi	r25, 0xE8	; 232
 b0e:	dc f3       	brlt	.-10     	; 0xb06 <__divsf3_pse+0x6a>
 b10:	86 95       	lsr	r24
 b12:	77 95       	ror	r23
 b14:	67 95       	ror	r22
 b16:	b7 95       	ror	r27
 b18:	f7 95       	ror	r31
 b1a:	9f 5f       	subi	r25, 0xFF	; 255
 b1c:	c9 f7       	brne	.-14     	; 0xb10 <__divsf3_pse+0x74>
 b1e:	88 0f       	add	r24, r24
 b20:	91 1d       	adc	r25, r1
 b22:	96 95       	lsr	r25
 b24:	87 95       	ror	r24
 b26:	97 f9       	bld	r25, 7
 b28:	08 95       	ret
 b2a:	e1 e0       	ldi	r30, 0x01	; 1
 b2c:	66 0f       	add	r22, r22
 b2e:	77 1f       	adc	r23, r23
 b30:	88 1f       	adc	r24, r24
 b32:	bb 1f       	adc	r27, r27
 b34:	62 17       	cp	r22, r18
 b36:	73 07       	cpc	r23, r19
 b38:	84 07       	cpc	r24, r20
 b3a:	ba 07       	cpc	r27, r26
 b3c:	20 f0       	brcs	.+8      	; 0xb46 <__divsf3_pse+0xaa>
 b3e:	62 1b       	sub	r22, r18
 b40:	73 0b       	sbc	r23, r19
 b42:	84 0b       	sbc	r24, r20
 b44:	ba 0b       	sbc	r27, r26
 b46:	ee 1f       	adc	r30, r30
 b48:	88 f7       	brcc	.-30     	; 0xb2c <__divsf3_pse+0x90>
 b4a:	e0 95       	com	r30
 b4c:	08 95       	ret

00000b4e <__fixsfsi>:
 b4e:	04 d0       	rcall	.+8      	; 0xb58 <__fixunssfsi>
 b50:	68 94       	set
 b52:	b1 11       	cpse	r27, r1
 b54:	b8 c0       	rjmp	.+368    	; 0xcc6 <__fp_szero>
 b56:	08 95       	ret

00000b58 <__fixunssfsi>:
 b58:	9b d0       	rcall	.+310    	; 0xc90 <__fp_splitA>
 b5a:	88 f0       	brcs	.+34     	; 0xb7e <__fixunssfsi+0x26>
 b5c:	9f 57       	subi	r25, 0x7F	; 127
 b5e:	90 f0       	brcs	.+36     	; 0xb84 <__fixunssfsi+0x2c>
 b60:	b9 2f       	mov	r27, r25
 b62:	99 27       	eor	r25, r25
 b64:	b7 51       	subi	r27, 0x17	; 23
 b66:	a0 f0       	brcs	.+40     	; 0xb90 <__fixunssfsi+0x38>
 b68:	d1 f0       	breq	.+52     	; 0xb9e <__fixunssfsi+0x46>
 b6a:	66 0f       	add	r22, r22
 b6c:	77 1f       	adc	r23, r23
 b6e:	88 1f       	adc	r24, r24
 b70:	99 1f       	adc	r25, r25
 b72:	1a f0       	brmi	.+6      	; 0xb7a <__fixunssfsi+0x22>
 b74:	ba 95       	dec	r27
 b76:	c9 f7       	brne	.-14     	; 0xb6a <__fixunssfsi+0x12>
 b78:	12 c0       	rjmp	.+36     	; 0xb9e <__fixunssfsi+0x46>
 b7a:	b1 30       	cpi	r27, 0x01	; 1
 b7c:	81 f0       	breq	.+32     	; 0xb9e <__fixunssfsi+0x46>
 b7e:	a2 d0       	rcall	.+324    	; 0xcc4 <__fp_zero>
 b80:	b1 e0       	ldi	r27, 0x01	; 1
 b82:	08 95       	ret
 b84:	9f c0       	rjmp	.+318    	; 0xcc4 <__fp_zero>
 b86:	67 2f       	mov	r22, r23
 b88:	78 2f       	mov	r23, r24
 b8a:	88 27       	eor	r24, r24
 b8c:	b8 5f       	subi	r27, 0xF8	; 248
 b8e:	39 f0       	breq	.+14     	; 0xb9e <__fixunssfsi+0x46>
 b90:	b9 3f       	cpi	r27, 0xF9	; 249
 b92:	cc f3       	brlt	.-14     	; 0xb86 <__fixunssfsi+0x2e>
 b94:	86 95       	lsr	r24
 b96:	77 95       	ror	r23
 b98:	67 95       	ror	r22
 b9a:	b3 95       	inc	r27
 b9c:	d9 f7       	brne	.-10     	; 0xb94 <__fixunssfsi+0x3c>
 b9e:	3e f4       	brtc	.+14     	; 0xbae <__fixunssfsi+0x56>
 ba0:	90 95       	com	r25
 ba2:	80 95       	com	r24
 ba4:	70 95       	com	r23
 ba6:	61 95       	neg	r22
 ba8:	7f 4f       	sbci	r23, 0xFF	; 255
 baa:	8f 4f       	sbci	r24, 0xFF	; 255
 bac:	9f 4f       	sbci	r25, 0xFF	; 255
 bae:	08 95       	ret

00000bb0 <__fp_arccos>:
 bb0:	df 93       	push	r29
 bb2:	cf 93       	push	r28
 bb4:	1f 93       	push	r17
 bb6:	0f 93       	push	r16
 bb8:	8b 01       	movw	r16, r22
 bba:	ec 01       	movw	r28, r24
 bbc:	e9 eb       	ldi	r30, 0xB9	; 185
 bbe:	f0 e0       	ldi	r31, 0x00	; 0
 bc0:	1b d0       	rcall	.+54     	; 0xbf8 <__fp_powser>
 bc2:	4d d0       	rcall	.+154    	; 0xc5e <__fp_round>
 bc4:	98 01       	movw	r18, r16
 bc6:	ae 01       	movw	r20, r28
 bc8:	8b 01       	movw	r16, r22
 bca:	ec 01       	movw	r28, r24
 bcc:	60 e0       	ldi	r22, 0x00	; 0
 bce:	70 e0       	ldi	r23, 0x00	; 0
 bd0:	80 e8       	ldi	r24, 0x80	; 128
 bd2:	9f e3       	ldi	r25, 0x3F	; 63
 bd4:	8d de       	rcall	.-742    	; 0x8f0 <__subsf3>
 bd6:	eb d0       	rcall	.+470    	; 0xdae <sqrt>
 bd8:	98 01       	movw	r18, r16
 bda:	ae 01       	movw	r20, r28
 bdc:	0f 91       	pop	r16
 bde:	1f 91       	pop	r17
 be0:	cf 91       	pop	r28
 be2:	df 91       	pop	r29
 be4:	89 c0       	rjmp	.+274    	; 0xcf8 <__mulsf3x>

00000be6 <__fp_inf>:
 be6:	97 f9       	bld	r25, 7
 be8:	9f 67       	ori	r25, 0x7F	; 127
 bea:	80 e8       	ldi	r24, 0x80	; 128
 bec:	70 e0       	ldi	r23, 0x00	; 0
 bee:	60 e0       	ldi	r22, 0x00	; 0
 bf0:	08 95       	ret

00000bf2 <__fp_nan>:
 bf2:	9f ef       	ldi	r25, 0xFF	; 255
 bf4:	80 ec       	ldi	r24, 0xC0	; 192
 bf6:	08 95       	ret

00000bf8 <__fp_powser>:
 bf8:	df 93       	push	r29
 bfa:	cf 93       	push	r28
 bfc:	1f 93       	push	r17
 bfe:	0f 93       	push	r16
 c00:	ff 92       	push	r15
 c02:	ef 92       	push	r14
 c04:	df 92       	push	r13
 c06:	7b 01       	movw	r14, r22
 c08:	8c 01       	movw	r16, r24
 c0a:	68 94       	set
 c0c:	05 c0       	rjmp	.+10     	; 0xc18 <__fp_powser+0x20>
 c0e:	da 2e       	mov	r13, r26
 c10:	ef 01       	movw	r28, r30
 c12:	72 d0       	rcall	.+228    	; 0xcf8 <__mulsf3x>
 c14:	fe 01       	movw	r30, r28
 c16:	e8 94       	clt
 c18:	a5 91       	lpm	r26, Z+
 c1a:	25 91       	lpm	r18, Z+
 c1c:	35 91       	lpm	r19, Z+
 c1e:	45 91       	lpm	r20, Z+
 c20:	55 91       	lpm	r21, Z+
 c22:	ae f3       	brts	.-22     	; 0xc0e <__fp_powser+0x16>
 c24:	ef 01       	movw	r28, r30
 c26:	76 de       	rcall	.-788    	; 0x914 <__addsf3x>
 c28:	fe 01       	movw	r30, r28
 c2a:	97 01       	movw	r18, r14
 c2c:	a8 01       	movw	r20, r16
 c2e:	da 94       	dec	r13
 c30:	79 f7       	brne	.-34     	; 0xc10 <__fp_powser+0x18>
 c32:	df 90       	pop	r13
 c34:	ef 90       	pop	r14
 c36:	ff 90       	pop	r15
 c38:	0f 91       	pop	r16
 c3a:	1f 91       	pop	r17
 c3c:	cf 91       	pop	r28
 c3e:	df 91       	pop	r29
 c40:	08 95       	ret

00000c42 <__fp_pscA>:
 c42:	00 24       	eor	r0, r0
 c44:	0a 94       	dec	r0
 c46:	16 16       	cp	r1, r22
 c48:	17 06       	cpc	r1, r23
 c4a:	18 06       	cpc	r1, r24
 c4c:	09 06       	cpc	r0, r25
 c4e:	08 95       	ret

00000c50 <__fp_pscB>:
 c50:	00 24       	eor	r0, r0
 c52:	0a 94       	dec	r0
 c54:	12 16       	cp	r1, r18
 c56:	13 06       	cpc	r1, r19
 c58:	14 06       	cpc	r1, r20
 c5a:	05 06       	cpc	r0, r21
 c5c:	08 95       	ret

00000c5e <__fp_round>:
 c5e:	09 2e       	mov	r0, r25
 c60:	03 94       	inc	r0
 c62:	00 0c       	add	r0, r0
 c64:	11 f4       	brne	.+4      	; 0xc6a <__fp_round+0xc>
 c66:	88 23       	and	r24, r24
 c68:	52 f0       	brmi	.+20     	; 0xc7e <__fp_round+0x20>
 c6a:	bb 0f       	add	r27, r27
 c6c:	40 f4       	brcc	.+16     	; 0xc7e <__fp_round+0x20>
 c6e:	bf 2b       	or	r27, r31
 c70:	11 f4       	brne	.+4      	; 0xc76 <__fp_round+0x18>
 c72:	60 ff       	sbrs	r22, 0
 c74:	04 c0       	rjmp	.+8      	; 0xc7e <__fp_round+0x20>
 c76:	6f 5f       	subi	r22, 0xFF	; 255
 c78:	7f 4f       	sbci	r23, 0xFF	; 255
 c7a:	8f 4f       	sbci	r24, 0xFF	; 255
 c7c:	9f 4f       	sbci	r25, 0xFF	; 255
 c7e:	08 95       	ret

00000c80 <__fp_split3>:
 c80:	57 fd       	sbrc	r21, 7
 c82:	90 58       	subi	r25, 0x80	; 128
 c84:	44 0f       	add	r20, r20
 c86:	55 1f       	adc	r21, r21
 c88:	59 f0       	breq	.+22     	; 0xca0 <__fp_splitA+0x10>
 c8a:	5f 3f       	cpi	r21, 0xFF	; 255
 c8c:	71 f0       	breq	.+28     	; 0xcaa <__fp_splitA+0x1a>
 c8e:	47 95       	ror	r20

00000c90 <__fp_splitA>:
 c90:	88 0f       	add	r24, r24
 c92:	97 fb       	bst	r25, 7
 c94:	99 1f       	adc	r25, r25
 c96:	61 f0       	breq	.+24     	; 0xcb0 <__fp_splitA+0x20>
 c98:	9f 3f       	cpi	r25, 0xFF	; 255
 c9a:	79 f0       	breq	.+30     	; 0xcba <__fp_splitA+0x2a>
 c9c:	87 95       	ror	r24
 c9e:	08 95       	ret
 ca0:	12 16       	cp	r1, r18
 ca2:	13 06       	cpc	r1, r19
 ca4:	14 06       	cpc	r1, r20
 ca6:	55 1f       	adc	r21, r21
 ca8:	f2 cf       	rjmp	.-28     	; 0xc8e <__fp_split3+0xe>
 caa:	46 95       	lsr	r20
 cac:	f1 df       	rcall	.-30     	; 0xc90 <__fp_splitA>
 cae:	08 c0       	rjmp	.+16     	; 0xcc0 <__fp_splitA+0x30>
 cb0:	16 16       	cp	r1, r22
 cb2:	17 06       	cpc	r1, r23
 cb4:	18 06       	cpc	r1, r24
 cb6:	99 1f       	adc	r25, r25
 cb8:	f1 cf       	rjmp	.-30     	; 0xc9c <__fp_splitA+0xc>
 cba:	86 95       	lsr	r24
 cbc:	71 05       	cpc	r23, r1
 cbe:	61 05       	cpc	r22, r1
 cc0:	08 94       	sec
 cc2:	08 95       	ret

00000cc4 <__fp_zero>:
 cc4:	e8 94       	clt

00000cc6 <__fp_szero>:
 cc6:	bb 27       	eor	r27, r27
 cc8:	66 27       	eor	r22, r22
 cca:	77 27       	eor	r23, r23
 ccc:	cb 01       	movw	r24, r22
 cce:	97 f9       	bld	r25, 7
 cd0:	08 95       	ret

00000cd2 <inverse>:
 cd2:	9b 01       	movw	r18, r22
 cd4:	ac 01       	movw	r20, r24
 cd6:	60 e0       	ldi	r22, 0x00	; 0
 cd8:	70 e0       	ldi	r23, 0x00	; 0
 cda:	80 e8       	ldi	r24, 0x80	; 128
 cdc:	9f e3       	ldi	r25, 0x3F	; 63
 cde:	cf ce       	rjmp	.-610    	; 0xa7e <__divsf3>

00000ce0 <__mulsf3>:
 ce0:	0b d0       	rcall	.+22     	; 0xcf8 <__mulsf3x>
 ce2:	bd cf       	rjmp	.-134    	; 0xc5e <__fp_round>
 ce4:	ae df       	rcall	.-164    	; 0xc42 <__fp_pscA>
 ce6:	28 f0       	brcs	.+10     	; 0xcf2 <__mulsf3+0x12>
 ce8:	b3 df       	rcall	.-154    	; 0xc50 <__fp_pscB>
 cea:	18 f0       	brcs	.+6      	; 0xcf2 <__mulsf3+0x12>
 cec:	95 23       	and	r25, r21
 cee:	09 f0       	breq	.+2      	; 0xcf2 <__mulsf3+0x12>
 cf0:	7a cf       	rjmp	.-268    	; 0xbe6 <__fp_inf>
 cf2:	7f cf       	rjmp	.-258    	; 0xbf2 <__fp_nan>
 cf4:	11 24       	eor	r1, r1
 cf6:	e7 cf       	rjmp	.-50     	; 0xcc6 <__fp_szero>

00000cf8 <__mulsf3x>:
 cf8:	c3 df       	rcall	.-122    	; 0xc80 <__fp_split3>
 cfa:	a0 f3       	brcs	.-24     	; 0xce4 <__mulsf3+0x4>

00000cfc <__mulsf3_pse>:
 cfc:	95 9f       	mul	r25, r21
 cfe:	d1 f3       	breq	.-12     	; 0xcf4 <__mulsf3+0x14>
 d00:	95 0f       	add	r25, r21
 d02:	50 e0       	ldi	r21, 0x00	; 0
 d04:	55 1f       	adc	r21, r21
 d06:	62 9f       	mul	r22, r18
 d08:	f0 01       	movw	r30, r0
 d0a:	72 9f       	mul	r23, r18
 d0c:	bb 27       	eor	r27, r27
 d0e:	f0 0d       	add	r31, r0
 d10:	b1 1d       	adc	r27, r1
 d12:	63 9f       	mul	r22, r19
 d14:	aa 27       	eor	r26, r26
 d16:	f0 0d       	add	r31, r0
 d18:	b1 1d       	adc	r27, r1
 d1a:	aa 1f       	adc	r26, r26
 d1c:	64 9f       	mul	r22, r20
 d1e:	66 27       	eor	r22, r22
 d20:	b0 0d       	add	r27, r0
 d22:	a1 1d       	adc	r26, r1
 d24:	66 1f       	adc	r22, r22
 d26:	82 9f       	mul	r24, r18
 d28:	22 27       	eor	r18, r18
 d2a:	b0 0d       	add	r27, r0
 d2c:	a1 1d       	adc	r26, r1
 d2e:	62 1f       	adc	r22, r18
 d30:	73 9f       	mul	r23, r19
 d32:	b0 0d       	add	r27, r0
 d34:	a1 1d       	adc	r26, r1
 d36:	62 1f       	adc	r22, r18
 d38:	83 9f       	mul	r24, r19
 d3a:	a0 0d       	add	r26, r0
 d3c:	61 1d       	adc	r22, r1
 d3e:	22 1f       	adc	r18, r18
 d40:	74 9f       	mul	r23, r20
 d42:	33 27       	eor	r19, r19
 d44:	a0 0d       	add	r26, r0
 d46:	61 1d       	adc	r22, r1
 d48:	23 1f       	adc	r18, r19
 d4a:	84 9f       	mul	r24, r20
 d4c:	60 0d       	add	r22, r0
 d4e:	21 1d       	adc	r18, r1
 d50:	82 2f       	mov	r24, r18
 d52:	76 2f       	mov	r23, r22
 d54:	6a 2f       	mov	r22, r26
 d56:	11 24       	eor	r1, r1
 d58:	9f 57       	subi	r25, 0x7F	; 127
 d5a:	50 40       	sbci	r21, 0x00	; 0
 d5c:	8a f0       	brmi	.+34     	; 0xd80 <__mulsf3_pse+0x84>
 d5e:	e1 f0       	breq	.+56     	; 0xd98 <__mulsf3_pse+0x9c>
 d60:	88 23       	and	r24, r24
 d62:	4a f0       	brmi	.+18     	; 0xd76 <__mulsf3_pse+0x7a>
 d64:	ee 0f       	add	r30, r30
 d66:	ff 1f       	adc	r31, r31
 d68:	bb 1f       	adc	r27, r27
 d6a:	66 1f       	adc	r22, r22
 d6c:	77 1f       	adc	r23, r23
 d6e:	88 1f       	adc	r24, r24
 d70:	91 50       	subi	r25, 0x01	; 1
 d72:	50 40       	sbci	r21, 0x00	; 0
 d74:	a9 f7       	brne	.-22     	; 0xd60 <__mulsf3_pse+0x64>
 d76:	9e 3f       	cpi	r25, 0xFE	; 254
 d78:	51 05       	cpc	r21, r1
 d7a:	70 f0       	brcs	.+28     	; 0xd98 <__mulsf3_pse+0x9c>
 d7c:	34 cf       	rjmp	.-408    	; 0xbe6 <__fp_inf>
 d7e:	a3 cf       	rjmp	.-186    	; 0xcc6 <__fp_szero>
 d80:	5f 3f       	cpi	r21, 0xFF	; 255
 d82:	ec f3       	brlt	.-6      	; 0xd7e <__mulsf3_pse+0x82>
 d84:	98 3e       	cpi	r25, 0xE8	; 232
 d86:	dc f3       	brlt	.-10     	; 0xd7e <__mulsf3_pse+0x82>
 d88:	86 95       	lsr	r24
 d8a:	77 95       	ror	r23
 d8c:	67 95       	ror	r22
 d8e:	b7 95       	ror	r27
 d90:	f7 95       	ror	r31
 d92:	e7 95       	ror	r30
 d94:	9f 5f       	subi	r25, 0xFF	; 255
 d96:	c1 f7       	brne	.-16     	; 0xd88 <__mulsf3_pse+0x8c>
 d98:	fe 2b       	or	r31, r30
 d9a:	88 0f       	add	r24, r24
 d9c:	91 1d       	adc	r25, r1
 d9e:	96 95       	lsr	r25
 da0:	87 95       	ror	r24
 da2:	97 f9       	bld	r25, 7
 da4:	08 95       	ret
 da6:	11 f4       	brne	.+4      	; 0xdac <__mulsf3_pse+0xb0>
 da8:	0e f4       	brtc	.+2      	; 0xdac <__mulsf3_pse+0xb0>
 daa:	23 cf       	rjmp	.-442    	; 0xbf2 <__fp_nan>
 dac:	41 c0       	rjmp	.+130    	; 0xe30 <__fp_mpack>

00000dae <sqrt>:
 dae:	70 df       	rcall	.-288    	; 0xc90 <__fp_splitA>
 db0:	d0 f3       	brcs	.-12     	; 0xda6 <__mulsf3_pse+0xaa>
 db2:	99 23       	and	r25, r25
 db4:	d9 f3       	breq	.-10     	; 0xdac <__mulsf3_pse+0xb0>
 db6:	ce f3       	brts	.-14     	; 0xdaa <__mulsf3_pse+0xae>
 db8:	9f 57       	subi	r25, 0x7F	; 127
 dba:	55 0b       	sbc	r21, r21
 dbc:	87 ff       	sbrs	r24, 7
 dbe:	46 d0       	rcall	.+140    	; 0xe4c <__fp_norm2>
 dc0:	00 24       	eor	r0, r0
 dc2:	a0 e6       	ldi	r26, 0x60	; 96
 dc4:	40 ea       	ldi	r20, 0xA0	; 160
 dc6:	90 01       	movw	r18, r0
 dc8:	80 58       	subi	r24, 0x80	; 128
 dca:	56 95       	lsr	r21
 dcc:	97 95       	ror	r25
 dce:	28 f4       	brcc	.+10     	; 0xdda <sqrt+0x2c>
 dd0:	80 5c       	subi	r24, 0xC0	; 192
 dd2:	66 0f       	add	r22, r22
 dd4:	77 1f       	adc	r23, r23
 dd6:	88 1f       	adc	r24, r24
 dd8:	20 f0       	brcs	.+8      	; 0xde2 <sqrt+0x34>
 dda:	26 17       	cp	r18, r22
 ddc:	37 07       	cpc	r19, r23
 dde:	48 07       	cpc	r20, r24
 de0:	30 f4       	brcc	.+12     	; 0xdee <sqrt+0x40>
 de2:	62 1b       	sub	r22, r18
 de4:	73 0b       	sbc	r23, r19
 de6:	84 0b       	sbc	r24, r20
 de8:	20 29       	or	r18, r0
 dea:	31 29       	or	r19, r1
 dec:	4a 2b       	or	r20, r26
 dee:	a6 95       	lsr	r26
 df0:	17 94       	ror	r1
 df2:	07 94       	ror	r0
 df4:	20 25       	eor	r18, r0
 df6:	31 25       	eor	r19, r1
 df8:	4a 27       	eor	r20, r26
 dfa:	58 f7       	brcc	.-42     	; 0xdd2 <sqrt+0x24>
 dfc:	66 0f       	add	r22, r22
 dfe:	77 1f       	adc	r23, r23
 e00:	88 1f       	adc	r24, r24
 e02:	20 f0       	brcs	.+8      	; 0xe0c <sqrt+0x5e>
 e04:	26 17       	cp	r18, r22
 e06:	37 07       	cpc	r19, r23
 e08:	48 07       	cpc	r20, r24
 e0a:	30 f4       	brcc	.+12     	; 0xe18 <sqrt+0x6a>
 e0c:	62 0b       	sbc	r22, r18
 e0e:	73 0b       	sbc	r23, r19
 e10:	84 0b       	sbc	r24, r20
 e12:	20 0d       	add	r18, r0
 e14:	31 1d       	adc	r19, r1
 e16:	41 1d       	adc	r20, r1
 e18:	a0 95       	com	r26
 e1a:	81 f7       	brne	.-32     	; 0xdfc <sqrt+0x4e>
 e1c:	b9 01       	movw	r22, r18
 e1e:	84 2f       	mov	r24, r20
 e20:	91 58       	subi	r25, 0x81	; 129
 e22:	88 0f       	add	r24, r24
 e24:	96 95       	lsr	r25
 e26:	87 95       	ror	r24
 e28:	08 95       	ret

00000e2a <square>:
 e2a:	9b 01       	movw	r18, r22
 e2c:	ac 01       	movw	r20, r24
 e2e:	58 cf       	rjmp	.-336    	; 0xce0 <__mulsf3>

00000e30 <__fp_mpack>:
 e30:	9f 3f       	cpi	r25, 0xFF	; 255
 e32:	31 f0       	breq	.+12     	; 0xe40 <__fp_mpack_finite+0xc>

00000e34 <__fp_mpack_finite>:
 e34:	91 50       	subi	r25, 0x01	; 1
 e36:	20 f4       	brcc	.+8      	; 0xe40 <__fp_mpack_finite+0xc>
 e38:	87 95       	ror	r24
 e3a:	77 95       	ror	r23
 e3c:	67 95       	ror	r22
 e3e:	b7 95       	ror	r27
 e40:	88 0f       	add	r24, r24
 e42:	91 1d       	adc	r25, r1
 e44:	96 95       	lsr	r25
 e46:	87 95       	ror	r24
 e48:	97 f9       	bld	r25, 7
 e4a:	08 95       	ret

00000e4c <__fp_norm2>:
 e4c:	91 50       	subi	r25, 0x01	; 1
 e4e:	50 40       	sbci	r21, 0x00	; 0
 e50:	66 0f       	add	r22, r22
 e52:	77 1f       	adc	r23, r23
 e54:	88 1f       	adc	r24, r24
 e56:	d2 f7       	brpl	.-12     	; 0xe4c <__fp_norm2>
 e58:	08 95       	ret

00000e5a <__divmodsi4>:
 e5a:	05 2e       	mov	r0, r21
 e5c:	97 fb       	bst	r25, 7
 e5e:	16 f4       	brtc	.+4      	; 0xe64 <__divmodsi4+0xa>
 e60:	00 94       	com	r0
 e62:	0f d0       	rcall	.+30     	; 0xe82 <__negsi2>
 e64:	57 fd       	sbrc	r21, 7
 e66:	05 d0       	rcall	.+10     	; 0xe72 <__divmodsi4_neg2>
 e68:	1e d0       	rcall	.+60     	; 0xea6 <__udivmodsi4>
 e6a:	07 fc       	sbrc	r0, 7
 e6c:	02 d0       	rcall	.+4      	; 0xe72 <__divmodsi4_neg2>
 e6e:	46 f4       	brtc	.+16     	; 0xe80 <__divmodsi4_exit>
 e70:	08 c0       	rjmp	.+16     	; 0xe82 <__negsi2>

00000e72 <__divmodsi4_neg2>:
 e72:	50 95       	com	r21
 e74:	40 95       	com	r20
 e76:	30 95       	com	r19
 e78:	21 95       	neg	r18
 e7a:	3f 4f       	sbci	r19, 0xFF	; 255
 e7c:	4f 4f       	sbci	r20, 0xFF	; 255
 e7e:	5f 4f       	sbci	r21, 0xFF	; 255

00000e80 <__divmodsi4_exit>:
 e80:	08 95       	ret

00000e82 <__negsi2>:
 e82:	90 95       	com	r25
 e84:	80 95       	com	r24
 e86:	70 95       	com	r23
 e88:	61 95       	neg	r22
 e8a:	7f 4f       	sbci	r23, 0xFF	; 255
 e8c:	8f 4f       	sbci	r24, 0xFF	; 255
 e8e:	9f 4f       	sbci	r25, 0xFF	; 255
 e90:	08 95       	ret

00000e92 <__muluhisi3>:
 e92:	2b d0       	rcall	.+86     	; 0xeea <__umulhisi3>
 e94:	a5 9f       	mul	r26, r21
 e96:	90 0d       	add	r25, r0
 e98:	b4 9f       	mul	r27, r20
 e9a:	90 0d       	add	r25, r0
 e9c:	a4 9f       	mul	r26, r20
 e9e:	80 0d       	add	r24, r0
 ea0:	91 1d       	adc	r25, r1
 ea2:	11 24       	eor	r1, r1
 ea4:	08 95       	ret

00000ea6 <__udivmodsi4>:
 ea6:	a1 e2       	ldi	r26, 0x21	; 33
 ea8:	1a 2e       	mov	r1, r26
 eaa:	aa 1b       	sub	r26, r26
 eac:	bb 1b       	sub	r27, r27
 eae:	fd 01       	movw	r30, r26
 eb0:	0d c0       	rjmp	.+26     	; 0xecc <__udivmodsi4_ep>

00000eb2 <__udivmodsi4_loop>:
 eb2:	aa 1f       	adc	r26, r26
 eb4:	bb 1f       	adc	r27, r27
 eb6:	ee 1f       	adc	r30, r30
 eb8:	ff 1f       	adc	r31, r31
 eba:	a2 17       	cp	r26, r18
 ebc:	b3 07       	cpc	r27, r19
 ebe:	e4 07       	cpc	r30, r20
 ec0:	f5 07       	cpc	r31, r21
 ec2:	20 f0       	brcs	.+8      	; 0xecc <__udivmodsi4_ep>
 ec4:	a2 1b       	sub	r26, r18
 ec6:	b3 0b       	sbc	r27, r19
 ec8:	e4 0b       	sbc	r30, r20
 eca:	f5 0b       	sbc	r31, r21

00000ecc <__udivmodsi4_ep>:
 ecc:	66 1f       	adc	r22, r22
 ece:	77 1f       	adc	r23, r23
 ed0:	88 1f       	adc	r24, r24
 ed2:	99 1f       	adc	r25, r25
 ed4:	1a 94       	dec	r1
 ed6:	69 f7       	brne	.-38     	; 0xeb2 <__udivmodsi4_loop>
 ed8:	60 95       	com	r22
 eda:	70 95       	com	r23
 edc:	80 95       	com	r24
 ede:	90 95       	com	r25
 ee0:	9b 01       	movw	r18, r22
 ee2:	ac 01       	movw	r20, r24
 ee4:	bd 01       	movw	r22, r26
 ee6:	cf 01       	movw	r24, r30
 ee8:	08 95       	ret

00000eea <__umulhisi3>:
 eea:	a2 9f       	mul	r26, r18
 eec:	b0 01       	movw	r22, r0
 eee:	b3 9f       	mul	r27, r19
 ef0:	c0 01       	movw	r24, r0
 ef2:	a3 9f       	mul	r26, r19
 ef4:	70 0d       	add	r23, r0
 ef6:	81 1d       	adc	r24, r1
 ef8:	11 24       	eor	r1, r1
 efa:	91 1d       	adc	r25, r1
 efc:	b2 9f       	mul	r27, r18
 efe:	70 0d       	add	r23, r0
 f00:	81 1d       	adc	r24, r1
 f02:	11 24       	eor	r1, r1
 f04:	91 1d       	adc	r25, r1
 f06:	08 95       	ret

00000f08 <_exit>:
 f08:	f8 94       	cli

00000f0a <__stop_program>:
 f0a:	ff cf       	rjmp	.-2      	; 0xf0a <__stop_program>
