
GccApplication3.elf:     file format elf32-avr

Sections:
Idx Name          Size      VMA       LMA       File off  Algn
  0 .text         00002024  00000000  00000000  00000094  2**1
                  CONTENTS, ALLOC, LOAD, READONLY, CODE
  1 .data         00000002  00800060  00002024  000020b8  2**0
                  CONTENTS, ALLOC, LOAD, DATA
  2 .bss          000001af  00800062  00800062  000020ba  2**0
                  ALLOC
  3 .comment      00000030  00000000  00000000  000020ba  2**0
                  CONTENTS, READONLY
  4 .debug_aranges 000000a0  00000000  00000000  000020ea  2**0
                  CONTENTS, READONLY, DEBUGGING
  5 .debug_info   00001097  00000000  00000000  0000218a  2**0
                  CONTENTS, READONLY, DEBUGGING
  6 .debug_abbrev 00000394  00000000  00000000  00003221  2**0
                  CONTENTS, READONLY, DEBUGGING
  7 .debug_line   00000478  00000000  00000000  000035b5  2**0
                  CONTENTS, READONLY, DEBUGGING
  8 .debug_frame  00000200  00000000  00000000  00003a30  2**2
                  CONTENTS, READONLY, DEBUGGING
  9 .debug_str    00000602  00000000  00000000  00003c30  2**0
                  CONTENTS, READONLY, DEBUGGING
 10 .debug_loc    00000cbd  00000000  00000000  00004232  2**0
                  CONTENTS, READONLY, DEBUGGING
 11 .debug_ranges 00000150  00000000  00000000  00004eef  2**0
                  CONTENTS, READONLY, DEBUGGING

Disassembly of section .text:

00000000 <__vectors>:
       0:	0c 94 58 05 	jmp	0xab0	; 0xab0 <__ctors_end>
       4:	0c 94 75 05 	jmp	0xaea	; 0xaea <__bad_interrupt>
       8:	0c 94 75 05 	jmp	0xaea	; 0xaea <__bad_interrupt>
       c:	0c 94 75 05 	jmp	0xaea	; 0xaea <__bad_interrupt>
      10:	0c 94 75 05 	jmp	0xaea	; 0xaea <__bad_interrupt>
      14:	0c 94 75 05 	jmp	0xaea	; 0xaea <__bad_interrupt>
      18:	0c 94 75 05 	jmp	0xaea	; 0xaea <__bad_interrupt>
      1c:	0c 94 75 05 	jmp	0xaea	; 0xaea <__bad_interrupt>
      20:	0c 94 75 05 	jmp	0xaea	; 0xaea <__bad_interrupt>
      24:	0c 94 75 05 	jmp	0xaea	; 0xaea <__bad_interrupt>
      28:	0c 94 36 09 	jmp	0x126c	; 0x126c <__vector_10>
      2c:	0c 94 75 05 	jmp	0xaea	; 0xaea <__bad_interrupt>
      30:	0c 94 75 05 	jmp	0xaea	; 0xaea <__bad_interrupt>
      34:	0c 94 75 05 	jmp	0xaea	; 0xaea <__bad_interrupt>
      38:	0c 94 75 05 	jmp	0xaea	; 0xaea <__bad_interrupt>
      3c:	0c 94 75 05 	jmp	0xaea	; 0xaea <__bad_interrupt>
      40:	0c 94 75 05 	jmp	0xaea	; 0xaea <__bad_interrupt>
      44:	0c 94 75 05 	jmp	0xaea	; 0xaea <__bad_interrupt>
      48:	0c 94 90 09 	jmp	0x1320	; 0x1320 <__vector_18>
      4c:	0c 94 75 05 	jmp	0xaea	; 0xaea <__bad_interrupt>
      50:	0c 94 75 05 	jmp	0xaea	; 0xaea <__bad_interrupt>
      54:	2e 07       	cpc	r18, r30
      56:	36 07       	cpc	r19, r22
      58:	3e 07       	cpc	r19, r30
      5a:	46 07       	cpc	r20, r22
      5c:	4e 07       	cpc	r20, r30
      5e:	56 07       	cpc	r21, r22
      60:	5e 07       	cpc	r21, r30
      62:	66 07       	cpc	r22, r22
      64:	03 6e       	ori	r16, 0xE3	; 227
      66:	db 36       	cpi	r29, 0x6B	; 107
      68:	3d 9a       	sbi	0x07, 5	; 7
      6a:	99 99       	sbic	0x13, 1	; 19
      6c:	99 3d       	cpi	r25, 0xD9	; 217
      6e:	ab aa       	std	Y+51, r10	; 0x33
      70:	aa 2a       	or	r10, r26
      72:	3e 00       	.word	0x003e	; ????
      74:	00 00       	nop
      76:	80 3f       	cpi	r24, 0xF0	; 240
      78:	07 2c       	mov	r0, r7
      7a:	7a a5       	ldd	r23, Y+42	; 0x2a
      7c:	ba 6c       	ori	r27, 0xCA	; 202
      7e:	c5 90       	lpm	r12, Z+
      80:	da 3b       	cpi	r29, 0xBA	; 186
      82:	93 65       	ori	r25, 0x53	; 83
      84:	fc 8b       	std	Y+20, r31	; 0x14
      86:	bc 53       	subi	r27, 0x3C	; 60
      88:	f8 10       	cpse	r15, r8
      8a:	fd 3c       	cpi	r31, 0xCD	; 205
      8c:	56 92       	lac	Z, r5
      8e:	83 4d       	sbci	r24, 0xD3	; 211
      90:	bd 87       	std	Y+13, r27	; 0x0d
      92:	9d 3a       	cpi	r25, 0xAD	; 173
      94:	b6 3d       	cpi	r27, 0xD6	; 214
      96:	cb c9       	rjmp	.-3178   	; 0xfffff42e <__eeprom_end+0xff7ef42e>
      98:	bf 5b       	subi	r27, 0xBF	; 191
      9a:	be 73       	andi	r27, 0x3E	; 62
      9c:	da 0f       	add	r29, r26
      9e:	c9 3f       	cpi	r28, 0xF9	; 249

000000a0 <__trampolines_end>:
      a0:	20 03       	mulsu	r18, r16
      a2:	20 03       	mulsu	r18, r16
      a4:	20 03       	mulsu	r18, r16
      a6:	20 03       	mulsu	r18, r16
      a8:	20 03       	mulsu	r18, r16
      aa:	20 03       	mulsu	r18, r16
      ac:	20 03       	mulsu	r18, r16
      ae:	20 03       	mulsu	r18, r16
      b0:	20 03       	mulsu	r18, r16
      b2:	20 03       	mulsu	r18, r16
      b4:	20 03       	mulsu	r18, r16
      b6:	20 03       	mulsu	r18, r16
      b8:	20 03       	mulsu	r18, r16
      ba:	20 03       	mulsu	r18, r16
      bc:	20 03       	mulsu	r18, r16
      be:	20 03       	mulsu	r18, r16
      c0:	20 03       	mulsu	r18, r16
      c2:	20 03       	mulsu	r18, r16
      c4:	20 03       	mulsu	r18, r16
      c6:	20 03       	mulsu	r18, r16
      c8:	20 03       	mulsu	r18, r16
      ca:	20 03       	mulsu	r18, r16
      cc:	20 03       	mulsu	r18, r16
      ce:	20 03       	mulsu	r18, r16
      d0:	0c 03       	fmul	r16, r20
      d2:	ee 02       	muls	r30, r30
      d4:	df 02       	muls	r29, r31
      d6:	d0 02       	muls	r29, r16
      d8:	b2 02       	muls	r27, r18
      da:	9e 02       	muls	r25, r30
      dc:	8a 02       	muls	r24, r26
      de:	58 02       	muls	r21, r24
      e0:	44 02       	muls	r20, r20
      e2:	30 02       	muls	r19, r16
      e4:	1c 02       	muls	r17, r28
      e6:	08 02       	muls	r16, r24
      e8:	fe 01       	movw	r30, r28
      ea:	f4 01       	movw	r30, r8
      ec:	ea 01       	movw	r28, r20
      ee:	cc 01       	movw	r24, r24
      f0:	b8 01       	movw	r22, r16
      f2:	ae 01       	movw	r20, r28
      f4:	a4 01       	movw	r20, r8
      f6:	9a 01       	movw	r18, r20
      f8:	86 01       	movw	r16, r12
      fa:	7c 01       	movw	r14, r24
      fc:	72 01       	movw	r14, r4
      fe:	68 01       	movw	r12, r16
     100:	5e 01       	movw	r10, r28
     102:	54 01       	movw	r10, r8
     104:	4a 01       	movw	r8, r20
     106:	40 01       	movw	r8, r0
     108:	36 01       	movw	r6, r12
     10a:	30 01       	movw	r6, r0
     10c:	29 01       	movw	r4, r18
     10e:	23 01       	movw	r4, r6
     110:	16 01       	movw	r2, r12
     112:	10 01       	movw	r2, r0
     114:	0e 01       	movw	r0, r28
     116:	0c 01       	movw	r0, r24
     118:	02 01       	movw	r0, r4
     11a:	ff 00       	.word	0x00ff	; ????
     11c:	fc 00       	.word	0x00fc	; ????
     11e:	ee 00       	.word	0x00ee	; ????
     120:	87 00       	.word	0x0087	; ????
     122:	e8 00       	.word	0x00e8	; ????
     124:	e4 00       	.word	0x00e4	; ????
     126:	e1 00       	.word	0x00e1	; ????
     128:	df 00       	.word	0x00df	; ????
     12a:	dc 00       	.word	0x00dc	; ????
     12c:	d7 00       	.word	0x00d7	; ????
     12e:	d0 00       	.word	0x00d0	; ????
     130:	cd 00       	.word	0x00cd	; ????
     132:	cb 00       	.word	0x00cb	; ????
     134:	c9 00       	.word	0x00c9	; ????
     136:	c7 00       	.word	0x00c7	; ????
     138:	c2 00       	.word	0x00c2	; ????
     13a:	c0 00       	.word	0x00c0	; ????
     13c:	be 00       	.word	0x00be	; ????
     13e:	b8 00       	.word	0x00b8	; ????
     140:	b6 00       	.word	0x00b6	; ????
     142:	b4 00       	.word	0x00b4	; ????
     144:	b2 00       	.word	0x00b2	; ????
     146:	af 00       	.word	0x00af	; ????
     148:	ad 00       	.word	0x00ad	; ????
     14a:	ab 00       	.word	0x00ab	; ????
     14c:	a9 00       	.word	0x00a9	; ????
     14e:	a7 00       	.word	0x00a7	; ????
     150:	a4 00       	.word	0x00a4	; ????
     152:	a1 00       	.word	0x00a1	; ????
     154:	a0 00       	.word	0x00a0	; ????
     156:	9e 00       	.word	0x009e	; ????
     158:	9d 00       	.word	0x009d	; ????
     15a:	9b 00       	.word	0x009b	; ????
     15c:	99 00       	.word	0x0099	; ????
     15e:	98 00       	.word	0x0098	; ????
     160:	95 00       	.word	0x0095	; ????
     162:	93 00       	.word	0x0093	; ????
     164:	91 00       	.word	0x0091	; ????
     166:	8f 00       	.word	0x008f	; ????
     168:	8d 00       	.word	0x008d	; ????
     16a:	8c 00       	.word	0x008c	; ????
     16c:	8b 00       	.word	0x008b	; ????
     16e:	89 00       	.word	0x0089	; ????
     170:	87 00       	.word	0x0087	; ????
     172:	86 00       	.word	0x0086	; ????
     174:	85 00       	.word	0x0085	; ????
     176:	84 00       	.word	0x0084	; ????
     178:	82 00       	.word	0x0082	; ????
     17a:	81 00       	.word	0x0081	; ????
     17c:	80 00       	.word	0x0080	; ????
     17e:	7f 00       	.word	0x007f	; ????
     180:	7d 00       	.word	0x007d	; ????
     182:	7b 00       	.word	0x007b	; ????
     184:	7a 00       	.word	0x007a	; ????
     186:	79 00       	.word	0x0079	; ????
     188:	78 00       	.word	0x0078	; ????
     18a:	77 00       	.word	0x0077	; ????
     18c:	77 00       	.word	0x0077	; ????
     18e:	76 00       	.word	0x0076	; ????
     190:	74 00       	.word	0x0074	; ????
     192:	73 00       	.word	0x0073	; ????
     194:	72 00       	.word	0x0072	; ????
     196:	71 00       	.word	0x0071	; ????
     198:	70 00       	.word	0x0070	; ????
     19a:	6f 00       	.word	0x006f	; ????
     19c:	6e 00       	.word	0x006e	; ????
     19e:	6d 00       	.word	0x006d	; ????
     1a0:	6c 00       	.word	0x006c	; ????
     1a2:	6b 00       	.word	0x006b	; ????
     1a4:	6a 00       	.word	0x006a	; ????
     1a6:	69 00       	.word	0x0069	; ????
     1a8:	68 00       	.word	0x0068	; ????
     1aa:	67 00       	.word	0x0067	; ????
     1ac:	66 00       	.word	0x0066	; ????
     1ae:	65 00       	.word	0x0065	; ????
     1b0:	64 00       	.word	0x0064	; ????
     1b2:	63 00       	.word	0x0063	; ????
     1b4:	62 00       	.word	0x0062	; ????
     1b6:	61 00       	.word	0x0061	; ????
     1b8:	60 00       	.word	0x0060	; ????
     1ba:	5f 00       	.word	0x005f	; ????
     1bc:	5e 00       	.word	0x005e	; ????
     1be:	5e 00       	.word	0x005e	; ????
     1c0:	5d 00       	.word	0x005d	; ????
     1c2:	5c 00       	.word	0x005c	; ????
     1c4:	5b 00       	.word	0x005b	; ????
     1c6:	5b 00       	.word	0x005b	; ????
     1c8:	5a 00       	.word	0x005a	; ????
     1ca:	5a 00       	.word	0x005a	; ????
     1cc:	59 00       	.word	0x0059	; ????
     1ce:	59 00       	.word	0x0059	; ????
     1d0:	57 00       	.word	0x0057	; ????
     1d2:	56 00       	.word	0x0056	; ????
     1d4:	56 00       	.word	0x0056	; ????
     1d6:	55 00       	.word	0x0055	; ????
     1d8:	55 00       	.word	0x0055	; ????
     1da:	54 00       	.word	0x0054	; ????
     1dc:	53 00       	.word	0x0053	; ????
     1de:	52 00       	.word	0x0052	; ????
     1e0:	52 00       	.word	0x0052	; ????

000001e2 <distanceTable7>:
     1e2:	20 03 20 03 20 03 20 03 20 03 20 03 20 03 20 03      . . . . . . . .
     1f2:	20 03 20 03 20 03 20 03 20 03 20 03 20 03 20 03      . . . . . . . .
     202:	20 03 20 03 20 03 20 03 20 03 20 03 20 03 20 03      . . . . . . . .
     212:	20 03 16 03 02 03 ee 02 b2 02 a3 02 94 02 62 02      .............b.
     222:	4e 02 3a 02 26 02 12 02 fe 01 f4 01 ea 01 cc 01     N.:.&...........
     232:	b8 01 ae 01 a4 01 9a 01 86 01 7c 01 77 01 72 01     ..........|.w.r.
     242:	5e 01 54 01 4f 01 4a 01 40 01 36 01 32 01 2c 01     ^.T.O.J.@.6.2.,.
     252:	1e 01 1a 01 15 01 10 01 07 01 fa 00 01 01 f4 00     ................
     262:	f1 00 ef 00 eb 00 e7 00 e3 00 e1 00 e0 00 d7 00     ................
     272:	d5 00 cf 00 cd 00 cc 00 c7 00 c4 00 c1 00 bc 00     ................
     282:	b9 00 b8 00 b6 00 b3 00 b0 00 af 00 ad 00 ab 00     ................
     292:	a8 00 a5 00 a3 00 a1 00 a0 00 9e 00 9d 00 9b 00     ................
     2a2:	97 00 96 00 94 00 92 00 91 00 90 00 8f 00 8c 00     ................
     2b2:	8b 00 8a 00 89 00 88 00 86 00 85 00 84 00 83 00     ................
     2c2:	81 00 7f 00 7e 00 7d 00 7c 00 7b 00 7a 00 79 00     ....~.}.|.{.z.y.
     2d2:	77 00 76 00 75 00 75 00 73 00 72 00 71 00 70 00     w.v.u.u.s.r.q.p.
     2e2:	6f 00 6e 00 6d 00 6c 00 6b 00 6a 00 69 00 67 00     o.n.m.l.k.j.i.g.
     2f2:	66 00 65 00 65 00 64 00 64 00 63 00 62 00 60 00     f.e.e.d.d.c.b.`.
     302:	5f 00 5e 00 5e 00 5d 00 5c 00 5b 00 5b 00 5a 00     _.^.^.].\.[.[.Z.
     312:	59 00 58 00 57 00 57 00 56 00 54 00 53 00 53 00     Y.X.W.W.V.T.S.S.
     322:	53 00                                               S.

00000324 <distanceTable6>:
     324:	20 03 20 03 20 03 20 03 20 03 20 03 20 03 20 03      . . . . . . . .
     334:	20 03 20 03 20 03 20 03 20 03 20 03 20 03 20 03      . . . . . . . .
     344:	20 03 20 03 20 03 20 03 20 03 20 03 20 03 20 03      . . . . . . . .
     354:	20 03 f8 02 ee 02 d0 02 b2 02 9e 02 8a 02 58 02      .............X.
     364:	44 02 30 02 26 02 08 02 f4 01 ea 01 e0 01 c2 01     D.0.&...........
     374:	b8 01 ae 01 a4 01 9a 01 86 01 7c 01 72 01 68 01     ..........|.r.h.
     384:	5e 01 54 01 4a 01 40 01 36 01 31 01 2e 01 28 01     ^.T.J.@.6.1...(.
     394:	1c 01 16 01 13 01 11 01 07 01 04 01 02 01 f1 00     ................
     3a4:	f0 00 ef 00 eb 00 e8 00 e4 00 e1 00 dd 00 d6 00     ................
     3b4:	d3 00 d0 00 cf 00 cd 00 c8 00 c6 00 c5 00 bd 00     ................
     3c4:	bb 00 b9 00 b7 00 b4 00 b2 00 b0 00 af 00 ad 00     ................
     3d4:	aa 00 a6 00 a5 00 a4 00 a0 00 9f 00 9e 00 9d 00     ................
     3e4:	9a 00 97 00 95 00 94 00 92 00 91 00 90 00 8d 00     ................
     3f4:	8c 00 8b 00 89 00 88 00 87 00 86 00 85 00 84 00     ................
     404:	81 00 80 00 7f 00 7e 00 7d 00 7c 00 7b 00 7a 00     ......~.}.|.{.z.
     414:	77 00 76 00 76 00 75 00 74 00 72 00 71 00 70 00     w.v.v.u.t.r.q.p.
     424:	6f 00 6e 00 6d 00 6b 00 6a 00 69 00 68 00 68 00     o.n.m.k.j.i.h.h.
     434:	67 00 66 00 65 00 64 00 63 00 62 00 61 00 60 00     g.f.e.d.c.b.a.`.
     444:	5f 00 5f 00 5e 00 5e 00 5c 00 5b 00 5b 00 5a 00     _._.^.^.\.[.[.Z.
     454:	59 00 58 00 57 00 57 00 55 00 55 00 54 00 54 00     Y.X.W.W.U.U.T.T.
     464:	54 00                                               T.

00000466 <distanceTable5>:
     466:	20 03 20 03 20 03 20 03 20 03 20 03 20 03 20 03      . . . . . . . .
     476:	20 03 20 03 20 03 20 03 20 03 20 03 20 03 20 03      . . . . . . . .
     486:	20 03 20 03 20 03 20 03 20 03 20 03 20 03 20 03      . . . . . . . .
     496:	20 03 f8 02 ee 02 e4 02 bc 02 ad 02 9e 02 62 02      .............b.
     4a6:	58 02 3a 02 35 02 1c 02 08 02 f4 01 ea 01 d6 01     X.:.5...........
     4b6:	c2 01 ae 01 a4 01 95 01 86 01 81 01 7c 01 6d 01     ............|.m.
     4c6:	5e 01 54 01 4a 01 40 01 36 01 31 01 2d 01 29 01     ^.T.J.@.6.1.-.).
     4d6:	1e 01 15 01 13 01 10 01 0a 01 05 01 ff 00 f0 00     ................
     4e6:	eb 00 ea 00 e8 00 e3 00 df 00 db 00 d8 00 d1 00     ................
     4f6:	ce 00 cb 00 c8 00 c5 00 c2 00 c0 00 bd 00 b7 00     ................
     506:	b6 00 b4 00 b1 00 af 00 ae 00 ac 00 a9 00 a6 00     ................
     516:	a3 00 a0 00 9e 00 9d 00 9b 00 9a 00 98 00 97 00     ................
     526:	93 00 91 00 90 00 8f 00 8d 00 8c 00 8a 00 88 00     ................
     536:	86 00 85 00 84 00 84 00 83 00 81 00 7f 00 7e 00     ..............~.
     546:	7c 00 7a 00 79 00 78 00 78 00 77 00 76 00 75 00     |.z.y.x.x.w.v.u.
     556:	72 00 71 00 70 00 6f 00 6e 00 6d 00 6c 00 6b 00     r.q.p.o.n.m.l.k.
     566:	6a 00 69 00 68 00 67 00 67 00 66 00 65 00 64 00     j.i.h.g.g.f.e.d.
     576:	63 00 62 00 61 00 61 00 5f 00 5e 00 5d 00 5c 00     c.b.a.a._.^.].\.
     586:	5b 00 5b 00 5a 00 59 00 58 00 58 00 57 00 56 00     [.[.Z.Y.X.X.W.V.
     596:	55 00 54 00 54 00 53 00 52 00 52 00 52 00 52 00     U.T.T.S.R.R.R.R.
     5a6:	52 00                                               R.

000005a8 <distanceTable4>:
     5a8:	20 03 20 03 20 03 20 03 20 03 20 03 20 03 20 03      . . . . . . . .
     5b8:	20 03 20 03 20 03 20 03 20 03 20 03 20 03 20 03      . . . . . . . .
     5c8:	20 03 20 03 20 03 20 03 20 03 20 03 20 03 20 03      . . . . . . . .
     5d8:	20 03 0c 03 f8 02 ee 02 bc 02 9e 02 94 02 58 02      .............X.
     5e8:	4e 02 30 02 21 02 12 02 f4 01 ea 01 e0 01 c2 01     N.0.!...........
     5f8:	b8 01 a4 01 9f 01 9a 01 86 01 7c 01 72 01 68 01     ..........|.r.h.
     608:	5e 01 54 01 4a 01 40 01 36 01 34 01 31 01 2a 01     ^.T.J.@.6.4.1.*.
     618:	1e 01 16 01 13 01 0f 01 06 01 03 01 ff 00 f2 00     ................
     628:	f0 00 ee 00 ec 00 e7 00 e3 00 e2 00 de 00 d7 00     ................
     638:	d5 00 d1 00 cf 00 cd 00 c7 00 c5 00 c2 00 bc 00     ................
     648:	ba 00 b8 00 b6 00 b3 00 b1 00 af 00 ae 00 ac 00     ................
     658:	a8 00 a5 00 a4 00 a3 00 a0 00 9f 00 9d 00 9c 00     ................
     668:	99 00 97 00 96 00 93 00 92 00 91 00 90 00 8d 00     ................
     678:	8c 00 8b 00 8a 00 89 00 88 00 87 00 85 00 84 00     ................
     688:	82 00 80 00 7f 00 7e 00 7d 00 7c 00 7b 00 7a 00     ......~.}.|.{.z.
     698:	7a 00 77 00 76 00 75 00 74 00 73 00 72 00 71 00     z.w.v.u.t.s.r.q.
     6a8:	6f 00 6e 00 6d 00 6c 00 6b 00 6a 00 69 00 68 00     o.n.m.l.k.j.i.h.
     6b8:	67 00 66 00 65 00 64 00 64 00 63 00 62 00 60 00     g.f.e.d.d.c.b.`.
     6c8:	5f 00 5e 00 5d 00 5d 00 5c 00 5b 00 5b 00 5a 00     _.^.].].\.[.[.Z.
     6d8:	59 00 58 00 57 00 57 00 55 00 54 00 53 00 53 00     Y.X.W.W.U.T.S.S.
     6e8:	53 00                                               S.

000006ea <distanceTable3>:
     6ea:	20 03 20 03 20 03 20 03 20 03 20 03 20 03 20 03      . . . . . . . .
     6fa:	20 03 20 03 20 03 20 03 20 03 20 03 20 03 20 03      . . . . . . . .
     70a:	20 03 20 03 20 03 20 03 20 03 20 03 20 03 20 03      . . . . . . . .
     71a:	0c 03 f8 02 ee 02 da 02 c6 02 b2 02 9e 02 6c 02     ..............l.
     72a:	58 02 44 02 30 02 1c 02 08 02 fe 01 f4 01 cc 01     X.D.0...........
     73a:	c2 01 ae 01 a9 01 a4 01 86 01 81 01 7c 01 72 01     ............|.r.
     74a:	5e 01 54 01 4f 01 4a 01 40 01 36 01 31 01 29 01     ^.T.O.J.@.6.1.).
     75a:	1c 01 17 01 13 01 0e 01 07 01 03 01 fe 00 ef 00     ................
     76a:	ed 00 ea 00 e6 00 e3 00 e0 00 de 00 dc 00 d3 00     ................
     77a:	d0 00 cc 00 cb 00 c8 00 c3 00 c1 00 be 00 b7 00     ................
     78a:	b5 00 b3 00 b1 00 ae 00 ac 00 ab 00 a9 00 a7 00     ................
     79a:	a3 00 a0 00 9f 00 9e 00 9b 00 9a 00 99 00 98 00     ................
     7aa:	94 00 92 00 91 00 8e 00 8d 00 8c 00 8b 00 88 00     ................
     7ba:	87 00 86 00 85 00 84 00 82 00 81 00 7f 00 7e 00     ..............~.
     7ca:	7d 00 7b 00 7a 00 79 00 78 00 77 00 76 00 75 00     }.{.z.y.x.w.v.u.
     7da:	73 00 72 00 72 00 71 00 70 00 6e 00 6d 00 6d 00     s.r.r.q.p.n.m.m.
     7ea:	6c 00 6b 00 6a 00 69 00 68 00 67 00 66 00 65 00     l.k.j.i.h.g.f.e.
     7fa:	64 00 63 00 62 00 62 00 61 00 60 00 5f 00 5f 00     d.c.b.b.a.`._._.
     80a:	5e 00 5e 00 5d 00 5c 00 5b 00 5b 00 5a 00 5a 00     ^.^.].\.[.[.Z.Z.
     81a:	59 00 58 00 57 00 56 00 55 00 54 00 53 00 53 00     Y.X.W.V.U.T.S.S.
     82a:	53 00                                               S.

0000082c <distanceTable2>:
     82c:	20 03 20 03 20 03 20 03 20 03 20 03 20 03 20 03      . . . . . . . .
     83c:	20 03 20 03 20 03 20 03 20 03 20 03 20 03 20 03      . . . . . . . .
     84c:	20 03 20 03 20 03 20 03 20 03 20 03 20 03 20 03      . . . . . . . .
     85c:	20 03 20 03 16 03 0c 03 e4 02 d0 02 bc 02 80 02      . .............
     86c:	67 02 53 02 49 02 30 02 12 02 08 02 fe 01 e0 01     g.S.I.0.........
     87c:	cc 01 bd 01 b8 01 ae 01 9f 01 90 01 86 01 7c 01     ..............|.
     88c:	6d 01 5e 01 54 01 4a 01 40 01 3b 01 36 01 2e 01     m.^.T.J.@.;.6...
     89c:	25 01 1b 01 18 01 15 01 0a 01 08 01 04 01 f5 00     %...............
     8ac:	f2 00 ef 00 ee 00 e9 00 e3 00 e2 00 e0 00 d7 00     ................
     8bc:	d4 00 ce 00 cd 00 cb 00 c6 00 c3 00 c1 00 bc 00     ................
     8cc:	b8 00 b6 00 b4 00 b1 00 af 00 ad 00 ac 00 aa 00     ................
     8dc:	a6 00 a4 00 a2 00 a1 00 9e 00 9d 00 9c 00 9a 00     ................
     8ec:	97 00 95 00 93 00 91 00 90 00 8e 00 8d 00 8a 00     ................
     8fc:	89 00 87 00 86 00 85 00 84 00 83 00 82 00 80 00     ................
     90c:	7e 00 7d 00 7c 00 7b 00 7a 00 79 00 78 00 77 00     ~.}.|.{.z.y.x.w.
     91c:	75 00 73 00 72 00 72 00 71 00 70 00 6f 00 6e 00     u.s.r.r.q.p.o.n.
     92c:	6c 00 6a 00 6a 00 69 00 68 00 67 00 66 00 65 00     l.j.j.i.h.g.f.e.
     93c:	64 00 63 00 63 00 62 00 60 00 60 00 5f 00 5e 00     d.c.c.b.`.`._.^.
     94c:	5d 00 5c 00 5c 00 5b 00 5a 00 5a 00 59 00 58 00     ].\.\.[.Z.Z.Y.X.
     95c:	56 00 55 00 55 00 54 00 52 00 51 00 50 00 4e 00     V.U.U.T.R.Q.P.N.
     96c:	4e 00                                               N.

0000096e <distanceTable1>:
     96e:	20 03 20 03 20 03 20 03 20 03 20 03 20 03 20 03      . . . . . . . .
     97e:	20 03 20 03 20 03 20 03 20 03 20 03 20 03 20 03      . . . . . . . .
     98e:	20 03 20 03 20 03 20 03 20 03 20 03 20 03 0c 03      . . . . . . ...
     99e:	da 02 d0 02 c6 02 9e 02 94 02 80 02 6c 02 30 02     ............l.0.
     9ae:	26 02 12 02 08 02 f4 01 e0 01 d6 01 c2 01 b8 01     &...............
     9be:	a4 01 9a 01 90 01 86 01 72 01 68 01 5e 01 54 01     ........r.h.^.T.
     9ce:	4a 01 40 01 3b 01 36 01 2c 01 29 01 24 01 1e 01     J.@.;.6.,.).$...
     9de:	13 01 0c 01 08 01 06 01 fe 00 fb 00 f7 00 ed 00     ................
     9ee:	e7 00 e6 00 e3 00 e1 00 db 00 d8 00 d5 00 cd 00     ................
     9fe:	cb 00 c7 00 c6 00 c4 00 c0 00 be 00 bc 00 b7 00     ................
     a0e:	b4 00 b2 00 b0 00 ac 00 ab 00 aa 00 a8 00 a6 00     ................
     a1e:	a2 00 a0 00 9f 00 9d 00 9b 00 9a 00 98 00 97 00     ................
     a2e:	93 00 92 00 91 00 8f 00 8e 00 8d 00 8b 00 89 00     ................
     a3e:	87 00 86 00 85 00 84 00 82 00 81 00 80 00 7f 00     ................
     a4e:	7e 00 7c 00 7b 00 7a 00 79 00 78 00 76 00 76 00     ~.|.{.z.y.x.v.v.
     a5e:	74 00 73 00 72 00 71 00 70 00 6f 00 6e 00 6d 00     t.s.r.q.p.o.n.m.
     a6e:	6b 00 6a 00 69 00 69 00 68 00 68 00 67 00 65 00     k.j.i.i.h.h.g.e.
     a7e:	64 00 63 00 63 00 62 00 61 00 60 00 60 00 5e 00     d.c.c.b.a.`.`.^.
     a8e:	5d 00 5d 00 5c 00 5b 00 5b 00 5a 00 5a 00 58 00     ].].\.[.[.Z.Z.X.
     a9e:	57 00 56 00 55 00 55 00 54 00 53 00 53 00 53 00     W.V.U.U.T.S.S.S.
     aae:	53 00                                               S.

00000ab0 <__ctors_end>:
     ab0:	11 24       	eor	r1, r1
     ab2:	1f be       	out	0x3f, r1	; 63
     ab4:	cf e5       	ldi	r28, 0x5F	; 95
     ab6:	d4 e0       	ldi	r29, 0x04	; 4
     ab8:	de bf       	out	0x3e, r29	; 62
     aba:	cd bf       	out	0x3d, r28	; 61

00000abc <__do_copy_data>:
     abc:	10 e0       	ldi	r17, 0x00	; 0
     abe:	a0 e6       	ldi	r26, 0x60	; 96
     ac0:	b0 e0       	ldi	r27, 0x00	; 0
     ac2:	e4 e2       	ldi	r30, 0x24	; 36
     ac4:	f0 e2       	ldi	r31, 0x20	; 32
     ac6:	02 c0       	rjmp	.+4      	; 0xacc <__do_copy_data+0x10>
     ac8:	05 90       	lpm	r0, Z+
     aca:	0d 92       	st	X+, r0
     acc:	a2 36       	cpi	r26, 0x62	; 98
     ace:	b1 07       	cpc	r27, r17
     ad0:	d9 f7       	brne	.-10     	; 0xac8 <__do_copy_data+0xc>

00000ad2 <__do_clear_bss>:
     ad2:	22 e0       	ldi	r18, 0x02	; 2
     ad4:	a2 e6       	ldi	r26, 0x62	; 98
     ad6:	b0 e0       	ldi	r27, 0x00	; 0
     ad8:	01 c0       	rjmp	.+2      	; 0xadc <.do_clear_bss_start>

00000ada <.do_clear_bss_loop>:
     ada:	1d 92       	st	X+, r1

00000adc <.do_clear_bss_start>:
     adc:	a1 31       	cpi	r26, 0x11	; 17
     ade:	b2 07       	cpc	r27, r18
     ae0:	e1 f7       	brne	.-8      	; 0xada <.do_clear_bss_loop>
     ae2:	0e 94 a7 09 	call	0x134e	; 0x134e <main>
     ae6:	0c 94 10 10 	jmp	0x2020	; 0x2020 <_exit>

00000aea <__bad_interrupt>:
     aea:	0c 94 00 00 	jmp	0	; 0x0 <__vectors>

00000aee <compareFunction>:
		writeDisplay(number3 + 48);
}

int compareFunction (const void * firstValue, const void * secondValue)
{
   return ( *(int*)firstValue - *(int*)secondValue ); // Sorterar i stigande ordning
     aee:	fc 01       	movw	r30, r24
     af0:	80 81       	ld	r24, Z
     af2:	91 81       	ldd	r25, Z+1	; 0x01
     af4:	fb 01       	movw	r30, r22
     af6:	20 81       	ld	r18, Z
     af8:	31 81       	ldd	r19, Z+1	; 0x01
}
     afa:	82 1b       	sub	r24, r18
     afc:	93 0b       	sbc	r25, r19
     afe:	08 95       	ret

00000b00 <makeAngleTable>:


int angleTable[differentAngles];

void makeAngleTable() // Skapar angleTable med 150 element som motsvarar differens (millimeter), lägger på varje plats motsvarande vinkel
{
     b00:	cf 92       	push	r12
     b02:	df 92       	push	r13
     b04:	ef 92       	push	r14
     b06:	ff 92       	push	r15
     b08:	0f 93       	push	r16
     b0a:	1f 93       	push	r17
     b0c:	cf 93       	push	r28
     b0e:	df 93       	push	r29
     b10:	0f e9       	ldi	r16, 0x9F	; 159
     b12:	10 e0       	ldi	r17, 0x00	; 0
	int i;
	for (i=0; i<differentAngles; i++)
     b14:	c0 e0       	ldi	r28, 0x00	; 0
     b16:	d0 e0       	ldi	r29, 0x00	; 0
	{
		double tempAngleValue = 10*(180/pi)*asin(i/(sqrt(i*i+sidelenght*sidelenght))); 
     b18:	cc 9f       	mul	r28, r28
     b1a:	b0 01       	movw	r22, r0
     b1c:	cd 9f       	mul	r28, r29
     b1e:	70 0d       	add	r23, r0
     b20:	70 0d       	add	r23, r0
     b22:	11 24       	eor	r1, r1
     b24:	6c 59       	subi	r22, 0x9C	; 156
     b26:	79 4c       	sbci	r23, 0xC9	; 201
     b28:	80 e0       	ldi	r24, 0x00	; 0
     b2a:	90 e0       	ldi	r25, 0x00	; 0
     b2c:	0e 94 92 0b 	call	0x1724	; 0x1724 <__floatunsisf>
     b30:	0e 94 f8 0c 	call	0x19f0	; 0x19f0 <sqrt>
     b34:	6b 01       	movw	r12, r22
     b36:	7c 01       	movw	r14, r24
     b38:	be 01       	movw	r22, r28
     b3a:	88 27       	eor	r24, r24
     b3c:	77 fd       	sbrc	r23, 7
     b3e:	80 95       	com	r24
     b40:	98 2f       	mov	r25, r24
     b42:	0e 94 94 0b 	call	0x1728	; 0x1728 <__floatsisf>
     b46:	a7 01       	movw	r20, r14
     b48:	96 01       	movw	r18, r12
     b4a:	0e 94 f9 0a 	call	0x15f2	; 0x15f2 <__divsf3>
     b4e:	0e 94 e2 0a 	call	0x15c4	; 0x15c4 <asin>
     b52:	2e e4       	ldi	r18, 0x4E	; 78
     b54:	3d e3       	ldi	r19, 0x3D	; 61
     b56:	4f e0       	ldi	r20, 0x0F	; 15
     b58:	54 e4       	ldi	r21, 0x44	; 68
     b5a:	0e 94 71 0c 	call	0x18e2	; 0x18e2 <__mulsf3>
		angleTable[i]=round(tempAngleValue); // En decimal
     b5e:	0e 94 d4 0c 	call	0x19a8	; 0x19a8 <round>
     b62:	0e 94 61 0b 	call	0x16c2	; 0x16c2 <__fixsfsi>
     b66:	f8 01       	movw	r30, r16
     b68:	61 93       	st	Z+, r22
     b6a:	71 93       	st	Z+, r23
     b6c:	8f 01       	movw	r16, r30
int angleTable[differentAngles];

void makeAngleTable() // Skapar angleTable med 150 element som motsvarar differens (millimeter), lägger på varje plats motsvarande vinkel
{
	int i;
	for (i=0; i<differentAngles; i++)
     b6e:	21 96       	adiw	r28, 0x01	; 1
     b70:	c6 39       	cpi	r28, 0x96	; 150
     b72:	d1 05       	cpc	r29, r1
     b74:	89 f6       	brne	.-94     	; 0xb18 <makeAngleTable+0x18>
	{
		double tempAngleValue = 10*(180/pi)*asin(i/(sqrt(i*i+sidelenght*sidelenght))); 
		angleTable[i]=round(tempAngleValue); // En decimal
	}
}
     b76:	df 91       	pop	r29
     b78:	cf 91       	pop	r28
     b7a:	1f 91       	pop	r17
     b7c:	0f 91       	pop	r16
     b7e:	ff 90       	pop	r15
     b80:	ef 90       	pop	r14
     b82:	df 90       	pop	r13
     b84:	cf 90       	pop	r12
     b86:	08 95       	ret

00000b88 <writeDisplay>:

void writeDisplay(int asciiCode)
{
	PORTB = (1<< displayE) | (1<< displayRS);
     b88:	93 e0       	ldi	r25, 0x03	; 3
     b8a:	98 bb       	out	0x18, r25	; 24
	PORTD = asciiCode; // Matar in asciikoden i displayen
     b8c:	82 bb       	out	0x12, r24	; 18
	PORTB = (0<< displayE);
     b8e:	18 ba       	out	0x18, r1	; 24
	#else
		//round up by default
		__ticks_dc = (uint32_t)(ceil(fabs(__tmp)));
	#endif

	__builtin_avr_delay_cycles(__ticks_dc);
     b90:	8f e9       	ldi	r24, 0x9F	; 159
     b92:	9f e0       	ldi	r25, 0x0F	; 15
     b94:	01 97       	sbiw	r24, 0x01	; 1
     b96:	f1 f7       	brne	.-4      	; 0xb94 <writeDisplay+0xc>
     b98:	00 c0       	rjmp	.+0      	; 0xb9a <writeDisplay+0x12>
     b9a:	00 00       	nop
     b9c:	08 95       	ret

00000b9e <initPorts>:
	_delay_ms(1); // Väntar på att instruktion utförs
}

void initPorts() // Initierar display och slave
{
	DDRD = 0xFF; // Sätter PD till outport, tror jag
     b9e:	8f ef       	ldi	r24, 0xFF	; 255
     ba0:	81 bb       	out	0x11, r24	; 17
	DDRB = (1<<PORTB0)|(1<<PORTB1)|(1<<PORTB6); // Sätter PB0,1,6 till ut PB0= RS, PB1 = E PB6 = MISO
     ba2:	83 e4       	ldi	r24, 0x43	; 67
     ba4:	87 bb       	out	0x17, r24	; 23
    SPCR = (1<<SPE)|(1<<SPIE); //Sätt på SPI    
     ba6:	80 ec       	ldi	r24, 0xC0	; 192
     ba8:	8d b9       	out	0x0d, r24	; 13
     baa:	2f ef       	ldi	r18, 0xFF	; 255
     bac:	86 e7       	ldi	r24, 0x76	; 118
     bae:	91 e0       	ldi	r25, 0x01	; 1
     bb0:	21 50       	subi	r18, 0x01	; 1
     bb2:	80 40       	sbci	r24, 0x00	; 0
     bb4:	90 40       	sbci	r25, 0x00	; 0
     bb6:	e1 f7       	brne	.-8      	; 0xbb0 <initPorts+0x12>
     bb8:	00 c0       	rjmp	.+0      	; 0xbba <initPorts+0x1c>
     bba:	00 00       	nop
	
	_delay_ms(30);
	PORTB = (1<<displayE);
     bbc:	82 e0       	ldi	r24, 0x02	; 2
     bbe:	88 bb       	out	0x18, r24	; 24
	PORTD = (1<<PORTD5) | (1<<PORTD4) | (1<<PORTD3) | (0<<PORTD2); // Instruktion "Funktion Set"
     bc0:	88 e3       	ldi	r24, 0x38	; 56
     bc2:	82 bb       	out	0x12, r24	; 18
	PORTB = (0<<displayE);
     bc4:	18 ba       	out	0x18, r1	; 24
     bc6:	8f e9       	ldi	r24, 0x9F	; 159
     bc8:	9f e0       	ldi	r25, 0x0F	; 15
     bca:	01 97       	sbiw	r24, 0x01	; 1
     bcc:	f1 f7       	brne	.-4      	; 0xbca <initPorts+0x2c>
     bce:	00 c0       	rjmp	.+0      	; 0xbd0 <initPorts+0x32>
     bd0:	00 00       	nop
	_delay_ms(1);
	
	PORTB = (1<<displayE);
     bd2:	82 e0       	ldi	r24, 0x02	; 2
     bd4:	88 bb       	out	0x18, r24	; 24
	PORTD = (0<<PORTD5) | (0<<PORTD4) | (1<<PORTD3) | (1<<PORTD2) | (0<<PORTD1) | (0<<PORTD0); // Instruktion "Display ON/OFF" med blink och cursor av
     bd6:	8c e0       	ldi	r24, 0x0C	; 12
     bd8:	82 bb       	out	0x12, r24	; 18
	PORTB = (0<<displayE);
     bda:	18 ba       	out	0x18, r1	; 24
     bdc:	8f e9       	ldi	r24, 0x9F	; 159
     bde:	9f e0       	ldi	r25, 0x0F	; 15
     be0:	01 97       	sbiw	r24, 0x01	; 1
     be2:	f1 f7       	brne	.-4      	; 0xbe0 <initPorts+0x42>
     be4:	00 c0       	rjmp	.+0      	; 0xbe6 <initPorts+0x48>
     be6:	00 00       	nop
	_delay_ms(1);
	
	
	PORTB = (1<<displayE);
     be8:	82 e0       	ldi	r24, 0x02	; 2
     bea:	88 bb       	out	0x18, r24	; 24
	PORTD = (0<<PORTD3) | (0<<PORTD2) | (1<<PORTD0); // DB0 till 1 för intstruktion "Clear Display"
     bec:	81 e0       	ldi	r24, 0x01	; 1
     bee:	82 bb       	out	0x12, r24	; 18
	PORTB = (0<<displayE);
     bf0:	18 ba       	out	0x18, r1	; 24
     bf2:	8f e3       	ldi	r24, 0x3F	; 63
     bf4:	9f e1       	ldi	r25, 0x1F	; 31
     bf6:	01 97       	sbiw	r24, 0x01	; 1
     bf8:	f1 f7       	brne	.-4      	; 0xbf6 <initPorts+0x58>
     bfa:	00 c0       	rjmp	.+0      	; 0xbfc <initPorts+0x5e>
     bfc:	00 00       	nop
	_delay_ms(2);      // Väntar på att instruktion utförs
	
	
	PORTB = (1<<displayE);
     bfe:	82 e0       	ldi	r24, 0x02	; 2
     c00:	88 bb       	out	0x18, r24	; 24
	PORTD = (0<<PORTD0) | (1<<PORTD1) | (1<<PORTD2); // Instruktion  "Entry Mode Set" med "Increment"
     c02:	86 e0       	ldi	r24, 0x06	; 6
     c04:	82 bb       	out	0x12, r24	; 18
	PORTB = (0<<displayE);
     c06:	18 ba       	out	0x18, r1	; 24
     c08:	8f e9       	ldi	r24, 0x9F	; 159
     c0a:	9f e0       	ldi	r25, 0x0F	; 15
     c0c:	01 97       	sbiw	r24, 0x01	; 1
     c0e:	f1 f7       	brne	.-4      	; 0xc0c <initPorts+0x6e>
     c10:	00 c0       	rjmp	.+0      	; 0xc12 <initPorts+0x74>
     c12:	00 00       	nop
	_delay_ms(1);
	
	PORTB = (1<<displayE);
     c14:	82 e0       	ldi	r24, 0x02	; 2
     c16:	88 bb       	out	0x18, r24	; 24
	PORTD = (1<<PORTD1); // Return Home
     c18:	82 bb       	out	0x12, r24	; 18
	PORTB = (0<<displayE);
     c1a:	18 ba       	out	0x18, r1	; 24
     c1c:	8f e3       	ldi	r24, 0x3F	; 63
     c1e:	9f e1       	ldi	r25, 0x1F	; 31
     c20:	01 97       	sbiw	r24, 0x01	; 1
     c22:	f1 f7       	brne	.-4      	; 0xc20 <initPorts+0x82>
     c24:	00 c0       	rjmp	.+0      	; 0xc26 <initPorts+0x88>
     c26:	00 00       	nop
     c28:	08 95       	ret

00000c2a <writeSensor>:
	
	
};

void writeSensor(int whatSensor)
{
     c2a:	ef 92       	push	r14
     c2c:	ff 92       	push	r15
     c2e:	0f 93       	push	r16
     c30:	1f 93       	push	r17
     c32:	cf 93       	push	r28
     c34:	df 93       	push	r29
     c36:	ec 01       	movw	r28, r24
		int number1;
		int number2;
		int number3;
		if (whatSensor >= 0)
     c38:	99 23       	and	r25, r25
     c3a:	2c f0       	brlt	.+10     	; 0xc46 <writeSensor+0x1c>
		{
			writeDisplay(32); // Skriver ut mellanslag
     c3c:	80 e2       	ldi	r24, 0x20	; 32
     c3e:	90 e0       	ldi	r25, 0x00	; 0
     c40:	0e 94 c4 05 	call	0xb88	; 0xb88 <writeDisplay>
     c44:	04 c0       	rjmp	.+8      	; 0xc4e <writeSensor+0x24>
		}
		else
		{
			writeDisplay(45); // Skriver ut minustecken om talet negativt
     c46:	8d e2       	ldi	r24, 0x2D	; 45
     c48:	90 e0       	ldi	r25, 0x00	; 0
     c4a:	0e 94 c4 05 	call	0xb88	; 0xb88 <writeDisplay>
			
		}
		
		whatSensor = abs(whatSensor);
     c4e:	9e 01       	movw	r18, r28
     c50:	dd 23       	and	r29, r29
     c52:	24 f4       	brge	.+8      	; 0xc5c <writeSensor+0x32>
     c54:	22 27       	eor	r18, r18
     c56:	33 27       	eor	r19, r19
     c58:	2c 1b       	sub	r18, r28
     c5a:	3d 0b       	sbc	r19, r29
		
		number3 = (whatSensor % 100) % 10;                       // Entalet
     c5c:	e4 e6       	ldi	r30, 0x64	; 100
     c5e:	f0 e0       	ldi	r31, 0x00	; 0
     c60:	c9 01       	movw	r24, r18
     c62:	bf 01       	movw	r22, r30
     c64:	0e 94 cb 0d 	call	0x1b96	; 0x1b96 <__divmodhi4>
     c68:	7c 01       	movw	r14, r24
     c6a:	0a e0       	ldi	r16, 0x0A	; 10
     c6c:	10 e0       	ldi	r17, 0x00	; 0
     c6e:	b8 01       	movw	r22, r16
     c70:	0e 94 cb 0d 	call	0x1b96	; 0x1b96 <__divmodhi4>
     c74:	ec 01       	movw	r28, r24
		number2 = ((whatSensor % 100) - number3) / 10;           // Tiotalet
     c76:	c7 01       	movw	r24, r14
     c78:	8c 1b       	sub	r24, r28
     c7a:	9d 0b       	sbc	r25, r29
     c7c:	b8 01       	movw	r22, r16
     c7e:	0e 94 cb 0d 	call	0x1b96	; 0x1b96 <__divmodhi4>
     c82:	8b 01       	movw	r16, r22
		number1 = (whatSensor - (number2 * 10) - number3) / 100; // Hundratalet
     c84:	46 ef       	ldi	r20, 0xF6	; 246
     c86:	46 03       	mulsu	r20, r22
     c88:	c0 01       	movw	r24, r0
     c8a:	47 9f       	mul	r20, r23
     c8c:	90 0d       	add	r25, r0
     c8e:	11 24       	eor	r1, r1
     c90:	28 0f       	add	r18, r24
     c92:	39 1f       	adc	r19, r25
     c94:	c9 01       	movw	r24, r18
     c96:	8c 1b       	sub	r24, r28
     c98:	9d 0b       	sbc	r25, r29
     c9a:	bf 01       	movw	r22, r30
     c9c:	0e 94 cb 0d 	call	0x1b96	; 0x1b96 <__divmodhi4>
		writeDisplay(number1 + 48);                              // Plussar på 48 för att omvandla till ascii
     ca0:	cb 01       	movw	r24, r22
     ca2:	c0 96       	adiw	r24, 0x30	; 48
     ca4:	0e 94 c4 05 	call	0xb88	; 0xb88 <writeDisplay>
	 	writeDisplay(number2 + 48);
     ca8:	c8 01       	movw	r24, r16
     caa:	c0 96       	adiw	r24, 0x30	; 48
     cac:	0e 94 c4 05 	call	0xb88	; 0xb88 <writeDisplay>
		writeDisplay(number3 + 48);
     cb0:	ce 01       	movw	r24, r28
     cb2:	c0 96       	adiw	r24, 0x30	; 48
     cb4:	0e 94 c4 05 	call	0xb88	; 0xb88 <writeDisplay>
}
     cb8:	df 91       	pop	r29
     cba:	cf 91       	pop	r28
     cbc:	1f 91       	pop	r17
     cbe:	0f 91       	pop	r16
     cc0:	ff 90       	pop	r15
     cc2:	ef 90       	pop	r14
     cc4:	08 95       	ret

00000cc6 <average>:
	return medianSensor[2]; // Returnerar medianen
}
*/

int average(int averageSensor[5])
{
     cc6:	cf 93       	push	r28
     cc8:	df 93       	push	r29
     cca:	ec 01       	movw	r28, r24
	qsort(averageSensor, 5, sizeof(int), compareFunction); // Sorterar alla sensorvärden
     ccc:	27 e7       	ldi	r18, 0x77	; 119
     cce:	35 e0       	ldi	r19, 0x05	; 5
     cd0:	42 e0       	ldi	r20, 0x02	; 2
     cd2:	50 e0       	ldi	r21, 0x00	; 0
     cd4:	65 e0       	ldi	r22, 0x05	; 5
     cd6:	70 e0       	ldi	r23, 0x00	; 0
     cd8:	0e 94 39 0e 	call	0x1c72	; 0x1c72 <qsort>
	int medianValue = averageSensor[2]; 
     cdc:	2c 81       	ldd	r18, Y+4	; 0x04
     cde:	3d 81       	ldd	r19, Y+5	; 0x05
	if (abs(averageSensor[1] - medianValue) > abs(averageSensor[4] - medianValue)) // Om näst minsta värdet avviker mer än största ska de två minsta slängas bort
     ce0:	ea 81       	ldd	r30, Y+2	; 0x02
     ce2:	fb 81       	ldd	r31, Y+3	; 0x03
     ce4:	88 85       	ldd	r24, Y+8	; 0x08
     ce6:	99 85       	ldd	r25, Y+9	; 0x09
     ce8:	af 01       	movw	r20, r30
     cea:	42 1b       	sub	r20, r18
     cec:	53 0b       	sbc	r21, r19
     cee:	ba 01       	movw	r22, r20
     cf0:	22 f4       	brpl	.+8      	; 0xcfa <average+0x34>
     cf2:	66 27       	eor	r22, r22
     cf4:	77 27       	eor	r23, r23
     cf6:	64 1b       	sub	r22, r20
     cf8:	75 0b       	sbc	r23, r21
     cfa:	dc 01       	movw	r26, r24
     cfc:	a2 1b       	sub	r26, r18
     cfe:	b3 0b       	sbc	r27, r19
     d00:	ad 01       	movw	r20, r26
     d02:	22 f4       	brpl	.+8      	; 0xd0c <average+0x46>
     d04:	44 27       	eor	r20, r20
     d06:	55 27       	eor	r21, r21
     d08:	4a 1b       	sub	r20, r26
     d0a:	5b 0b       	sbc	r21, r27
     d0c:	46 17       	cp	r20, r22
     d0e:	57 07       	cpc	r21, r23
     d10:	64 f4       	brge	.+24     	; 0xd2a <average+0x64>
	{
		return (averageSensor[2] + averageSensor[3] + averageSensor[4])/3; // Tar medelvärdet av resterande
     d12:	4e 81       	ldd	r20, Y+6	; 0x06
     d14:	5f 81       	ldd	r21, Y+7	; 0x07
     d16:	24 0f       	add	r18, r20
     d18:	35 1f       	adc	r19, r21
     d1a:	82 0f       	add	r24, r18
     d1c:	93 1f       	adc	r25, r19
     d1e:	63 e0       	ldi	r22, 0x03	; 3
     d20:	70 e0       	ldi	r23, 0x00	; 0
     d22:	0e 94 cb 0d 	call	0x1b96	; 0x1b96 <__divmodhi4>
     d26:	cb 01       	movw	r24, r22
     d28:	2d c0       	rjmp	.+90     	; 0xd84 <average+0xbe>
	}
	else if (abs(averageSensor[3] - medianValue) > abs(averageSensor[0] - medianValue)) // Om näst största värdet avviker mer än minsta ska de två största slängas bort
     d2a:	ae 81       	ldd	r26, Y+6	; 0x06
     d2c:	bf 81       	ldd	r27, Y+7	; 0x07
     d2e:	88 81       	ld	r24, Y
     d30:	99 81       	ldd	r25, Y+1	; 0x01
     d32:	ad 01       	movw	r20, r26
     d34:	42 1b       	sub	r20, r18
     d36:	53 0b       	sbc	r21, r19
     d38:	ba 01       	movw	r22, r20
     d3a:	22 f4       	brpl	.+8      	; 0xd44 <average+0x7e>
     d3c:	66 27       	eor	r22, r22
     d3e:	77 27       	eor	r23, r23
     d40:	64 1b       	sub	r22, r20
     d42:	75 0b       	sbc	r23, r21
     d44:	ec 01       	movw	r28, r24
     d46:	c2 1b       	sub	r28, r18
     d48:	d3 0b       	sbc	r29, r19
     d4a:	ae 01       	movw	r20, r28
     d4c:	22 f4       	brpl	.+8      	; 0xd56 <average+0x90>
     d4e:	44 27       	eor	r20, r20
     d50:	55 27       	eor	r21, r21
     d52:	4c 1b       	sub	r20, r28
     d54:	5d 0b       	sbc	r21, r29
     d56:	46 17       	cp	r20, r22
     d58:	57 07       	cpc	r21, r23
     d5a:	54 f4       	brge	.+20     	; 0xd70 <average+0xaa>
	{
		return (averageSensor[0] + averageSensor[1] + averageSensor[2])/3;
     d5c:	8e 0f       	add	r24, r30
     d5e:	9f 1f       	adc	r25, r31
     d60:	82 0f       	add	r24, r18
     d62:	93 1f       	adc	r25, r19
     d64:	63 e0       	ldi	r22, 0x03	; 3
     d66:	70 e0       	ldi	r23, 0x00	; 0
     d68:	0e 94 cb 0d 	call	0x1b96	; 0x1b96 <__divmodhi4>
     d6c:	cb 01       	movw	r24, r22
     d6e:	0a c0       	rjmp	.+20     	; 0xd84 <average+0xbe>
	}
	else // Annars ska största och minsta slängas bort
	{
		return (averageSensor[1] + averageSensor[2] + averageSensor[3])/3;		
     d70:	2e 0f       	add	r18, r30
     d72:	3f 1f       	adc	r19, r31
     d74:	cd 01       	movw	r24, r26
     d76:	82 0f       	add	r24, r18
     d78:	93 1f       	adc	r25, r19
     d7a:	63 e0       	ldi	r22, 0x03	; 3
     d7c:	70 e0       	ldi	r23, 0x00	; 0
     d7e:	0e 94 cb 0d 	call	0x1b96	; 0x1b96 <__divmodhi4>
     d82:	cb 01       	movw	r24, r22
	}
}
     d84:	df 91       	pop	r29
     d86:	cf 91       	pop	r28
     d88:	08 95       	ret

00000d8a <sideValue>:
}


int sideValue(int firstSensor, int secondSensor)
{
	if (abs(firstSensor - secondSensor) > 100) // Om differensen mellan sensorerna är större än 10 returneras kortaste avståndet
     d8a:	ac 01       	movw	r20, r24
     d8c:	46 1b       	sub	r20, r22
     d8e:	57 0b       	sbc	r21, r23
     d90:	9a 01       	movw	r18, r20
     d92:	22 f4       	brpl	.+8      	; 0xd9c <sideValue+0x12>
     d94:	22 27       	eor	r18, r18
     d96:	33 27       	eor	r19, r19
     d98:	24 1b       	sub	r18, r20
     d9a:	35 0b       	sbc	r19, r21
     d9c:	25 36       	cpi	r18, 0x65	; 101
     d9e:	31 05       	cpc	r19, r1
     da0:	2c f0       	brlt	.+10     	; 0xdac <sideValue+0x22>
     da2:	68 17       	cp	r22, r24
     da4:	79 07       	cpc	r23, r25
     da6:	4c f4       	brge	.+18     	; 0xdba <sideValue+0x30>
     da8:	cb 01       	movw	r24, r22
     daa:	08 95       	ret
			return secondSensor;
		}
	}	
	else
	{
		return (firstSensor + secondSensor)/2; // Annars returneras medelvärdet av avstånden
     dac:	86 0f       	add	r24, r22
     dae:	97 1f       	adc	r25, r23
     db0:	99 23       	and	r25, r25
     db2:	0c f4       	brge	.+2      	; 0xdb6 <sideValue+0x2c>
     db4:	01 96       	adiw	r24, 0x01	; 1
     db6:	95 95       	asr	r25
     db8:	87 95       	ror	r24
	}
}
     dba:	08 95       	ret

00000dbc <getAngle>:


int getAngle(int firstLength, int secondLength)
{
	int diffLength = firstLength - secondLength;
	if (firstLength < 300 && secondLength < 300 && abs(diffLength) < 150) // Om skillnaden i längd är för stor antas något vara fel och vinkel mäts ej
     dbc:	8c 32       	cpi	r24, 0x2C	; 44
     dbe:	21 e0       	ldi	r18, 0x01	; 1
     dc0:	92 07       	cpc	r25, r18
     dc2:	44 f5       	brge	.+80     	; 0xe14 <getAngle+0x58>
     dc4:	6c 32       	cpi	r22, 0x2C	; 44
     dc6:	41 e0       	ldi	r20, 0x01	; 1
     dc8:	74 07       	cpc	r23, r20
     dca:	3c f5       	brge	.+78     	; 0xe1a <getAngle+0x5e>
}


int getAngle(int firstLength, int secondLength)
{
	int diffLength = firstLength - secondLength;
     dcc:	86 1b       	sub	r24, r22
     dce:	97 0b       	sbc	r25, r23
	if (firstLength < 300 && secondLength < 300 && abs(diffLength) < 150) // Om skillnaden i längd är för stor antas något vara fel och vinkel mäts ej
     dd0:	9c 01       	movw	r18, r24
     dd2:	2b 56       	subi	r18, 0x6B	; 107
     dd4:	3f 4f       	sbci	r19, 0xFF	; 255
     dd6:	2b 32       	cpi	r18, 0x2B	; 43
     dd8:	31 40       	sbci	r19, 0x01	; 1
     dda:	10 f5       	brcc	.+68     	; 0xe20 <getAngle+0x64>
	{
		if (diffLength >= 0)
     ddc:	99 23       	and	r25, r25
     dde:	44 f0       	brlt	.+16     	; 0xdf0 <getAngle+0x34>
		{
			return angleTable[diffLength];
     de0:	fc 01       	movw	r30, r24
     de2:	ee 0f       	add	r30, r30
     de4:	ff 1f       	adc	r31, r31
     de6:	e1 56       	subi	r30, 0x61	; 97
     de8:	ff 4f       	sbci	r31, 0xFF	; 255
     dea:	80 81       	ld	r24, Z
     dec:	91 81       	ldd	r25, Z+1	; 0x01
     dee:	08 95       	ret
		}
		else
		{
			return -angleTable[abs(diffLength)];
     df0:	9c 01       	movw	r18, r24
     df2:	99 23       	and	r25, r25
     df4:	24 f4       	brge	.+8      	; 0xdfe <getAngle+0x42>
     df6:	22 27       	eor	r18, r18
     df8:	33 27       	eor	r19, r19
     dfa:	28 1b       	sub	r18, r24
     dfc:	39 0b       	sbc	r19, r25
     dfe:	f9 01       	movw	r30, r18
     e00:	ee 0f       	add	r30, r30
     e02:	ff 1f       	adc	r31, r31
     e04:	e1 56       	subi	r30, 0x61	; 97
     e06:	ff 4f       	sbci	r31, 0xFF	; 255
     e08:	80 81       	ld	r24, Z
     e0a:	91 81       	ldd	r25, Z+1	; 0x01
     e0c:	91 95       	neg	r25
     e0e:	81 95       	neg	r24
     e10:	91 09       	sbc	r25, r1
     e12:	08 95       	ret
		}
	}
	else
	{
		return 0;
     e14:	80 e0       	ldi	r24, 0x00	; 0
     e16:	90 e0       	ldi	r25, 0x00	; 0
     e18:	08 95       	ret
     e1a:	80 e0       	ldi	r24, 0x00	; 0
     e1c:	90 e0       	ldi	r25, 0x00	; 0
     e1e:	08 95       	ret
     e20:	80 e0       	ldi	r24, 0x00	; 0
     e22:	90 e0       	ldi	r25, 0x00	; 0
	}
}
     e24:	08 95       	ret

00000e26 <waitForConversionComplete>:

void waitForConversionComplete()
{
	while (ADC_notComplete) {} // Loopar tills ADIF=1 dvs ADC klar
     e26:	34 9b       	sbis	0x06, 4	; 6
     e28:	fe cf       	rjmp	.-4      	; 0xe26 <waitForConversionComplete>
	
	ADMUX = (1<<ADLAR); // Tar omv. värde från ADLAR1
     e2a:	80 e2       	ldi	r24, 0x20	; 32
     e2c:	87 b9       	out	0x07, r24	; 7
	tempReading = ADCH; // Sparar omvandlade värdet i tempreading
     e2e:	85 b1       	in	r24, 0x05	; 5
     e30:	90 e0       	ldi	r25, 0x00	; 0
     e32:	90 93 f4 01 	sts	0x01F4, r25
     e36:	80 93 f3 01 	sts	0x01F3, r24
	ADCSRA = (1<<ADIF); // Clearar ADIF
     e3a:	80 e1       	ldi	r24, 0x10	; 16
     e3c:	86 b9       	out	0x06, r24	; 6
     e3e:	08 95       	ret

00000e40 <convertADtoDistance>:
}

int convertADtoDistance(int ADreading, int sensorNumber)
{
	if (ADreading > 160) // Returnerar ungefärligt värde om AD-omvandlat värde hamnar utanför tabell, i praktiken borde inget komma så nära sensorn
     e40:	81 3a       	cpi	r24, 0xA1	; 161
     e42:	91 05       	cpc	r25, r1
     e44:	0c f0       	brlt	.+2      	; 0xe48 <convertADtoDistance+0x8>
     e46:	4a c0       	rjmp	.+148    	; 0xedc <convertADtoDistance+0x9c>
	{
		return 80;
	}
	else
	{
		switch (sensorNumber) // Beroende på sensorns nummer hämtas avståndet som motsvarar AD-omvandlat värde ur rätt tabell
     e48:	fb 01       	movw	r30, r22
     e4a:	31 97       	sbiw	r30, 0x01	; 1
     e4c:	e8 30       	cpi	r30, 0x08	; 8
     e4e:	f1 05       	cpc	r31, r1
     e50:	08 f0       	brcs	.+2      	; 0xe54 <convertADtoDistance+0x14>
     e52:	47 c0       	rjmp	.+142    	; 0xee2 <convertADtoDistance+0xa2>
     e54:	e6 5d       	subi	r30, 0xD6	; 214
     e56:	ff 4f       	sbci	r31, 0xFF	; 255
     e58:	0c 94 df 0d 	jmp	0x1bbe	; 0x1bbe <__tablejump2__>
		{
			case 1:
				return pgm_read_word(&(distanceTable1[ADreading])); 
     e5c:	fc 01       	movw	r30, r24
     e5e:	ee 0f       	add	r30, r30
     e60:	ff 1f       	adc	r31, r31
     e62:	e2 59       	subi	r30, 0x92	; 146
     e64:	f6 4f       	sbci	r31, 0xF6	; 246
     e66:	85 91       	lpm	r24, Z+
     e68:	94 91       	lpm	r25, Z
     e6a:	08 95       	ret
				break;
			case 2:
				return pgm_read_word(&(distanceTable2[ADreading]));
     e6c:	fc 01       	movw	r30, r24
     e6e:	ee 0f       	add	r30, r30
     e70:	ff 1f       	adc	r31, r31
     e72:	e4 5d       	subi	r30, 0xD4	; 212
     e74:	f7 4f       	sbci	r31, 0xF7	; 247
     e76:	85 91       	lpm	r24, Z+
     e78:	94 91       	lpm	r25, Z
     e7a:	08 95       	ret
				break;
			case 3:
				return pgm_read_word(&(distanceTable3[ADreading]));
     e7c:	fc 01       	movw	r30, r24
     e7e:	ee 0f       	add	r30, r30
     e80:	ff 1f       	adc	r31, r31
     e82:	e6 51       	subi	r30, 0x16	; 22
     e84:	f9 4f       	sbci	r31, 0xF9	; 249
     e86:	85 91       	lpm	r24, Z+
     e88:	94 91       	lpm	r25, Z
     e8a:	08 95       	ret
				break;
			case 4:
				return pgm_read_word(&(distanceTable4[ADreading]));
     e8c:	fc 01       	movw	r30, r24
     e8e:	ee 0f       	add	r30, r30
     e90:	ff 1f       	adc	r31, r31
     e92:	e8 55       	subi	r30, 0x58	; 88
     e94:	fa 4f       	sbci	r31, 0xFA	; 250
     e96:	85 91       	lpm	r24, Z+
     e98:	94 91       	lpm	r25, Z
     e9a:	08 95       	ret
				break;
			case 5:
				return pgm_read_word(&(distanceTable5[ADreading]));
     e9c:	fc 01       	movw	r30, r24
     e9e:	ee 0f       	add	r30, r30
     ea0:	ff 1f       	adc	r31, r31
     ea2:	ea 59       	subi	r30, 0x9A	; 154
     ea4:	fb 4f       	sbci	r31, 0xFB	; 251
     ea6:	85 91       	lpm	r24, Z+
     ea8:	94 91       	lpm	r25, Z
     eaa:	08 95       	ret
				break;
			case 6:
				return pgm_read_word(&(distanceTable6[ADreading]));
     eac:	fc 01       	movw	r30, r24
     eae:	ee 0f       	add	r30, r30
     eb0:	ff 1f       	adc	r31, r31
     eb2:	ec 5d       	subi	r30, 0xDC	; 220
     eb4:	fc 4f       	sbci	r31, 0xFC	; 252
     eb6:	85 91       	lpm	r24, Z+
     eb8:	94 91       	lpm	r25, Z
     eba:	08 95       	ret
				break;
			case 7:
				return pgm_read_word(&(distanceTable7[ADreading]));
     ebc:	fc 01       	movw	r30, r24
     ebe:	ee 0f       	add	r30, r30
     ec0:	ff 1f       	adc	r31, r31
     ec2:	ee 51       	subi	r30, 0x1E	; 30
     ec4:	fe 4f       	sbci	r31, 0xFE	; 254
     ec6:	85 91       	lpm	r24, Z+
     ec8:	94 91       	lpm	r25, Z
     eca:	08 95       	ret
				break;
			case 8:
				return pgm_read_word(&(distanceTable8[ADreading]));
     ecc:	fc 01       	movw	r30, r24
     ece:	ee 0f       	add	r30, r30
     ed0:	ff 1f       	adc	r31, r31
     ed2:	e0 56       	subi	r30, 0x60	; 96
     ed4:	ff 4f       	sbci	r31, 0xFF	; 255
     ed6:	85 91       	lpm	r24, Z+
     ed8:	94 91       	lpm	r25, Z
     eda:	08 95       	ret

int convertADtoDistance(int ADreading, int sensorNumber)
{
	if (ADreading > 160) // Returnerar ungefärligt värde om AD-omvandlat värde hamnar utanför tabell, i praktiken borde inget komma så nära sensorn
	{
		return 80;
     edc:	80 e5       	ldi	r24, 0x50	; 80
     ede:	90 e0       	ldi	r25, 0x00	; 0
     ee0:	08 95       	ret
				break;
			case 8:
				return pgm_read_word(&(distanceTable8[ADreading]));
				break;
			default:
				return 0;
     ee2:	80 e0       	ldi	r24, 0x00	; 0
     ee4:	90 e0       	ldi	r25, 0x00	; 0
				break;
		}
	}
}
     ee6:	08 95       	ret

00000ee8 <calculateAvarageDistance>:

void calculateAvarageDistance() // Räknar ut medelvärdet av 5 senaste mätningarna och avståndet från varje sida
{
     ee8:	cf 93       	push	r28
     eea:	df 93       	push	r29
	
			averageDistance1 = convertADtoDistance(average(sensor1),1); // Tar genomsnitt av senaste 5 värdena och omvandlar till avstånd
     eec:	87 ee       	ldi	r24, 0xE7	; 231
     eee:	91 e0       	ldi	r25, 0x01	; 1
     ef0:	0e 94 63 06 	call	0xcc6	; 0xcc6 <average>
     ef4:	61 e0       	ldi	r22, 0x01	; 1
     ef6:	70 e0       	ldi	r23, 0x00	; 0
     ef8:	0e 94 20 07 	call	0xe40	; 0xe40 <convertADtoDistance>
     efc:	90 93 0c 02 	sts	0x020C, r25
     f00:	80 93 0b 02 	sts	0x020B, r24
			averageDistance2 = convertADtoDistance(average(sensor2),2);
     f04:	8f ef       	ldi	r24, 0xFF	; 255
     f06:	91 e0       	ldi	r25, 0x01	; 1
     f08:	0e 94 63 06 	call	0xcc6	; 0xcc6 <average>
     f0c:	62 e0       	ldi	r22, 0x02	; 2
     f0e:	70 e0       	ldi	r23, 0x00	; 0
     f10:	0e 94 20 07 	call	0xe40	; 0xe40 <convertADtoDistance>
     f14:	90 93 80 00 	sts	0x0080, r25
     f18:	80 93 7f 00 	sts	0x007F, r24
			averageDistance3 = convertADtoDistance(average(sensor3),3);
     f1c:	83 e9       	ldi	r24, 0x93	; 147
     f1e:	90 e0       	ldi	r25, 0x00	; 0
     f20:	0e 94 63 06 	call	0xcc6	; 0xcc6 <average>
     f24:	63 e0       	ldi	r22, 0x03	; 3
     f26:	70 e0       	ldi	r23, 0x00	; 0
     f28:	0e 94 20 07 	call	0xe40	; 0xe40 <convertADtoDistance>
     f2c:	90 93 9e 00 	sts	0x009E, r25
     f30:	80 93 9d 00 	sts	0x009D, r24
			averageDistance4 = convertADtoDistance(average(sensor4),4);
     f34:	8d ed       	ldi	r24, 0xDD	; 221
     f36:	91 e0       	ldi	r25, 0x01	; 1
     f38:	0e 94 63 06 	call	0xcc6	; 0xcc6 <average>
     f3c:	64 e0       	ldi	r22, 0x04	; 4
     f3e:	70 e0       	ldi	r23, 0x00	; 0
     f40:	0e 94 20 07 	call	0xe40	; 0xe40 <convertADtoDistance>
     f44:	90 93 10 02 	sts	0x0210, r25
     f48:	80 93 0f 02 	sts	0x020F, r24
			averageDistance5 = convertADtoDistance(average(sensor5),5);
     f4c:	81 ed       	ldi	r24, 0xD1	; 209
     f4e:	91 e0       	ldi	r25, 0x01	; 1
     f50:	0e 94 63 06 	call	0xcc6	; 0xcc6 <average>
     f54:	65 e0       	ldi	r22, 0x05	; 5
     f56:	70 e0       	ldi	r23, 0x00	; 0
     f58:	0e 94 20 07 	call	0xe40	; 0xe40 <convertADtoDistance>
     f5c:	90 93 dc 01 	sts	0x01DC, r25
     f60:	80 93 db 01 	sts	0x01DB, r24
			averageDistance6 = convertADtoDistance(average(sensor6),6);
     f64:	89 e8       	ldi	r24, 0x89	; 137
     f66:	90 e0       	ldi	r25, 0x00	; 0
     f68:	0e 94 63 06 	call	0xcc6	; 0xcc6 <average>
     f6c:	66 e0       	ldi	r22, 0x06	; 6
     f6e:	70 e0       	ldi	r23, 0x00	; 0
     f70:	0e 94 20 07 	call	0xe40	; 0xe40 <convertADtoDistance>
     f74:	90 93 88 00 	sts	0x0088, r25
     f78:	80 93 87 00 	sts	0x0087, r24
			averageDistance7 = convertADtoDistance(average(sensor7),7);
     f7c:	83 e7       	ldi	r24, 0x73	; 115
     f7e:	90 e0       	ldi	r25, 0x00	; 0
     f80:	0e 94 63 06 	call	0xcc6	; 0xcc6 <average>
     f84:	67 e0       	ldi	r22, 0x07	; 7
     f86:	70 e0       	ldi	r23, 0x00	; 0
     f88:	0e 94 20 07 	call	0xe40	; 0xe40 <convertADtoDistance>
     f8c:	90 93 86 00 	sts	0x0086, r25
     f90:	80 93 85 00 	sts	0x0085, r24
			averageDistance8 = convertADtoDistance(average(sensor8),8);
     f94:	85 ef       	ldi	r24, 0xF5	; 245
     f96:	91 e0       	ldi	r25, 0x01	; 1
     f98:	0e 94 63 06 	call	0xcc6	; 0xcc6 <average>
     f9c:	68 e0       	ldi	r22, 0x08	; 8
     f9e:	70 e0       	ldi	r23, 0x00	; 0
     fa0:	0e 94 20 07 	call	0xe40	; 0xe40 <convertADtoDistance>
     fa4:	ec 01       	movw	r28, r24
     fa6:	90 93 72 00 	sts	0x0072, r25
     faa:	80 93 71 00 	sts	0x0071, r24
			
			sideDistance1 = sideValue(averageDistance4, averageDistance7);
     fae:	60 91 85 00 	lds	r22, 0x0085
     fb2:	70 91 86 00 	lds	r23, 0x0086
     fb6:	80 91 0f 02 	lds	r24, 0x020F
     fba:	90 91 10 02 	lds	r25, 0x0210
     fbe:	0e 94 c5 06 	call	0xd8a	; 0xd8a <sideValue>
     fc2:	90 93 cc 01 	sts	0x01CC, r25
     fc6:	80 93 cb 01 	sts	0x01CB, r24
			sideDistance2 = sideValue(averageDistance6, averageDistance1);
     fca:	60 91 0b 02 	lds	r22, 0x020B
     fce:	70 91 0c 02 	lds	r23, 0x020C
     fd2:	80 91 87 00 	lds	r24, 0x0087
     fd6:	90 91 88 00 	lds	r25, 0x0088
     fda:	0e 94 c5 06 	call	0xd8a	; 0xd8a <sideValue>
     fde:	90 93 0a 02 	sts	0x020A, r25
     fe2:	80 93 09 02 	sts	0x0209, r24
			sideDistance3 = sideValue(averageDistance8, averageDistance3);
     fe6:	60 91 9d 00 	lds	r22, 0x009D
     fea:	70 91 9e 00 	lds	r23, 0x009E
     fee:	ce 01       	movw	r24, r28
     ff0:	0e 94 c5 06 	call	0xd8a	; 0xd8a <sideValue>
     ff4:	90 93 f2 01 	sts	0x01F2, r25
     ff8:	80 93 f1 01 	sts	0x01F1, r24
			sideDistance4 = sideValue(averageDistance2, averageDistance5);
     ffc:	60 91 db 01 	lds	r22, 0x01DB
    1000:	70 91 dc 01 	lds	r23, 0x01DC
    1004:	80 91 7f 00 	lds	r24, 0x007F
    1008:	90 91 80 00 	lds	r25, 0x0080
    100c:	0e 94 c5 06 	call	0xd8a	; 0xd8a <sideValue>
    1010:	90 93 d0 01 	sts	0x01D0, r25
    1014:	80 93 cf 01 	sts	0x01CF, r24
}
    1018:	df 91       	pop	r29
    101a:	cf 91       	pop	r28
    101c:	08 95       	ret

0000101e <calculateAngle>:

void calculateAngle() // Räknar ut vinklar hos varje sida, och ett genomsnitt av nollskillda vinklar
{
    101e:	ef 92       	push	r14
    1020:	ff 92       	push	r15
    1022:	0f 93       	push	r16
    1024:	1f 93       	push	r17
    1026:	cf 93       	push	r28
    1028:	df 93       	push	r29
			int angleDivisor = 0;
			
			sideAngle1 = getAngle(averageDistance7, averageDistance4);
    102a:	60 91 0f 02 	lds	r22, 0x020F
    102e:	70 91 10 02 	lds	r23, 0x0210
    1032:	80 91 85 00 	lds	r24, 0x0085
    1036:	90 91 86 00 	lds	r25, 0x0086
    103a:	0e 94 de 06 	call	0xdbc	; 0xdbc <getAngle>
    103e:	7c 01       	movw	r14, r24
    1040:	90 93 82 00 	sts	0x0082, r25
    1044:	80 93 81 00 	sts	0x0081, r24
			sideAngle2 = getAngle(averageDistance1, averageDistance6);
    1048:	60 91 87 00 	lds	r22, 0x0087
    104c:	70 91 88 00 	lds	r23, 0x0088
    1050:	80 91 0b 02 	lds	r24, 0x020B
    1054:	90 91 0c 02 	lds	r25, 0x020C
    1058:	0e 94 de 06 	call	0xdbc	; 0xdbc <getAngle>
    105c:	8c 01       	movw	r16, r24
    105e:	90 93 0e 02 	sts	0x020E, r25
    1062:	80 93 0d 02 	sts	0x020D, r24
			sideAngle3 = getAngle(averageDistance3, averageDistance8);
    1066:	60 91 71 00 	lds	r22, 0x0071
    106a:	70 91 72 00 	lds	r23, 0x0072
    106e:	80 91 9d 00 	lds	r24, 0x009D
    1072:	90 91 9e 00 	lds	r25, 0x009E
    1076:	0e 94 de 06 	call	0xdbc	; 0xdbc <getAngle>
    107a:	ec 01       	movw	r28, r24
    107c:	90 93 84 00 	sts	0x0084, r25
    1080:	80 93 83 00 	sts	0x0083, r24
			sideAngle4 = getAngle(averageDistance5, averageDistance2);
    1084:	60 91 7f 00 	lds	r22, 0x007F
    1088:	70 91 80 00 	lds	r23, 0x0080
    108c:	80 91 db 01 	lds	r24, 0x01DB
    1090:	90 91 dc 01 	lds	r25, 0x01DC
    1094:	0e 94 de 06 	call	0xdbc	; 0xdbc <getAngle>
    1098:	90 93 ce 01 	sts	0x01CE, r25
    109c:	80 93 cd 01 	sts	0x01CD, r24
			
			if (sideAngle1 != 0)
    10a0:	21 e0       	ldi	r18, 0x01	; 1
    10a2:	30 e0       	ldi	r19, 0x00	; 0
    10a4:	e1 14       	cp	r14, r1
    10a6:	f1 04       	cpc	r15, r1
    10a8:	11 f4       	brne	.+4      	; 0x10ae <calculateAngle+0x90>
    10aa:	20 e0       	ldi	r18, 0x00	; 0
    10ac:	30 e0       	ldi	r19, 0x00	; 0
			sideDistance4 = sideValue(averageDistance2, averageDistance5);
}

void calculateAngle() // Räknar ut vinklar hos varje sida, och ett genomsnitt av nollskillda vinklar
{
			int angleDivisor = 0;
    10ae:	b9 01       	movw	r22, r18
			if (sideAngle1 != 0)
			{
				angleDivisor ++;
			}
			
			if (sideAngle2 != 0)
    10b0:	01 15       	cp	r16, r1
    10b2:	11 05       	cpc	r17, r1
    10b4:	11 f0       	breq	.+4      	; 0x10ba <calculateAngle+0x9c>
			{
				angleDivisor ++;
    10b6:	6f 5f       	subi	r22, 0xFF	; 255
    10b8:	7f 4f       	sbci	r23, 0xFF	; 255
			}
			
			if (sideAngle3 != 0)
    10ba:	20 97       	sbiw	r28, 0x00	; 0
    10bc:	11 f0       	breq	.+4      	; 0x10c2 <calculateAngle+0xa4>
			{
				angleDivisor ++;
    10be:	6f 5f       	subi	r22, 0xFF	; 255
    10c0:	7f 4f       	sbci	r23, 0xFF	; 255
			}
			
			if (sideAngle4 != 0)
    10c2:	00 97       	sbiw	r24, 0x00	; 0
    10c4:	11 f0       	breq	.+4      	; 0x10ca <calculateAngle+0xac>
			{
				angleDivisor ++;
    10c6:	6f 5f       	subi	r22, 0xFF	; 255
    10c8:	7f 4f       	sbci	r23, 0xFF	; 255
			}
			
			if (angleDivisor != 0)
    10ca:	61 15       	cp	r22, r1
    10cc:	71 05       	cpc	r23, r1
    10ce:	69 f0       	breq	.+26     	; 0x10ea <calculateAngle+0xcc>
			{
				totalAngle = (sideAngle1 + sideAngle2 + sideAngle3 + sideAngle4)/angleDivisor;
    10d0:	0e 0d       	add	r16, r14
    10d2:	1f 1d       	adc	r17, r15
    10d4:	c0 0f       	add	r28, r16
    10d6:	d1 1f       	adc	r29, r17
    10d8:	8c 0f       	add	r24, r28
    10da:	9d 1f       	adc	r25, r29
    10dc:	0e 94 cb 0d 	call	0x1b96	; 0x1b96 <__divmodhi4>
    10e0:	70 93 7e 00 	sts	0x007E, r23
    10e4:	60 93 7d 00 	sts	0x007D, r22
    10e8:	04 c0       	rjmp	.+8      	; 0x10f2 <calculateAngle+0xd4>
			}
			else
			{
				totalAngle = 0;
    10ea:	10 92 7e 00 	sts	0x007E, r1
    10ee:	10 92 7d 00 	sts	0x007D, r1
			}
}
    10f2:	df 91       	pop	r29
    10f4:	cf 91       	pop	r28
    10f6:	1f 91       	pop	r17
    10f8:	0f 91       	pop	r16
    10fa:	ff 90       	pop	r15
    10fc:	ef 90       	pop	r14
    10fe:	08 95       	ret

00001100 <splitDataBytes>:
		{
			dataToSplit = averageDistance8;
			break;
		}
    }*/
	if (recievedHeader < 184)
    1100:	88 3b       	cpi	r24, 0xB8	; 184
    1102:	91 05       	cpc	r25, r1
    1104:	0c f0       	brlt	.+2      	; 0x1108 <splitDataBytes+0x8>
    1106:	51 c0       	rjmp	.+162    	; 0x11aa <splitDataBytes+0xaa>
	{
		if (recievedHeader < 136)
    1108:	88 38       	cpi	r24, 0x88	; 136
    110a:	91 05       	cpc	r25, r1
    110c:	5c f5       	brge	.+86     	; 0x1164 <splitDataBytes+0x64>
		{
			switch(recievedHeader)
    110e:	88 36       	cpi	r24, 0x68	; 104
    1110:	91 05       	cpc	r25, r1
    1112:	c9 f0       	breq	.+50     	; 0x1146 <splitDataBytes+0x46>
    1114:	3c f4       	brge	.+14     	; 0x1124 <splitDataBytes+0x24>
    1116:	88 35       	cpi	r24, 0x58	; 88
    1118:	91 05       	cpc	r25, r1
    111a:	59 f0       	breq	.+22     	; 0x1132 <splitDataBytes+0x32>
    111c:	80 36       	cpi	r24, 0x60	; 96
    111e:	91 05       	cpc	r25, r1
    1120:	69 f0       	breq	.+26     	; 0x113c <splitDataBytes+0x3c>
    1122:	94 c0       	rjmp	.+296    	; 0x124c <splitDataBytes+0x14c>
    1124:	80 37       	cpi	r24, 0x70	; 112
    1126:	91 05       	cpc	r25, r1
    1128:	99 f0       	breq	.+38     	; 0x1150 <splitDataBytes+0x50>
    112a:	88 37       	cpi	r24, 0x78	; 120
    112c:	91 05       	cpc	r25, r1
    112e:	a9 f0       	breq	.+42     	; 0x115a <splitDataBytes+0x5a>
    1130:	8d c0       	rjmp	.+282    	; 0x124c <splitDataBytes+0x14c>
			{
				case SENSOR_8:
				{
					dataToSplit = averageDistance8;
    1132:	80 91 71 00 	lds	r24, 0x0071
    1136:	90 91 72 00 	lds	r25, 0x0072
					break;
    113a:	93 c0       	rjmp	.+294    	; 0x1262 <splitDataBytes+0x162>
				}
				case SENSOR_7:
				{
					dataToSplit = averageDistance7;
    113c:	80 91 85 00 	lds	r24, 0x0085
    1140:	90 91 86 00 	lds	r25, 0x0086
					break;
    1144:	8e c0       	rjmp	.+284    	; 0x1262 <splitDataBytes+0x162>
				}
				case SENSOR_6:
				{
					dataToSplit = averageDistance6;
    1146:	80 91 87 00 	lds	r24, 0x0087
    114a:	90 91 88 00 	lds	r25, 0x0088
					break;
    114e:	89 c0       	rjmp	.+274    	; 0x1262 <splitDataBytes+0x162>
				}
				case SENSOR_5:
				{
					dataToSplit = averageDistance5;
    1150:	80 91 db 01 	lds	r24, 0x01DB
    1154:	90 91 dc 01 	lds	r25, 0x01DC
					break;
    1158:	84 c0       	rjmp	.+264    	; 0x1262 <splitDataBytes+0x162>
				}
				case SENSOR_4:
				{
					dataToSplit = averageDistance4;
    115a:	80 91 0f 02 	lds	r24, 0x020F
    115e:	90 91 10 02 	lds	r25, 0x0210
					break;
    1162:	7f c0       	rjmp	.+254    	; 0x1262 <splitDataBytes+0x162>
				}
			}
		}
		else
		{
			switch(recievedHeader)
    1164:	80 39       	cpi	r24, 0x90	; 144
    1166:	91 05       	cpc	r25, r1
    1168:	89 f0       	breq	.+34     	; 0x118c <splitDataBytes+0x8c>
    116a:	24 f4       	brge	.+8      	; 0x1174 <splitDataBytes+0x74>
    116c:	88 38       	cpi	r24, 0x88	; 136
    116e:	91 05       	cpc	r25, r1
    1170:	41 f0       	breq	.+16     	; 0x1182 <splitDataBytes+0x82>
    1172:	6f c0       	rjmp	.+222    	; 0x1252 <splitDataBytes+0x152>
    1174:	88 39       	cpi	r24, 0x98	; 152
    1176:	91 05       	cpc	r25, r1
    1178:	71 f0       	breq	.+28     	; 0x1196 <splitDataBytes+0x96>
    117a:	88 3a       	cpi	r24, 0xA8	; 168
    117c:	91 05       	cpc	r25, r1
    117e:	81 f0       	breq	.+32     	; 0x11a0 <splitDataBytes+0xa0>
    1180:	68 c0       	rjmp	.+208    	; 0x1252 <splitDataBytes+0x152>
			{
				case ANGLE_WEST:
				{
					dataToSplit = sideAngle4;
    1182:	80 91 cd 01 	lds	r24, 0x01CD
    1186:	90 91 ce 01 	lds	r25, 0x01CE
					break;
    118a:	6b c0       	rjmp	.+214    	; 0x1262 <splitDataBytes+0x162>
				}
				case TOTAL_ANGLE:
				{
					dataToSplit = totalAngle;
    118c:	80 91 7d 00 	lds	r24, 0x007D
    1190:	90 91 7e 00 	lds	r25, 0x007E
					break;
    1194:	66 c0       	rjmp	.+204    	; 0x1262 <splitDataBytes+0x162>
				}
				case LEAK_HEADER:
				{
					dataToSplit = leakFound_g;
    1196:	80 91 68 00 	lds	r24, 0x0068
    119a:	90 91 69 00 	lds	r25, 0x0069
					break;
    119e:	61 c0       	rjmp	.+194    	; 0x1262 <splitDataBytes+0x162>
				}
				case SENSOR_3:
				{
					dataToSplit = averageDistance3;
    11a0:	80 91 9d 00 	lds	r24, 0x009D
    11a4:	90 91 9e 00 	lds	r25, 0x009E
					break;
    11a8:	5c c0       	rjmp	.+184    	; 0x1262 <splitDataBytes+0x162>
			}
		}
	}
	else
	{
		if (recievedHeader < 216)
    11aa:	88 3d       	cpi	r24, 0xD8	; 216
    11ac:	91 05       	cpc	r25, r1
    11ae:	1c f5       	brge	.+70     	; 0x11f6 <splitDataBytes+0xf6>
		{
			switch(recievedHeader)
    11b0:	88 3c       	cpi	r24, 0xC8	; 200
    11b2:	91 05       	cpc	r25, r1
    11b4:	89 f0       	breq	.+34     	; 0x11d8 <splitDataBytes+0xd8>
    11b6:	24 f4       	brge	.+8      	; 0x11c0 <splitDataBytes+0xc0>
    11b8:	80 3c       	cpi	r24, 0xC0	; 192
    11ba:	91 05       	cpc	r25, r1
    11bc:	41 f0       	breq	.+16     	; 0x11ce <splitDataBytes+0xce>
    11be:	4c c0       	rjmp	.+152    	; 0x1258 <splitDataBytes+0x158>
    11c0:	8a 3c       	cpi	r24, 0xCA	; 202
    11c2:	91 05       	cpc	r25, r1
    11c4:	71 f0       	breq	.+28     	; 0x11e2 <splitDataBytes+0xe2>
    11c6:	80 3d       	cpi	r24, 0xD0	; 208
    11c8:	91 05       	cpc	r25, r1
    11ca:	81 f0       	breq	.+32     	; 0x11ec <splitDataBytes+0xec>
    11cc:	45 c0       	rjmp	.+138    	; 0x1258 <splitDataBytes+0x158>
			{
				case SENSOR_2:
				{
					dataToSplit = averageDistance2;
    11ce:	80 91 7f 00 	lds	r24, 0x007F
    11d2:	90 91 80 00 	lds	r25, 0x0080
					break;
    11d6:	45 c0       	rjmp	.+138    	; 0x1262 <splitDataBytes+0x162>
				}
				case SENSOR_1:
				{
					dataToSplit = averageDistance1;
    11d8:	80 91 0b 02 	lds	r24, 0x020B
    11dc:	90 91 0c 02 	lds	r25, 0x020C
					break;
    11e0:	40 c0       	rjmp	.+128    	; 0x1262 <splitDataBytes+0x162>
				}
				case DISTANCE_NORTH:
				{
					dataToSplit = sideDistance1;
    11e2:	80 91 cb 01 	lds	r24, 0x01CB
    11e6:	90 91 cc 01 	lds	r25, 0x01CC
					break;
    11ea:	3b c0       	rjmp	.+118    	; 0x1262 <splitDataBytes+0x162>
				}
				case DISTANCE_EAST:
				{
					dataToSplit = sideDistance2;
    11ec:	80 91 09 02 	lds	r24, 0x0209
    11f0:	90 91 0a 02 	lds	r25, 0x020A
					break;
    11f4:	36 c0       	rjmp	.+108    	; 0x1262 <splitDataBytes+0x162>
				}
			}
		}
		else
		{
			switch(recievedHeader)
    11f6:	88 3e       	cpi	r24, 0xE8	; 232
    11f8:	91 05       	cpc	r25, r1
    11fa:	c9 f0       	breq	.+50     	; 0x122e <splitDataBytes+0x12e>
    11fc:	3c f4       	brge	.+14     	; 0x120c <splitDataBytes+0x10c>
    11fe:	88 3d       	cpi	r24, 0xD8	; 216
    1200:	91 05       	cpc	r25, r1
    1202:	59 f0       	breq	.+22     	; 0x121a <splitDataBytes+0x11a>
    1204:	80 3e       	cpi	r24, 0xE0	; 224
    1206:	91 05       	cpc	r25, r1
    1208:	69 f0       	breq	.+26     	; 0x1224 <splitDataBytes+0x124>
    120a:	29 c0       	rjmp	.+82     	; 0x125e <splitDataBytes+0x15e>
    120c:	80 3f       	cpi	r24, 0xF0	; 240
    120e:	91 05       	cpc	r25, r1
    1210:	99 f0       	breq	.+38     	; 0x1238 <splitDataBytes+0x138>
    1212:	88 3f       	cpi	r24, 0xF8	; 248
    1214:	91 05       	cpc	r25, r1
    1216:	a9 f0       	breq	.+42     	; 0x1242 <splitDataBytes+0x142>
    1218:	22 c0       	rjmp	.+68     	; 0x125e <splitDataBytes+0x15e>
			{
				case DISTANCE_SOUTH:
				{
					dataToSplit = sideDistance3;
    121a:	80 91 f1 01 	lds	r24, 0x01F1
    121e:	90 91 f2 01 	lds	r25, 0x01F2
					break;
    1222:	1f c0       	rjmp	.+62     	; 0x1262 <splitDataBytes+0x162>
				}
				case DISTANCE_WEST:
				{
					dataToSplit = sideDistance4;
    1224:	80 91 cf 01 	lds	r24, 0x01CF
    1228:	90 91 d0 01 	lds	r25, 0x01D0
					break;
    122c:	1a c0       	rjmp	.+52     	; 0x1262 <splitDataBytes+0x162>
				}
				case ANGLE_NORTH:
				{
					dataToSplit = sideAngle1;
    122e:	80 91 81 00 	lds	r24, 0x0081
    1232:	90 91 82 00 	lds	r25, 0x0082
					break;
    1236:	15 c0       	rjmp	.+42     	; 0x1262 <splitDataBytes+0x162>
				}
				case ANGLE_EAST:
				{
					dataToSplit = sideAngle2;
    1238:	80 91 0d 02 	lds	r24, 0x020D
    123c:	90 91 0e 02 	lds	r25, 0x020E
					break;
    1240:	10 c0       	rjmp	.+32     	; 0x1262 <splitDataBytes+0x162>
				}
				case ANGLE_SOUTH:
				{
					dataToSplit = sideAngle3;
    1242:	80 91 83 00 	lds	r24, 0x0083
    1246:	90 91 84 00 	lds	r25, 0x0084
					break;
    124a:	0b c0       	rjmp	.+22     	; 0x1262 <splitDataBytes+0x162>
			}
}

void splitDataBytes(int recievedHeader)
{
    int dataToSplit = 0;
    124c:	80 e0       	ldi	r24, 0x00	; 0
    124e:	90 e0       	ldi	r25, 0x00	; 0
    1250:	08 c0       	rjmp	.+16     	; 0x1262 <splitDataBytes+0x162>
    1252:	80 e0       	ldi	r24, 0x00	; 0
    1254:	90 e0       	ldi	r25, 0x00	; 0
    1256:	05 c0       	rjmp	.+10     	; 0x1262 <splitDataBytes+0x162>
    1258:	80 e0       	ldi	r24, 0x00	; 0
    125a:	90 e0       	ldi	r25, 0x00	; 0
    125c:	02 c0       	rjmp	.+4      	; 0x1262 <splitDataBytes+0x162>
    125e:	80 e0       	ldi	r24, 0x00	; 0
    1260:	90 e0       	ldi	r25, 0x00	; 0
					break;
				}
			}
		}
	}
    transmitDataByte1 = (dataToSplit >> 8);
    1262:	90 93 6b 00 	sts	0x006B, r25
    transmitDataByte2 = (dataToSplit & 0b0000000011111111);
    1266:	80 93 6a 00 	sts	0x006A, r24
    126a:	08 95       	ret

0000126c <__vector_10>:
}



ISR(SPISTC_vect)//SPI-överföring klar
{
    126c:	1f 92       	push	r1
    126e:	0f 92       	push	r0
    1270:	0f b6       	in	r0, 0x3f	; 63
    1272:	0f 92       	push	r0
    1274:	11 24       	eor	r1, r1
    1276:	2f 93       	push	r18
    1278:	3f 93       	push	r19
    127a:	4f 93       	push	r20
    127c:	5f 93       	push	r21
    127e:	6f 93       	push	r22
    1280:	7f 93       	push	r23
    1282:	8f 93       	push	r24
    1284:	9f 93       	push	r25
    1286:	af 93       	push	r26
    1288:	bf 93       	push	r27
    128a:	ef 93       	push	r30
    128c:	ff 93       	push	r31
    switch(transmitStatus)
    128e:	80 91 6c 00 	lds	r24, 0x006C
    1292:	90 91 6d 00 	lds	r25, 0x006D
    1296:	81 30       	cpi	r24, 0x01	; 1
    1298:	91 05       	cpc	r25, r1
    129a:	f1 f0       	breq	.+60     	; 0x12d8 <__vector_10+0x6c>
    129c:	82 30       	cpi	r24, 0x02	; 2
    129e:	91 05       	cpc	r25, r1
    12a0:	29 f1       	breq	.+74     	; 0x12ec <__vector_10+0x80>
    12a2:	89 2b       	or	r24, r25
    12a4:	41 f5       	brne	.+80     	; 0x12f6 <__vector_10+0x8a>
    {
        case NO_TRANSMIT:
        {
            recievedHeader = SPDR; // Test för utskrift, kan tas bort
    12a6:	8f b1       	in	r24, 0x0f	; 15
    12a8:	90 e0       	ldi	r25, 0x00	; 0
    12aa:	90 93 6f 00 	sts	0x006F, r25
    12ae:	80 93 6e 00 	sts	0x006E, r24
            if (SPDR != TRASH)
    12b2:	8f b1       	in	r24, 0x0f	; 15
    12b4:	88 3b       	cpi	r24, 0xB8	; 184
    12b6:	71 f0       	breq	.+28     	; 0x12d4 <__vector_10+0x68>
            {
                splitDataBytes(SPDR);
    12b8:	8f b1       	in	r24, 0x0f	; 15
    12ba:	90 e0       	ldi	r25, 0x00	; 0
    12bc:	0e 94 80 08 	call	0x1100	; 0x1100 <splitDataBytes>
                transmitStatus = FIRST_BYTE_TRANSMITTED;
    12c0:	81 e0       	ldi	r24, 0x01	; 1
    12c2:	90 e0       	ldi	r25, 0x00	; 0
    12c4:	90 93 6d 00 	sts	0x006D, r25
    12c8:	80 93 6c 00 	sts	0x006C, r24
                SPDR = transmitDataByte1;
    12cc:	80 91 6b 00 	lds	r24, 0x006B
    12d0:	8f b9       	out	0x0f, r24	; 15
    12d2:	15 c0       	rjmp	.+42     	; 0x12fe <__vector_10+0x92>
            }
            else
            {
                SPDR = 0;
    12d4:	1f b8       	out	0x0f, r1	; 15
    12d6:	13 c0       	rjmp	.+38     	; 0x12fe <__vector_10+0x92>
            }
            break;
        }
        case FIRST_BYTE_TRANSMITTED:
        {
            SPDR = transmitDataByte2;
    12d8:	80 91 6a 00 	lds	r24, 0x006A
    12dc:	8f b9       	out	0x0f, r24	; 15
            transmitStatus = SECOND_BYTE_TRANSMITTED;
    12de:	82 e0       	ldi	r24, 0x02	; 2
    12e0:	90 e0       	ldi	r25, 0x00	; 0
    12e2:	90 93 6d 00 	sts	0x006D, r25
    12e6:	80 93 6c 00 	sts	0x006C, r24
            break;
    12ea:	09 c0       	rjmp	.+18     	; 0x12fe <__vector_10+0x92>
        }
        case SECOND_BYTE_TRANSMITTED:
        {
            transmitStatus = NO_TRANSMIT;
    12ec:	10 92 6d 00 	sts	0x006D, r1
    12f0:	10 92 6c 00 	sts	0x006C, r1
            break;
    12f4:	04 c0       	rjmp	.+8      	; 0x12fe <__vector_10+0x92>
        }
        default:
        {
            transmitStatus = NO_TRANSMIT;
    12f6:	10 92 6d 00 	sts	0x006D, r1
    12fa:	10 92 6c 00 	sts	0x006C, r1
            break;
        }
    }    
}
    12fe:	ff 91       	pop	r31
    1300:	ef 91       	pop	r30
    1302:	bf 91       	pop	r27
    1304:	af 91       	pop	r26
    1306:	9f 91       	pop	r25
    1308:	8f 91       	pop	r24
    130a:	7f 91       	pop	r23
    130c:	6f 91       	pop	r22
    130e:	5f 91       	pop	r21
    1310:	4f 91       	pop	r20
    1312:	3f 91       	pop	r19
    1314:	2f 91       	pop	r18
    1316:	0f 90       	pop	r0
    1318:	0f be       	out	0x3f, r0	; 63
    131a:	0f 90       	pop	r0
    131c:	1f 90       	pop	r1
    131e:	18 95       	reti

00001320 <__vector_18>:

ISR(INT2_vect)
{
    1320:	1f 92       	push	r1
    1322:	0f 92       	push	r0
    1324:	0f b6       	in	r0, 0x3f	; 63
    1326:	0f 92       	push	r0
    1328:	11 24       	eor	r1, r1
    132a:	8f 93       	push	r24
    132c:	9f 93       	push	r25
	potentialLeak_g += 1;
    132e:	80 91 66 00 	lds	r24, 0x0066
    1332:	90 91 67 00 	lds	r25, 0x0067
    1336:	01 96       	adiw	r24, 0x01	; 1
    1338:	90 93 67 00 	sts	0x0067, r25
    133c:	80 93 66 00 	sts	0x0066, r24
}
    1340:	9f 91       	pop	r25
    1342:	8f 91       	pop	r24
    1344:	0f 90       	pop	r0
    1346:	0f be       	out	0x3f, r0	; 63
    1348:	0f 90       	pop	r0
    134a:	1f 90       	pop	r1
    134c:	18 95       	reti

0000134e <main>:

int main(void)
{	
	initPorts();
    134e:	0e 94 cf 05 	call	0xb9e	; 0xb9e <initPorts>
    //MCUCR = 0b1111; // Stigande flank på INT1/0 genererar avbrott
    GICR = (GICR | 32); // Möjliggör externa avbrott på INT2
    1352:	8b b7       	in	r24, 0x3b	; 59
    1354:	80 62       	ori	r24, 0x20	; 32
    1356:	8b bf       	out	0x3b, r24	; 59
	
	DDRC = (DDRC | 0b01000011);
    1358:	84 b3       	in	r24, 0x14	; 20
    135a:	83 64       	ori	r24, 0x43	; 67
    135c:	84 bb       	out	0x14, r24	; 20
	
	int iteration = 0; // Iterator för vilken avläsning på sensorn som görs
	
	makeAngleTable();
    135e:	0e 94 80 05 	call	0xb00	; 0xb00 <makeAngleTable>
    sei();
    1362:	78 94       	sei
    //MCUCR = 0b1111; // Stigande flank på INT1/0 genererar avbrott
    GICR = (GICR | 32); // Möjliggör externa avbrott på INT2
	
	DDRC = (DDRC | 0b01000011);
	
	int iteration = 0; // Iterator för vilken avläsning på sensorn som görs
    1364:	00 e0       	ldi	r16, 0x00	; 0
    1366:	10 e0       	ldi	r17, 0x00	; 0
			noLeakCounter_g ++;
		}
		
		if (leakCounter_g >= 3)
		{
			leakFound_g = 1;
    1368:	ee 24       	eor	r14, r14
    136a:	e3 94       	inc	r14
    136c:	f1 2c       	mov	r15, r1
			leakCounter_g = 0;
			PORTC = ((1 << PORTC0) | (1 << PORTC1) | (1 << PORTC6));
    136e:	0f 2e       	mov	r0, r31
    1370:	f3 e4       	ldi	r31, 0x43	; 67
    1372:	3f 2e       	mov	r3, r31
    1374:	f0 2d       	mov	r31, r0
}

void startAD(int muxBit2, int muxBit1, int muxBit0)
{
	ADMUX = (muxBit2<<MUX2) | (muxBit1<<MUX1) | (muxBit0<<MUX0); // Väljer port som ska AD-omvandlas
	ADCSRA = (1<<ADEN) | (1<<ADSC) | (1<<ADPS1) | (1<<ADPS0); // Startar AD-omvandling
    1376:	0f 2e       	mov	r0, r31
    1378:	f3 ec       	ldi	r31, 0xC3	; 195
    137a:	df 2e       	mov	r13, r31
    137c:	f0 2d       	mov	r31, r0
	}
}

void startAD(int muxBit2, int muxBit1, int muxBit0)
{
	ADMUX = (muxBit2<<MUX2) | (muxBit1<<MUX1) | (muxBit0<<MUX0); // Väljer port som ska AD-omvandlas
    137e:	44 24       	eor	r4, r4
    1380:	43 94       	inc	r4
    1382:	68 94       	set
    1384:	cc 24       	eor	r12, r12
    1386:	c1 f8       	bld	r12, 1
    1388:	0f 2e       	mov	r0, r31
    138a:	f3 e0       	ldi	r31, 0x03	; 3
    138c:	5f 2e       	mov	r5, r31
    138e:	f0 2d       	mov	r31, r0
    1390:	68 94       	set
    1392:	66 24       	eor	r6, r6
    1394:	62 f8       	bld	r6, 2
    1396:	0f 2e       	mov	r0, r31
    1398:	f5 e0       	ldi	r31, 0x05	; 5
    139a:	7f 2e       	mov	r7, r31
    139c:	f0 2d       	mov	r31, r0
    139e:	0f 2e       	mov	r0, r31
    13a0:	f6 e0       	ldi	r31, 0x06	; 6
    13a2:	8f 2e       	mov	r8, r31
    13a4:	f0 2d       	mov	r31, r0
    13a6:	0f 2e       	mov	r0, r31
    13a8:	f7 e0       	ldi	r31, 0x07	; 7
    13aa:	9f 2e       	mov	r9, r31
    13ac:	f0 2d       	mov	r31, r0
			writeSensor(sideDistance2);
			writeSensor(sideDistance3);
			writeSensor(sideDistance4);
			
			PORTB = (1<<displayE);
			PORTD = (1<<PORTD6) | (1<<PORTD7); // Byter till rad 2 på displayen
    13ae:	0f 2e       	mov	r0, r31
    13b0:	f0 ec       	ldi	r31, 0xC0	; 192
    13b2:	af 2e       	mov	r10, r31
    13b4:	f0 2d       	mov	r31, r0
			writeSensor(sideAngle2);
			writeSensor(potentialLeak_g);
			writeSensor(leakFound_g);
		
			PORTB = (1<<displayE);
			PORTD = (1<<PORTD7); // Rad 1
    13b6:	68 94       	set
    13b8:	bb 24       	eor	r11, r11
    13ba:	b7 f8       	bld	r11, 7
    sei();


    while(1)
    {
		if(potentialLeak_g > leakSensitivity_g)
    13bc:	20 91 66 00 	lds	r18, 0x0066
    13c0:	30 91 67 00 	lds	r19, 0x0067
    13c4:	80 91 60 00 	lds	r24, 0x0060
    13c8:	90 91 61 00 	lds	r25, 0x0061
    13cc:	82 17       	cp	r24, r18
    13ce:	93 07       	cpc	r25, r19
    13d0:	74 f4       	brge	.+28     	; 0x13ee <main+0xa0>
		{
			leakCounter_g ++;
    13d2:	80 91 64 00 	lds	r24, 0x0064
    13d6:	90 91 65 00 	lds	r25, 0x0065
    13da:	01 96       	adiw	r24, 0x01	; 1
    13dc:	90 93 65 00 	sts	0x0065, r25
    13e0:	80 93 64 00 	sts	0x0064, r24
			noLeakCounter_g = 0;
    13e4:	10 92 63 00 	sts	0x0063, r1
    13e8:	10 92 62 00 	sts	0x0062, r1
    13ec:	0d c0       	rjmp	.+26     	; 0x1408 <main+0xba>
		} 
		else 
		{
			leakCounter_g = 0;
    13ee:	10 92 65 00 	sts	0x0065, r1
    13f2:	10 92 64 00 	sts	0x0064, r1
			noLeakCounter_g ++;
    13f6:	80 91 62 00 	lds	r24, 0x0062
    13fa:	90 91 63 00 	lds	r25, 0x0063
    13fe:	01 96       	adiw	r24, 0x01	; 1
    1400:	90 93 63 00 	sts	0x0063, r25
    1404:	80 93 62 00 	sts	0x0062, r24
		}
		
		if (leakCounter_g >= 3)
    1408:	80 91 64 00 	lds	r24, 0x0064
    140c:	90 91 65 00 	lds	r25, 0x0065
    1410:	03 97       	sbiw	r24, 0x03	; 3
    1412:	54 f0       	brlt	.+20     	; 0x1428 <main+0xda>
		{
			leakFound_g = 1;
    1414:	f0 92 69 00 	sts	0x0069, r15
    1418:	e0 92 68 00 	sts	0x0068, r14
			leakCounter_g = 0;
    141c:	10 92 65 00 	sts	0x0065, r1
    1420:	10 92 64 00 	sts	0x0064, r1
			PORTC = ((1 << PORTC0) | (1 << PORTC1) | (1 << PORTC6));
    1424:	35 ba       	out	0x15, r3	; 21
    1426:	0b c0       	rjmp	.+22     	; 0x143e <main+0xf0>
			
		} 
		else if(noLeakCounter_g >= 3)
    1428:	80 91 62 00 	lds	r24, 0x0062
    142c:	90 91 63 00 	lds	r25, 0x0063
    1430:	03 97       	sbiw	r24, 0x03	; 3
    1432:	2c f0       	brlt	.+10     	; 0x143e <main+0xf0>
		{
			leakFound_g = 0;
    1434:	10 92 69 00 	sts	0x0069, r1
    1438:	10 92 68 00 	sts	0x0068, r1
			PORTC = ((0 << PORTC0) | (0 << PORTC1) | (0 << PORTC6));		
    143c:	15 ba       	out	0x15, r1	; 21
		}

		potentialLeak_g = 0;
    143e:	10 92 67 00 	sts	0x0067, r1
    1442:	10 92 66 00 	sts	0x0066, r1
				
		if (iteration >= 4) // iteration används så att det görs 5 mätningar per sensor
    1446:	04 30       	cpi	r16, 0x04	; 4
    1448:	11 05       	cpc	r17, r1
    144a:	1c f4       	brge	.+6      	; 0x1452 <main+0x104>
		{
			iteration = 0;
		}
		else
		{
			iteration = iteration + 1;
    144c:	0f 5f       	subi	r16, 0xFF	; 255
    144e:	1f 4f       	sbci	r17, 0xFF	; 255
    1450:	02 c0       	rjmp	.+4      	; 0x1456 <main+0x108>

		potentialLeak_g = 0;
				
		if (iteration >= 4) // iteration används så att det görs 5 mätningar per sensor
		{
			iteration = 0;
    1452:	00 e0       	ldi	r16, 0x00	; 0
    1454:	10 e0       	ldi	r17, 0x00	; 0
	}
}

void startAD(int muxBit2, int muxBit1, int muxBit0)
{
	ADMUX = (muxBit2<<MUX2) | (muxBit1<<MUX1) | (muxBit0<<MUX0); // Väljer port som ska AD-omvandlas
    1456:	17 b8       	out	0x07, r1	; 7
	ADCSRA = (1<<ADEN) | (1<<ADSC) | (1<<ADPS1) | (1<<ADPS0); // Startar AD-omvandling
    1458:	d6 b8       	out	0x06, r13	; 6
		{
			iteration = iteration + 1;
		}
		
		startAD(0,0,0);
		waitForConversionComplete();
    145a:	0e 94 13 07 	call	0xe26	; 0xe26 <waitForConversionComplete>
		sensor1[iteration] = tempReading;
    145e:	e8 01       	movw	r28, r16
    1460:	cc 0f       	add	r28, r28
    1462:	dd 1f       	adc	r29, r29
    1464:	fe 01       	movw	r30, r28
    1466:	e9 51       	subi	r30, 0x19	; 25
    1468:	fe 4f       	sbci	r31, 0xFE	; 254
    146a:	80 91 f3 01 	lds	r24, 0x01F3
    146e:	90 91 f4 01 	lds	r25, 0x01F4
    1472:	91 83       	std	Z+1, r25	; 0x01
    1474:	80 83       	st	Z, r24
	}
}

void startAD(int muxBit2, int muxBit1, int muxBit0)
{
	ADMUX = (muxBit2<<MUX2) | (muxBit1<<MUX1) | (muxBit0<<MUX0); // Väljer port som ska AD-omvandlas
    1476:	47 b8       	out	0x07, r4	; 7
	ADCSRA = (1<<ADEN) | (1<<ADSC) | (1<<ADPS1) | (1<<ADPS0); // Startar AD-omvandling
    1478:	d6 b8       	out	0x06, r13	; 6
		startAD(0,0,0);
		waitForConversionComplete();
		sensor1[iteration] = tempReading;
		
		startAD(0,0,1);
		waitForConversionComplete();
    147a:	0e 94 13 07 	call	0xe26	; 0xe26 <waitForConversionComplete>
		sensor2[iteration] = tempReading;
    147e:	fe 01       	movw	r30, r28
    1480:	e1 50       	subi	r30, 0x01	; 1
    1482:	fe 4f       	sbci	r31, 0xFE	; 254
    1484:	80 91 f3 01 	lds	r24, 0x01F3
    1488:	90 91 f4 01 	lds	r25, 0x01F4
    148c:	91 83       	std	Z+1, r25	; 0x01
    148e:	80 83       	st	Z, r24
	}
}

void startAD(int muxBit2, int muxBit1, int muxBit0)
{
	ADMUX = (muxBit2<<MUX2) | (muxBit1<<MUX1) | (muxBit0<<MUX0); // Väljer port som ska AD-omvandlas
    1490:	c7 b8       	out	0x07, r12	; 7
	ADCSRA = (1<<ADEN) | (1<<ADSC) | (1<<ADPS1) | (1<<ADPS0); // Startar AD-omvandling
    1492:	d6 b8       	out	0x06, r13	; 6
		startAD(0,0,1);
		waitForConversionComplete();
		sensor2[iteration] = tempReading;
		
		startAD(0,1,0);
		waitForConversionComplete();
    1494:	0e 94 13 07 	call	0xe26	; 0xe26 <waitForConversionComplete>
		sensor3[iteration] = tempReading;
    1498:	fe 01       	movw	r30, r28
    149a:	ed 56       	subi	r30, 0x6D	; 109
    149c:	ff 4f       	sbci	r31, 0xFF	; 255
    149e:	80 91 f3 01 	lds	r24, 0x01F3
    14a2:	90 91 f4 01 	lds	r25, 0x01F4
    14a6:	91 83       	std	Z+1, r25	; 0x01
    14a8:	80 83       	st	Z, r24
	}
}

void startAD(int muxBit2, int muxBit1, int muxBit0)
{
	ADMUX = (muxBit2<<MUX2) | (muxBit1<<MUX1) | (muxBit0<<MUX0); // Väljer port som ska AD-omvandlas
    14aa:	57 b8       	out	0x07, r5	; 7
	ADCSRA = (1<<ADEN) | (1<<ADSC) | (1<<ADPS1) | (1<<ADPS0); // Startar AD-omvandling
    14ac:	d6 b8       	out	0x06, r13	; 6
		startAD(0,1,0);
		waitForConversionComplete();
		sensor3[iteration] = tempReading;
		
		startAD(0,1,1);
		waitForConversionComplete();
    14ae:	0e 94 13 07 	call	0xe26	; 0xe26 <waitForConversionComplete>
		sensor4[iteration] = tempReading;		
    14b2:	fe 01       	movw	r30, r28
    14b4:	e3 52       	subi	r30, 0x23	; 35
    14b6:	fe 4f       	sbci	r31, 0xFE	; 254
    14b8:	80 91 f3 01 	lds	r24, 0x01F3
    14bc:	90 91 f4 01 	lds	r25, 0x01F4
    14c0:	91 83       	std	Z+1, r25	; 0x01
    14c2:	80 83       	st	Z, r24
	}
}

void startAD(int muxBit2, int muxBit1, int muxBit0)
{
	ADMUX = (muxBit2<<MUX2) | (muxBit1<<MUX1) | (muxBit0<<MUX0); // Väljer port som ska AD-omvandlas
    14c4:	67 b8       	out	0x07, r6	; 7
	ADCSRA = (1<<ADEN) | (1<<ADSC) | (1<<ADPS1) | (1<<ADPS0); // Startar AD-omvandling
    14c6:	d6 b8       	out	0x06, r13	; 6
		startAD(0,1,1);
		waitForConversionComplete();
		sensor4[iteration] = tempReading;		
		
		startAD(1,0,0);
		waitForConversionComplete();
    14c8:	0e 94 13 07 	call	0xe26	; 0xe26 <waitForConversionComplete>
		sensor5[iteration] = tempReading;
    14cc:	fe 01       	movw	r30, r28
    14ce:	ef 52       	subi	r30, 0x2F	; 47
    14d0:	fe 4f       	sbci	r31, 0xFE	; 254
    14d2:	80 91 f3 01 	lds	r24, 0x01F3
    14d6:	90 91 f4 01 	lds	r25, 0x01F4
    14da:	91 83       	std	Z+1, r25	; 0x01
    14dc:	80 83       	st	Z, r24
	}
}

void startAD(int muxBit2, int muxBit1, int muxBit0)
{
	ADMUX = (muxBit2<<MUX2) | (muxBit1<<MUX1) | (muxBit0<<MUX0); // Väljer port som ska AD-omvandlas
    14de:	77 b8       	out	0x07, r7	; 7
	ADCSRA = (1<<ADEN) | (1<<ADSC) | (1<<ADPS1) | (1<<ADPS0); // Startar AD-omvandling
    14e0:	d6 b8       	out	0x06, r13	; 6
		startAD(1,0,0);
		waitForConversionComplete();
		sensor5[iteration] = tempReading;
		
		startAD(1,0,1);
		waitForConversionComplete();
    14e2:	0e 94 13 07 	call	0xe26	; 0xe26 <waitForConversionComplete>
		sensor6[iteration] = tempReading;
    14e6:	fe 01       	movw	r30, r28
    14e8:	e7 57       	subi	r30, 0x77	; 119
    14ea:	ff 4f       	sbci	r31, 0xFF	; 255
    14ec:	80 91 f3 01 	lds	r24, 0x01F3
    14f0:	90 91 f4 01 	lds	r25, 0x01F4
    14f4:	91 83       	std	Z+1, r25	; 0x01
    14f6:	80 83       	st	Z, r24
	}
}

void startAD(int muxBit2, int muxBit1, int muxBit0)
{
	ADMUX = (muxBit2<<MUX2) | (muxBit1<<MUX1) | (muxBit0<<MUX0); // Väljer port som ska AD-omvandlas
    14f8:	87 b8       	out	0x07, r8	; 7
	ADCSRA = (1<<ADEN) | (1<<ADSC) | (1<<ADPS1) | (1<<ADPS0); // Startar AD-omvandling
    14fa:	d6 b8       	out	0x06, r13	; 6
		startAD(1,0,1);
		waitForConversionComplete();
		sensor6[iteration] = tempReading;
		
		startAD(1,1,0);
		waitForConversionComplete();
    14fc:	0e 94 13 07 	call	0xe26	; 0xe26 <waitForConversionComplete>
		sensor7[iteration] = tempReading;
    1500:	fe 01       	movw	r30, r28
    1502:	ed 58       	subi	r30, 0x8D	; 141
    1504:	ff 4f       	sbci	r31, 0xFF	; 255
    1506:	80 91 f3 01 	lds	r24, 0x01F3
    150a:	90 91 f4 01 	lds	r25, 0x01F4
    150e:	91 83       	std	Z+1, r25	; 0x01
    1510:	80 83       	st	Z, r24
	}
}

void startAD(int muxBit2, int muxBit1, int muxBit0)
{
	ADMUX = (muxBit2<<MUX2) | (muxBit1<<MUX1) | (muxBit0<<MUX0); // Väljer port som ska AD-omvandlas
    1512:	97 b8       	out	0x07, r9	; 7
	ADCSRA = (1<<ADEN) | (1<<ADSC) | (1<<ADPS1) | (1<<ADPS0); // Startar AD-omvandling
    1514:	d6 b8       	out	0x06, r13	; 6
		startAD(1,1,0);
		waitForConversionComplete();
		sensor7[iteration] = tempReading;

		startAD(1,1,1);
		waitForConversionComplete();
    1516:	0e 94 13 07 	call	0xe26	; 0xe26 <waitForConversionComplete>
		sensor8[iteration] = tempReading;				
    151a:	cb 50       	subi	r28, 0x0B	; 11
    151c:	de 4f       	sbci	r29, 0xFE	; 254
    151e:	80 91 f3 01 	lds	r24, 0x01F3
    1522:	90 91 f4 01 	lds	r25, 0x01F4
    1526:	99 83       	std	Y+1, r25	; 0x01
    1528:	88 83       	st	Y, r24
		
		/*if (iteration == 4)
		{*/
			
			calculateAvarageDistance();
    152a:	0e 94 74 07 	call	0xee8	; 0xee8 <calculateAvarageDistance>
			
			calculateAngle();
    152e:	0e 94 0f 08 	call	0x101e	; 0x101e <calculateAngle>
			writeSensor(sideDistance1); // Skriver ut alla sensorvärden
    1532:	80 91 cb 01 	lds	r24, 0x01CB
    1536:	90 91 cc 01 	lds	r25, 0x01CC
    153a:	0e 94 15 06 	call	0xc2a	; 0xc2a <writeSensor>
			writeSensor(sideDistance2);
    153e:	80 91 09 02 	lds	r24, 0x0209
    1542:	90 91 0a 02 	lds	r25, 0x020A
    1546:	0e 94 15 06 	call	0xc2a	; 0xc2a <writeSensor>
			writeSensor(sideDistance3);
    154a:	80 91 f1 01 	lds	r24, 0x01F1
    154e:	90 91 f2 01 	lds	r25, 0x01F2
    1552:	0e 94 15 06 	call	0xc2a	; 0xc2a <writeSensor>
			writeSensor(sideDistance4);
    1556:	80 91 cf 01 	lds	r24, 0x01CF
    155a:	90 91 d0 01 	lds	r25, 0x01D0
    155e:	0e 94 15 06 	call	0xc2a	; 0xc2a <writeSensor>
			
			PORTB = (1<<displayE);
    1562:	c8 ba       	out	0x18, r12	; 24
			PORTD = (1<<PORTD6) | (1<<PORTD7); // Byter till rad 2 på displayen
    1564:	a2 ba       	out	0x12, r10	; 18
			PORTB = (0<<displayE);
    1566:	18 ba       	out	0x18, r1	; 24
    1568:	8f e9       	ldi	r24, 0x9F	; 159
    156a:	9f e0       	ldi	r25, 0x0F	; 15
    156c:	01 97       	sbiw	r24, 0x01	; 1
    156e:	f1 f7       	brne	.-4      	; 0x156c <main+0x21e>
    1570:	00 c0       	rjmp	.+0      	; 0x1572 <main+0x224>
    1572:	00 00       	nop
			_delay_ms(1);

			writeSensor(sideAngle1);
    1574:	80 91 81 00 	lds	r24, 0x0081
    1578:	90 91 82 00 	lds	r25, 0x0082
    157c:	0e 94 15 06 	call	0xc2a	; 0xc2a <writeSensor>
			writeSensor(sideAngle2);
    1580:	80 91 0d 02 	lds	r24, 0x020D
    1584:	90 91 0e 02 	lds	r25, 0x020E
    1588:	0e 94 15 06 	call	0xc2a	; 0xc2a <writeSensor>
			writeSensor(potentialLeak_g);
    158c:	80 91 66 00 	lds	r24, 0x0066
    1590:	90 91 67 00 	lds	r25, 0x0067
    1594:	0e 94 15 06 	call	0xc2a	; 0xc2a <writeSensor>
			writeSensor(leakFound_g);
    1598:	80 91 68 00 	lds	r24, 0x0068
    159c:	90 91 69 00 	lds	r25, 0x0069
    15a0:	0e 94 15 06 	call	0xc2a	; 0xc2a <writeSensor>
		
			PORTB = (1<<displayE);
    15a4:	c8 ba       	out	0x18, r12	; 24
			PORTD = (1<<PORTD7); // Rad 1
    15a6:	b2 ba       	out	0x12, r11	; 18
			PORTB = (0<<displayE);
    15a8:	18 ba       	out	0x18, r1	; 24
    15aa:	8f e9       	ldi	r24, 0x9F	; 159
    15ac:	9f e0       	ldi	r25, 0x0F	; 15
    15ae:	01 97       	sbiw	r24, 0x01	; 1
    15b0:	f1 f7       	brne	.-4      	; 0x15ae <main+0x260>
    15b2:	00 c0       	rjmp	.+0      	; 0x15b4 <main+0x266>
    15b4:	00 00       	nop
    15b6:	8f eb       	ldi	r24, 0xBF	; 191
    15b8:	9d e5       	ldi	r25, 0x5D	; 93
    15ba:	01 97       	sbiw	r24, 0x01	; 1
    15bc:	f1 f7       	brne	.-4      	; 0x15ba <main+0x26c>
    15be:	00 c0       	rjmp	.+0      	; 0x15c0 <main+0x272>
    15c0:	00 00       	nop
    15c2:	fc ce       	rjmp	.-520    	; 0x13bc <main+0x6e>

000015c4 <asin>:
    15c4:	9f 93       	push	r25
    15c6:	9f 77       	andi	r25, 0x7F	; 127
    15c8:	ee e3       	ldi	r30, 0x3E	; 62
    15ca:	89 37       	cpi	r24, 0x79	; 121
    15cc:	9e 07       	cpc	r25, r30
    15ce:	20 f4       	brcc	.+8      	; 0x15d8 <asin+0x14>
    15d0:	e4 e6       	ldi	r30, 0x64	; 100
    15d2:	f0 e0       	ldi	r31, 0x00	; 0
    15d4:	2d d1       	rcall	.+602    	; 0x1830 <__fp_powsodd>
    15d6:	09 c0       	rjmp	.+18     	; 0x15ea <asin+0x26>
    15d8:	e2 d0       	rcall	.+452    	; 0x179e <__fp_arccos>
    15da:	90 58       	subi	r25, 0x80	; 128
    15dc:	a2 ea       	ldi	r26, 0xA2	; 162
    15de:	2a ed       	ldi	r18, 0xDA	; 218
    15e0:	3f e0       	ldi	r19, 0x0F	; 15
    15e2:	49 ec       	ldi	r20, 0xC9	; 201
    15e4:	5f e3       	ldi	r21, 0x3F	; 63
    15e6:	54 d2       	rcall	.+1192   	; 0x1a90 <__addsf3x>
    15e8:	42 d1       	rcall	.+644    	; 0x186e <__fp_round>
    15ea:	0f 90       	pop	r0
    15ec:	07 fc       	sbrc	r0, 7
    15ee:	90 58       	subi	r25, 0x80	; 128
    15f0:	08 95       	ret

000015f2 <__divsf3>:
    15f2:	0c d0       	rcall	.+24     	; 0x160c <__divsf3x>
    15f4:	3c c1       	rjmp	.+632    	; 0x186e <__fp_round>
    15f6:	34 d1       	rcall	.+616    	; 0x1860 <__fp_pscB>
    15f8:	40 f0       	brcs	.+16     	; 0x160a <__divsf3+0x18>
    15fa:	2b d1       	rcall	.+598    	; 0x1852 <__fp_pscA>
    15fc:	30 f0       	brcs	.+12     	; 0x160a <__divsf3+0x18>
    15fe:	21 f4       	brne	.+8      	; 0x1608 <__divsf3+0x16>
    1600:	5f 3f       	cpi	r21, 0xFF	; 255
    1602:	19 f0       	breq	.+6      	; 0x160a <__divsf3+0x18>
    1604:	e7 c0       	rjmp	.+462    	; 0x17d4 <__fp_inf>
    1606:	51 11       	cpse	r21, r1
    1608:	66 c1       	rjmp	.+716    	; 0x18d6 <__fp_szero>
    160a:	ea c0       	rjmp	.+468    	; 0x17e0 <__fp_nan>

0000160c <__divsf3x>:
    160c:	41 d1       	rcall	.+642    	; 0x1890 <__fp_split3>
    160e:	98 f3       	brcs	.-26     	; 0x15f6 <__divsf3+0x4>

00001610 <__divsf3_pse>:
    1610:	99 23       	and	r25, r25
    1612:	c9 f3       	breq	.-14     	; 0x1606 <__divsf3+0x14>
    1614:	55 23       	and	r21, r21
    1616:	b1 f3       	breq	.-20     	; 0x1604 <__divsf3+0x12>
    1618:	95 1b       	sub	r25, r21
    161a:	55 0b       	sbc	r21, r21
    161c:	bb 27       	eor	r27, r27
    161e:	aa 27       	eor	r26, r26
    1620:	62 17       	cp	r22, r18
    1622:	73 07       	cpc	r23, r19
    1624:	84 07       	cpc	r24, r20
    1626:	38 f0       	brcs	.+14     	; 0x1636 <__divsf3_pse+0x26>
    1628:	9f 5f       	subi	r25, 0xFF	; 255
    162a:	5f 4f       	sbci	r21, 0xFF	; 255
    162c:	22 0f       	add	r18, r18
    162e:	33 1f       	adc	r19, r19
    1630:	44 1f       	adc	r20, r20
    1632:	aa 1f       	adc	r26, r26
    1634:	a9 f3       	breq	.-22     	; 0x1620 <__divsf3_pse+0x10>
    1636:	33 d0       	rcall	.+102    	; 0x169e <__divsf3_pse+0x8e>
    1638:	0e 2e       	mov	r0, r30
    163a:	3a f0       	brmi	.+14     	; 0x164a <__divsf3_pse+0x3a>
    163c:	e0 e8       	ldi	r30, 0x80	; 128
    163e:	30 d0       	rcall	.+96     	; 0x16a0 <__divsf3_pse+0x90>
    1640:	91 50       	subi	r25, 0x01	; 1
    1642:	50 40       	sbci	r21, 0x00	; 0
    1644:	e6 95       	lsr	r30
    1646:	00 1c       	adc	r0, r0
    1648:	ca f7       	brpl	.-14     	; 0x163c <__divsf3_pse+0x2c>
    164a:	29 d0       	rcall	.+82     	; 0x169e <__divsf3_pse+0x8e>
    164c:	fe 2f       	mov	r31, r30
    164e:	27 d0       	rcall	.+78     	; 0x169e <__divsf3_pse+0x8e>
    1650:	66 0f       	add	r22, r22
    1652:	77 1f       	adc	r23, r23
    1654:	88 1f       	adc	r24, r24
    1656:	bb 1f       	adc	r27, r27
    1658:	26 17       	cp	r18, r22
    165a:	37 07       	cpc	r19, r23
    165c:	48 07       	cpc	r20, r24
    165e:	ab 07       	cpc	r26, r27
    1660:	b0 e8       	ldi	r27, 0x80	; 128
    1662:	09 f0       	breq	.+2      	; 0x1666 <__divsf3_pse+0x56>
    1664:	bb 0b       	sbc	r27, r27
    1666:	80 2d       	mov	r24, r0
    1668:	bf 01       	movw	r22, r30
    166a:	ff 27       	eor	r31, r31
    166c:	93 58       	subi	r25, 0x83	; 131
    166e:	5f 4f       	sbci	r21, 0xFF	; 255
    1670:	2a f0       	brmi	.+10     	; 0x167c <__divsf3_pse+0x6c>
    1672:	9e 3f       	cpi	r25, 0xFE	; 254
    1674:	51 05       	cpc	r21, r1
    1676:	68 f0       	brcs	.+26     	; 0x1692 <__divsf3_pse+0x82>
    1678:	ad c0       	rjmp	.+346    	; 0x17d4 <__fp_inf>
    167a:	2d c1       	rjmp	.+602    	; 0x18d6 <__fp_szero>
    167c:	5f 3f       	cpi	r21, 0xFF	; 255
    167e:	ec f3       	brlt	.-6      	; 0x167a <__divsf3_pse+0x6a>
    1680:	98 3e       	cpi	r25, 0xE8	; 232
    1682:	dc f3       	brlt	.-10     	; 0x167a <__divsf3_pse+0x6a>
    1684:	86 95       	lsr	r24
    1686:	77 95       	ror	r23
    1688:	67 95       	ror	r22
    168a:	b7 95       	ror	r27
    168c:	f7 95       	ror	r31
    168e:	9f 5f       	subi	r25, 0xFF	; 255
    1690:	c9 f7       	brne	.-14     	; 0x1684 <__divsf3_pse+0x74>
    1692:	88 0f       	add	r24, r24
    1694:	91 1d       	adc	r25, r1
    1696:	96 95       	lsr	r25
    1698:	87 95       	ror	r24
    169a:	97 f9       	bld	r25, 7
    169c:	08 95       	ret
    169e:	e1 e0       	ldi	r30, 0x01	; 1
    16a0:	66 0f       	add	r22, r22
    16a2:	77 1f       	adc	r23, r23
    16a4:	88 1f       	adc	r24, r24
    16a6:	bb 1f       	adc	r27, r27
    16a8:	62 17       	cp	r22, r18
    16aa:	73 07       	cpc	r23, r19
    16ac:	84 07       	cpc	r24, r20
    16ae:	ba 07       	cpc	r27, r26
    16b0:	20 f0       	brcs	.+8      	; 0x16ba <__divsf3_pse+0xaa>
    16b2:	62 1b       	sub	r22, r18
    16b4:	73 0b       	sbc	r23, r19
    16b6:	84 0b       	sbc	r24, r20
    16b8:	ba 0b       	sbc	r27, r26
    16ba:	ee 1f       	adc	r30, r30
    16bc:	88 f7       	brcc	.-30     	; 0x16a0 <__divsf3_pse+0x90>
    16be:	e0 95       	com	r30
    16c0:	08 95       	ret

000016c2 <__fixsfsi>:
    16c2:	04 d0       	rcall	.+8      	; 0x16cc <__fixunssfsi>
    16c4:	68 94       	set
    16c6:	b1 11       	cpse	r27, r1
    16c8:	06 c1       	rjmp	.+524    	; 0x18d6 <__fp_szero>
    16ca:	08 95       	ret

000016cc <__fixunssfsi>:
    16cc:	e9 d0       	rcall	.+466    	; 0x18a0 <__fp_splitA>
    16ce:	88 f0       	brcs	.+34     	; 0x16f2 <__fixunssfsi+0x26>
    16d0:	9f 57       	subi	r25, 0x7F	; 127
    16d2:	90 f0       	brcs	.+36     	; 0x16f8 <__fixunssfsi+0x2c>
    16d4:	b9 2f       	mov	r27, r25
    16d6:	99 27       	eor	r25, r25
    16d8:	b7 51       	subi	r27, 0x17	; 23
    16da:	a0 f0       	brcs	.+40     	; 0x1704 <__fixunssfsi+0x38>
    16dc:	d1 f0       	breq	.+52     	; 0x1712 <__fixunssfsi+0x46>
    16de:	66 0f       	add	r22, r22
    16e0:	77 1f       	adc	r23, r23
    16e2:	88 1f       	adc	r24, r24
    16e4:	99 1f       	adc	r25, r25
    16e6:	1a f0       	brmi	.+6      	; 0x16ee <__fixunssfsi+0x22>
    16e8:	ba 95       	dec	r27
    16ea:	c9 f7       	brne	.-14     	; 0x16de <__fixunssfsi+0x12>
    16ec:	12 c0       	rjmp	.+36     	; 0x1712 <__fixunssfsi+0x46>
    16ee:	b1 30       	cpi	r27, 0x01	; 1
    16f0:	81 f0       	breq	.+32     	; 0x1712 <__fixunssfsi+0x46>
    16f2:	f0 d0       	rcall	.+480    	; 0x18d4 <__fp_zero>
    16f4:	b1 e0       	ldi	r27, 0x01	; 1
    16f6:	08 95       	ret
    16f8:	ed c0       	rjmp	.+474    	; 0x18d4 <__fp_zero>
    16fa:	67 2f       	mov	r22, r23
    16fc:	78 2f       	mov	r23, r24
    16fe:	88 27       	eor	r24, r24
    1700:	b8 5f       	subi	r27, 0xF8	; 248
    1702:	39 f0       	breq	.+14     	; 0x1712 <__fixunssfsi+0x46>
    1704:	b9 3f       	cpi	r27, 0xF9	; 249
    1706:	cc f3       	brlt	.-14     	; 0x16fa <__fixunssfsi+0x2e>
    1708:	86 95       	lsr	r24
    170a:	77 95       	ror	r23
    170c:	67 95       	ror	r22
    170e:	b3 95       	inc	r27
    1710:	d9 f7       	brne	.-10     	; 0x1708 <__fixunssfsi+0x3c>
    1712:	3e f4       	brtc	.+14     	; 0x1722 <__fixunssfsi+0x56>
    1714:	90 95       	com	r25
    1716:	80 95       	com	r24
    1718:	70 95       	com	r23
    171a:	61 95       	neg	r22
    171c:	7f 4f       	sbci	r23, 0xFF	; 255
    171e:	8f 4f       	sbci	r24, 0xFF	; 255
    1720:	9f 4f       	sbci	r25, 0xFF	; 255
    1722:	08 95       	ret

00001724 <__floatunsisf>:
    1724:	e8 94       	clt
    1726:	09 c0       	rjmp	.+18     	; 0x173a <__floatsisf+0x12>

00001728 <__floatsisf>:
    1728:	97 fb       	bst	r25, 7
    172a:	3e f4       	brtc	.+14     	; 0x173a <__floatsisf+0x12>
    172c:	90 95       	com	r25
    172e:	80 95       	com	r24
    1730:	70 95       	com	r23
    1732:	61 95       	neg	r22
    1734:	7f 4f       	sbci	r23, 0xFF	; 255
    1736:	8f 4f       	sbci	r24, 0xFF	; 255
    1738:	9f 4f       	sbci	r25, 0xFF	; 255
    173a:	99 23       	and	r25, r25
    173c:	a9 f0       	breq	.+42     	; 0x1768 <__floatsisf+0x40>
    173e:	f9 2f       	mov	r31, r25
    1740:	96 e9       	ldi	r25, 0x96	; 150
    1742:	bb 27       	eor	r27, r27
    1744:	93 95       	inc	r25
    1746:	f6 95       	lsr	r31
    1748:	87 95       	ror	r24
    174a:	77 95       	ror	r23
    174c:	67 95       	ror	r22
    174e:	b7 95       	ror	r27
    1750:	f1 11       	cpse	r31, r1
    1752:	f8 cf       	rjmp	.-16     	; 0x1744 <__floatsisf+0x1c>
    1754:	fa f4       	brpl	.+62     	; 0x1794 <__floatsisf+0x6c>
    1756:	bb 0f       	add	r27, r27
    1758:	11 f4       	brne	.+4      	; 0x175e <__floatsisf+0x36>
    175a:	60 ff       	sbrs	r22, 0
    175c:	1b c0       	rjmp	.+54     	; 0x1794 <__floatsisf+0x6c>
    175e:	6f 5f       	subi	r22, 0xFF	; 255
    1760:	7f 4f       	sbci	r23, 0xFF	; 255
    1762:	8f 4f       	sbci	r24, 0xFF	; 255
    1764:	9f 4f       	sbci	r25, 0xFF	; 255
    1766:	16 c0       	rjmp	.+44     	; 0x1794 <__floatsisf+0x6c>
    1768:	88 23       	and	r24, r24
    176a:	11 f0       	breq	.+4      	; 0x1770 <__floatsisf+0x48>
    176c:	96 e9       	ldi	r25, 0x96	; 150
    176e:	11 c0       	rjmp	.+34     	; 0x1792 <__floatsisf+0x6a>
    1770:	77 23       	and	r23, r23
    1772:	21 f0       	breq	.+8      	; 0x177c <__floatsisf+0x54>
    1774:	9e e8       	ldi	r25, 0x8E	; 142
    1776:	87 2f       	mov	r24, r23
    1778:	76 2f       	mov	r23, r22
    177a:	05 c0       	rjmp	.+10     	; 0x1786 <__floatsisf+0x5e>
    177c:	66 23       	and	r22, r22
    177e:	71 f0       	breq	.+28     	; 0x179c <__floatsisf+0x74>
    1780:	96 e8       	ldi	r25, 0x86	; 134
    1782:	86 2f       	mov	r24, r22
    1784:	70 e0       	ldi	r23, 0x00	; 0
    1786:	60 e0       	ldi	r22, 0x00	; 0
    1788:	2a f0       	brmi	.+10     	; 0x1794 <__floatsisf+0x6c>
    178a:	9a 95       	dec	r25
    178c:	66 0f       	add	r22, r22
    178e:	77 1f       	adc	r23, r23
    1790:	88 1f       	adc	r24, r24
    1792:	da f7       	brpl	.-10     	; 0x178a <__floatsisf+0x62>
    1794:	88 0f       	add	r24, r24
    1796:	96 95       	lsr	r25
    1798:	87 95       	ror	r24
    179a:	97 f9       	bld	r25, 7
    179c:	08 95       	ret

0000179e <__fp_arccos>:
    179e:	df 93       	push	r29
    17a0:	cf 93       	push	r28
    17a2:	1f 93       	push	r17
    17a4:	0f 93       	push	r16
    17a6:	8b 01       	movw	r16, r22
    17a8:	ec 01       	movw	r28, r24
    17aa:	e8 e7       	ldi	r30, 0x78	; 120
    17ac:	f0 e0       	ldi	r31, 0x00	; 0
    17ae:	1b d0       	rcall	.+54     	; 0x17e6 <__fp_powser>
    17b0:	5e d0       	rcall	.+188    	; 0x186e <__fp_round>
    17b2:	98 01       	movw	r18, r16
    17b4:	ae 01       	movw	r20, r28
    17b6:	8b 01       	movw	r16, r22
    17b8:	ec 01       	movw	r28, r24
    17ba:	60 e0       	ldi	r22, 0x00	; 0
    17bc:	70 e0       	ldi	r23, 0x00	; 0
    17be:	80 e8       	ldi	r24, 0x80	; 128
    17c0:	9f e3       	ldi	r25, 0x3F	; 63
    17c2:	54 d1       	rcall	.+680    	; 0x1a6c <__subsf3>
    17c4:	15 d1       	rcall	.+554    	; 0x19f0 <sqrt>
    17c6:	98 01       	movw	r18, r16
    17c8:	ae 01       	movw	r20, r28
    17ca:	0f 91       	pop	r16
    17cc:	1f 91       	pop	r17
    17ce:	cf 91       	pop	r28
    17d0:	df 91       	pop	r29
    17d2:	93 c0       	rjmp	.+294    	; 0x18fa <__mulsf3x>

000017d4 <__fp_inf>:
    17d4:	97 f9       	bld	r25, 7
    17d6:	9f 67       	ori	r25, 0x7F	; 127
    17d8:	80 e8       	ldi	r24, 0x80	; 128
    17da:	70 e0       	ldi	r23, 0x00	; 0
    17dc:	60 e0       	ldi	r22, 0x00	; 0
    17de:	08 95       	ret

000017e0 <__fp_nan>:
    17e0:	9f ef       	ldi	r25, 0xFF	; 255
    17e2:	80 ec       	ldi	r24, 0xC0	; 192
    17e4:	08 95       	ret

000017e6 <__fp_powser>:
    17e6:	df 93       	push	r29
    17e8:	cf 93       	push	r28
    17ea:	1f 93       	push	r17
    17ec:	0f 93       	push	r16
    17ee:	ff 92       	push	r15
    17f0:	ef 92       	push	r14
    17f2:	df 92       	push	r13
    17f4:	7b 01       	movw	r14, r22
    17f6:	8c 01       	movw	r16, r24
    17f8:	68 94       	set
    17fa:	05 c0       	rjmp	.+10     	; 0x1806 <__fp_powser+0x20>
    17fc:	da 2e       	mov	r13, r26
    17fe:	ef 01       	movw	r28, r30
    1800:	7c d0       	rcall	.+248    	; 0x18fa <__mulsf3x>
    1802:	fe 01       	movw	r30, r28
    1804:	e8 94       	clt
    1806:	a5 91       	lpm	r26, Z+
    1808:	25 91       	lpm	r18, Z+
    180a:	35 91       	lpm	r19, Z+
    180c:	45 91       	lpm	r20, Z+
    180e:	55 91       	lpm	r21, Z+
    1810:	ae f3       	brts	.-22     	; 0x17fc <__fp_powser+0x16>
    1812:	ef 01       	movw	r28, r30
    1814:	3d d1       	rcall	.+634    	; 0x1a90 <__addsf3x>
    1816:	fe 01       	movw	r30, r28
    1818:	97 01       	movw	r18, r14
    181a:	a8 01       	movw	r20, r16
    181c:	da 94       	dec	r13
    181e:	79 f7       	brne	.-34     	; 0x17fe <__fp_powser+0x18>
    1820:	df 90       	pop	r13
    1822:	ef 90       	pop	r14
    1824:	ff 90       	pop	r15
    1826:	0f 91       	pop	r16
    1828:	1f 91       	pop	r17
    182a:	cf 91       	pop	r28
    182c:	df 91       	pop	r29
    182e:	08 95       	ret

00001830 <__fp_powsodd>:
    1830:	9f 93       	push	r25
    1832:	8f 93       	push	r24
    1834:	7f 93       	push	r23
    1836:	6f 93       	push	r22
    1838:	ff 93       	push	r31
    183a:	ef 93       	push	r30
    183c:	9b 01       	movw	r18, r22
    183e:	ac 01       	movw	r20, r24
    1840:	50 d0       	rcall	.+160    	; 0x18e2 <__mulsf3>
    1842:	ef 91       	pop	r30
    1844:	ff 91       	pop	r31
    1846:	cf df       	rcall	.-98     	; 0x17e6 <__fp_powser>
    1848:	2f 91       	pop	r18
    184a:	3f 91       	pop	r19
    184c:	4f 91       	pop	r20
    184e:	5f 91       	pop	r21
    1850:	48 c0       	rjmp	.+144    	; 0x18e2 <__mulsf3>

00001852 <__fp_pscA>:
    1852:	00 24       	eor	r0, r0
    1854:	0a 94       	dec	r0
    1856:	16 16       	cp	r1, r22
    1858:	17 06       	cpc	r1, r23
    185a:	18 06       	cpc	r1, r24
    185c:	09 06       	cpc	r0, r25
    185e:	08 95       	ret

00001860 <__fp_pscB>:
    1860:	00 24       	eor	r0, r0
    1862:	0a 94       	dec	r0
    1864:	12 16       	cp	r1, r18
    1866:	13 06       	cpc	r1, r19
    1868:	14 06       	cpc	r1, r20
    186a:	05 06       	cpc	r0, r21
    186c:	08 95       	ret

0000186e <__fp_round>:
    186e:	09 2e       	mov	r0, r25
    1870:	03 94       	inc	r0
    1872:	00 0c       	add	r0, r0
    1874:	11 f4       	brne	.+4      	; 0x187a <__fp_round+0xc>
    1876:	88 23       	and	r24, r24
    1878:	52 f0       	brmi	.+20     	; 0x188e <__fp_round+0x20>
    187a:	bb 0f       	add	r27, r27
    187c:	40 f4       	brcc	.+16     	; 0x188e <__fp_round+0x20>
    187e:	bf 2b       	or	r27, r31
    1880:	11 f4       	brne	.+4      	; 0x1886 <__fp_round+0x18>
    1882:	60 ff       	sbrs	r22, 0
    1884:	04 c0       	rjmp	.+8      	; 0x188e <__fp_round+0x20>
    1886:	6f 5f       	subi	r22, 0xFF	; 255
    1888:	7f 4f       	sbci	r23, 0xFF	; 255
    188a:	8f 4f       	sbci	r24, 0xFF	; 255
    188c:	9f 4f       	sbci	r25, 0xFF	; 255
    188e:	08 95       	ret

00001890 <__fp_split3>:
    1890:	57 fd       	sbrc	r21, 7
    1892:	90 58       	subi	r25, 0x80	; 128
    1894:	44 0f       	add	r20, r20
    1896:	55 1f       	adc	r21, r21
    1898:	59 f0       	breq	.+22     	; 0x18b0 <__fp_splitA+0x10>
    189a:	5f 3f       	cpi	r21, 0xFF	; 255
    189c:	71 f0       	breq	.+28     	; 0x18ba <__fp_splitA+0x1a>
    189e:	47 95       	ror	r20

000018a0 <__fp_splitA>:
    18a0:	88 0f       	add	r24, r24
    18a2:	97 fb       	bst	r25, 7
    18a4:	99 1f       	adc	r25, r25
    18a6:	61 f0       	breq	.+24     	; 0x18c0 <__fp_splitA+0x20>
    18a8:	9f 3f       	cpi	r25, 0xFF	; 255
    18aa:	79 f0       	breq	.+30     	; 0x18ca <__fp_splitA+0x2a>
    18ac:	87 95       	ror	r24
    18ae:	08 95       	ret
    18b0:	12 16       	cp	r1, r18
    18b2:	13 06       	cpc	r1, r19
    18b4:	14 06       	cpc	r1, r20
    18b6:	55 1f       	adc	r21, r21
    18b8:	f2 cf       	rjmp	.-28     	; 0x189e <__fp_split3+0xe>
    18ba:	46 95       	lsr	r20
    18bc:	f1 df       	rcall	.-30     	; 0x18a0 <__fp_splitA>
    18be:	08 c0       	rjmp	.+16     	; 0x18d0 <__fp_splitA+0x30>
    18c0:	16 16       	cp	r1, r22
    18c2:	17 06       	cpc	r1, r23
    18c4:	18 06       	cpc	r1, r24
    18c6:	99 1f       	adc	r25, r25
    18c8:	f1 cf       	rjmp	.-30     	; 0x18ac <__fp_splitA+0xc>
    18ca:	86 95       	lsr	r24
    18cc:	71 05       	cpc	r23, r1
    18ce:	61 05       	cpc	r22, r1
    18d0:	08 94       	sec
    18d2:	08 95       	ret

000018d4 <__fp_zero>:
    18d4:	e8 94       	clt

000018d6 <__fp_szero>:
    18d6:	bb 27       	eor	r27, r27
    18d8:	66 27       	eor	r22, r22
    18da:	77 27       	eor	r23, r23
    18dc:	cb 01       	movw	r24, r22
    18de:	97 f9       	bld	r25, 7
    18e0:	08 95       	ret

000018e2 <__mulsf3>:
    18e2:	0b d0       	rcall	.+22     	; 0x18fa <__mulsf3x>
    18e4:	c4 cf       	rjmp	.-120    	; 0x186e <__fp_round>
    18e6:	b5 df       	rcall	.-150    	; 0x1852 <__fp_pscA>
    18e8:	28 f0       	brcs	.+10     	; 0x18f4 <__mulsf3+0x12>
    18ea:	ba df       	rcall	.-140    	; 0x1860 <__fp_pscB>
    18ec:	18 f0       	brcs	.+6      	; 0x18f4 <__mulsf3+0x12>
    18ee:	95 23       	and	r25, r21
    18f0:	09 f0       	breq	.+2      	; 0x18f4 <__mulsf3+0x12>
    18f2:	70 cf       	rjmp	.-288    	; 0x17d4 <__fp_inf>
    18f4:	75 cf       	rjmp	.-278    	; 0x17e0 <__fp_nan>
    18f6:	11 24       	eor	r1, r1
    18f8:	ee cf       	rjmp	.-36     	; 0x18d6 <__fp_szero>

000018fa <__mulsf3x>:
    18fa:	ca df       	rcall	.-108    	; 0x1890 <__fp_split3>
    18fc:	a0 f3       	brcs	.-24     	; 0x18e6 <__mulsf3+0x4>

000018fe <__mulsf3_pse>:
    18fe:	95 9f       	mul	r25, r21
    1900:	d1 f3       	breq	.-12     	; 0x18f6 <__mulsf3+0x14>
    1902:	95 0f       	add	r25, r21
    1904:	50 e0       	ldi	r21, 0x00	; 0
    1906:	55 1f       	adc	r21, r21
    1908:	62 9f       	mul	r22, r18
    190a:	f0 01       	movw	r30, r0
    190c:	72 9f       	mul	r23, r18
    190e:	bb 27       	eor	r27, r27
    1910:	f0 0d       	add	r31, r0
    1912:	b1 1d       	adc	r27, r1
    1914:	63 9f       	mul	r22, r19
    1916:	aa 27       	eor	r26, r26
    1918:	f0 0d       	add	r31, r0
    191a:	b1 1d       	adc	r27, r1
    191c:	aa 1f       	adc	r26, r26
    191e:	64 9f       	mul	r22, r20
    1920:	66 27       	eor	r22, r22
    1922:	b0 0d       	add	r27, r0
    1924:	a1 1d       	adc	r26, r1
    1926:	66 1f       	adc	r22, r22
    1928:	82 9f       	mul	r24, r18
    192a:	22 27       	eor	r18, r18
    192c:	b0 0d       	add	r27, r0
    192e:	a1 1d       	adc	r26, r1
    1930:	62 1f       	adc	r22, r18
    1932:	73 9f       	mul	r23, r19
    1934:	b0 0d       	add	r27, r0
    1936:	a1 1d       	adc	r26, r1
    1938:	62 1f       	adc	r22, r18
    193a:	83 9f       	mul	r24, r19
    193c:	a0 0d       	add	r26, r0
    193e:	61 1d       	adc	r22, r1
    1940:	22 1f       	adc	r18, r18
    1942:	74 9f       	mul	r23, r20
    1944:	33 27       	eor	r19, r19
    1946:	a0 0d       	add	r26, r0
    1948:	61 1d       	adc	r22, r1
    194a:	23 1f       	adc	r18, r19
    194c:	84 9f       	mul	r24, r20
    194e:	60 0d       	add	r22, r0
    1950:	21 1d       	adc	r18, r1
    1952:	82 2f       	mov	r24, r18
    1954:	76 2f       	mov	r23, r22
    1956:	6a 2f       	mov	r22, r26
    1958:	11 24       	eor	r1, r1
    195a:	9f 57       	subi	r25, 0x7F	; 127
    195c:	50 40       	sbci	r21, 0x00	; 0
    195e:	8a f0       	brmi	.+34     	; 0x1982 <__mulsf3_pse+0x84>
    1960:	e1 f0       	breq	.+56     	; 0x199a <__mulsf3_pse+0x9c>
    1962:	88 23       	and	r24, r24
    1964:	4a f0       	brmi	.+18     	; 0x1978 <__mulsf3_pse+0x7a>
    1966:	ee 0f       	add	r30, r30
    1968:	ff 1f       	adc	r31, r31
    196a:	bb 1f       	adc	r27, r27
    196c:	66 1f       	adc	r22, r22
    196e:	77 1f       	adc	r23, r23
    1970:	88 1f       	adc	r24, r24
    1972:	91 50       	subi	r25, 0x01	; 1
    1974:	50 40       	sbci	r21, 0x00	; 0
    1976:	a9 f7       	brne	.-22     	; 0x1962 <__mulsf3_pse+0x64>
    1978:	9e 3f       	cpi	r25, 0xFE	; 254
    197a:	51 05       	cpc	r21, r1
    197c:	70 f0       	brcs	.+28     	; 0x199a <__mulsf3_pse+0x9c>
    197e:	2a cf       	rjmp	.-428    	; 0x17d4 <__fp_inf>
    1980:	aa cf       	rjmp	.-172    	; 0x18d6 <__fp_szero>
    1982:	5f 3f       	cpi	r21, 0xFF	; 255
    1984:	ec f3       	brlt	.-6      	; 0x1980 <__mulsf3_pse+0x82>
    1986:	98 3e       	cpi	r25, 0xE8	; 232
    1988:	dc f3       	brlt	.-10     	; 0x1980 <__mulsf3_pse+0x82>
    198a:	86 95       	lsr	r24
    198c:	77 95       	ror	r23
    198e:	67 95       	ror	r22
    1990:	b7 95       	ror	r27
    1992:	f7 95       	ror	r31
    1994:	e7 95       	ror	r30
    1996:	9f 5f       	subi	r25, 0xFF	; 255
    1998:	c1 f7       	brne	.-16     	; 0x198a <__mulsf3_pse+0x8c>
    199a:	fe 2b       	or	r31, r30
    199c:	88 0f       	add	r24, r24
    199e:	91 1d       	adc	r25, r1
    19a0:	96 95       	lsr	r25
    19a2:	87 95       	ror	r24
    19a4:	97 f9       	bld	r25, 7
    19a6:	08 95       	ret

000019a8 <round>:
    19a8:	7b df       	rcall	.-266    	; 0x18a0 <__fp_splitA>
    19aa:	e0 f0       	brcs	.+56     	; 0x19e4 <round+0x3c>
    19ac:	9e 37       	cpi	r25, 0x7E	; 126
    19ae:	d8 f0       	brcs	.+54     	; 0x19e6 <round+0x3e>
    19b0:	96 39       	cpi	r25, 0x96	; 150
    19b2:	b8 f4       	brcc	.+46     	; 0x19e2 <round+0x3a>
    19b4:	9e 38       	cpi	r25, 0x8E	; 142
    19b6:	48 f4       	brcc	.+18     	; 0x19ca <round+0x22>
    19b8:	67 2f       	mov	r22, r23
    19ba:	78 2f       	mov	r23, r24
    19bc:	88 27       	eor	r24, r24
    19be:	98 5f       	subi	r25, 0xF8	; 248
    19c0:	f9 cf       	rjmp	.-14     	; 0x19b4 <round+0xc>
    19c2:	86 95       	lsr	r24
    19c4:	77 95       	ror	r23
    19c6:	67 95       	ror	r22
    19c8:	93 95       	inc	r25
    19ca:	95 39       	cpi	r25, 0x95	; 149
    19cc:	d0 f3       	brcs	.-12     	; 0x19c2 <round+0x1a>
    19ce:	b6 2f       	mov	r27, r22
    19d0:	b1 70       	andi	r27, 0x01	; 1
    19d2:	6b 0f       	add	r22, r27
    19d4:	71 1d       	adc	r23, r1
    19d6:	81 1d       	adc	r24, r1
    19d8:	20 f4       	brcc	.+8      	; 0x19e2 <round+0x3a>
    19da:	87 95       	ror	r24
    19dc:	77 95       	ror	r23
    19de:	67 95       	ror	r22
    19e0:	93 95       	inc	r25
    19e2:	a9 c0       	rjmp	.+338    	; 0x1b36 <__fp_mintl>
    19e4:	c3 c0       	rjmp	.+390    	; 0x1b6c <__fp_mpack>
    19e6:	77 cf       	rjmp	.-274    	; 0x18d6 <__fp_szero>
    19e8:	11 f4       	brne	.+4      	; 0x19ee <round+0x46>
    19ea:	0e f4       	brtc	.+2      	; 0x19ee <round+0x46>
    19ec:	f9 ce       	rjmp	.-526    	; 0x17e0 <__fp_nan>
    19ee:	be c0       	rjmp	.+380    	; 0x1b6c <__fp_mpack>

000019f0 <sqrt>:
    19f0:	57 df       	rcall	.-338    	; 0x18a0 <__fp_splitA>
    19f2:	d0 f3       	brcs	.-12     	; 0x19e8 <round+0x40>
    19f4:	99 23       	and	r25, r25
    19f6:	d9 f3       	breq	.-10     	; 0x19ee <round+0x46>
    19f8:	ce f3       	brts	.-14     	; 0x19ec <round+0x44>
    19fa:	9f 57       	subi	r25, 0x7F	; 127
    19fc:	55 0b       	sbc	r21, r21
    19fe:	87 ff       	sbrs	r24, 7
    1a00:	c3 d0       	rcall	.+390    	; 0x1b88 <__fp_norm2>
    1a02:	00 24       	eor	r0, r0
    1a04:	a0 e6       	ldi	r26, 0x60	; 96
    1a06:	40 ea       	ldi	r20, 0xA0	; 160
    1a08:	90 01       	movw	r18, r0
    1a0a:	80 58       	subi	r24, 0x80	; 128
    1a0c:	56 95       	lsr	r21
    1a0e:	97 95       	ror	r25
    1a10:	28 f4       	brcc	.+10     	; 0x1a1c <sqrt+0x2c>
    1a12:	80 5c       	subi	r24, 0xC0	; 192
    1a14:	66 0f       	add	r22, r22
    1a16:	77 1f       	adc	r23, r23
    1a18:	88 1f       	adc	r24, r24
    1a1a:	20 f0       	brcs	.+8      	; 0x1a24 <sqrt+0x34>
    1a1c:	26 17       	cp	r18, r22
    1a1e:	37 07       	cpc	r19, r23
    1a20:	48 07       	cpc	r20, r24
    1a22:	30 f4       	brcc	.+12     	; 0x1a30 <sqrt+0x40>
    1a24:	62 1b       	sub	r22, r18
    1a26:	73 0b       	sbc	r23, r19
    1a28:	84 0b       	sbc	r24, r20
    1a2a:	20 29       	or	r18, r0
    1a2c:	31 29       	or	r19, r1
    1a2e:	4a 2b       	or	r20, r26
    1a30:	a6 95       	lsr	r26
    1a32:	17 94       	ror	r1
    1a34:	07 94       	ror	r0
    1a36:	20 25       	eor	r18, r0
    1a38:	31 25       	eor	r19, r1
    1a3a:	4a 27       	eor	r20, r26
    1a3c:	58 f7       	brcc	.-42     	; 0x1a14 <sqrt+0x24>
    1a3e:	66 0f       	add	r22, r22
    1a40:	77 1f       	adc	r23, r23
    1a42:	88 1f       	adc	r24, r24
    1a44:	20 f0       	brcs	.+8      	; 0x1a4e <sqrt+0x5e>
    1a46:	26 17       	cp	r18, r22
    1a48:	37 07       	cpc	r19, r23
    1a4a:	48 07       	cpc	r20, r24
    1a4c:	30 f4       	brcc	.+12     	; 0x1a5a <sqrt+0x6a>
    1a4e:	62 0b       	sbc	r22, r18
    1a50:	73 0b       	sbc	r23, r19
    1a52:	84 0b       	sbc	r24, r20
    1a54:	20 0d       	add	r18, r0
    1a56:	31 1d       	adc	r19, r1
    1a58:	41 1d       	adc	r20, r1
    1a5a:	a0 95       	com	r26
    1a5c:	81 f7       	brne	.-32     	; 0x1a3e <sqrt+0x4e>
    1a5e:	b9 01       	movw	r22, r18
    1a60:	84 2f       	mov	r24, r20
    1a62:	91 58       	subi	r25, 0x81	; 129
    1a64:	88 0f       	add	r24, r24
    1a66:	96 95       	lsr	r25
    1a68:	87 95       	ror	r24
    1a6a:	08 95       	ret

00001a6c <__subsf3>:
    1a6c:	50 58       	subi	r21, 0x80	; 128

00001a6e <__addsf3>:
    1a6e:	bb 27       	eor	r27, r27
    1a70:	aa 27       	eor	r26, r26
    1a72:	0e d0       	rcall	.+28     	; 0x1a90 <__addsf3x>
    1a74:	fc ce       	rjmp	.-520    	; 0x186e <__fp_round>
    1a76:	ed de       	rcall	.-550    	; 0x1852 <__fp_pscA>
    1a78:	30 f0       	brcs	.+12     	; 0x1a86 <__addsf3+0x18>
    1a7a:	f2 de       	rcall	.-540    	; 0x1860 <__fp_pscB>
    1a7c:	20 f0       	brcs	.+8      	; 0x1a86 <__addsf3+0x18>
    1a7e:	31 f4       	brne	.+12     	; 0x1a8c <__addsf3+0x1e>
    1a80:	9f 3f       	cpi	r25, 0xFF	; 255
    1a82:	11 f4       	brne	.+4      	; 0x1a88 <__addsf3+0x1a>
    1a84:	1e f4       	brtc	.+6      	; 0x1a8c <__addsf3+0x1e>
    1a86:	ac ce       	rjmp	.-680    	; 0x17e0 <__fp_nan>
    1a88:	0e f4       	brtc	.+2      	; 0x1a8c <__addsf3+0x1e>
    1a8a:	e0 95       	com	r30
    1a8c:	e7 fb       	bst	r30, 7
    1a8e:	a2 ce       	rjmp	.-700    	; 0x17d4 <__fp_inf>

00001a90 <__addsf3x>:
    1a90:	e9 2f       	mov	r30, r25
    1a92:	fe de       	rcall	.-516    	; 0x1890 <__fp_split3>
    1a94:	80 f3       	brcs	.-32     	; 0x1a76 <__addsf3+0x8>
    1a96:	ba 17       	cp	r27, r26
    1a98:	62 07       	cpc	r22, r18
    1a9a:	73 07       	cpc	r23, r19
    1a9c:	84 07       	cpc	r24, r20
    1a9e:	95 07       	cpc	r25, r21
    1aa0:	18 f0       	brcs	.+6      	; 0x1aa8 <__addsf3x+0x18>
    1aa2:	71 f4       	brne	.+28     	; 0x1ac0 <__addsf3x+0x30>
    1aa4:	9e f5       	brtc	.+102    	; 0x1b0c <__addsf3x+0x7c>
    1aa6:	16 cf       	rjmp	.-468    	; 0x18d4 <__fp_zero>
    1aa8:	0e f4       	brtc	.+2      	; 0x1aac <__addsf3x+0x1c>
    1aaa:	e0 95       	com	r30
    1aac:	0b 2e       	mov	r0, r27
    1aae:	ba 2f       	mov	r27, r26
    1ab0:	a0 2d       	mov	r26, r0
    1ab2:	0b 01       	movw	r0, r22
    1ab4:	b9 01       	movw	r22, r18
    1ab6:	90 01       	movw	r18, r0
    1ab8:	0c 01       	movw	r0, r24
    1aba:	ca 01       	movw	r24, r20
    1abc:	a0 01       	movw	r20, r0
    1abe:	11 24       	eor	r1, r1
    1ac0:	ff 27       	eor	r31, r31
    1ac2:	59 1b       	sub	r21, r25
    1ac4:	99 f0       	breq	.+38     	; 0x1aec <__addsf3x+0x5c>
    1ac6:	59 3f       	cpi	r21, 0xF9	; 249
    1ac8:	50 f4       	brcc	.+20     	; 0x1ade <__addsf3x+0x4e>
    1aca:	50 3e       	cpi	r21, 0xE0	; 224
    1acc:	68 f1       	brcs	.+90     	; 0x1b28 <__addsf3x+0x98>
    1ace:	1a 16       	cp	r1, r26
    1ad0:	f0 40       	sbci	r31, 0x00	; 0
    1ad2:	a2 2f       	mov	r26, r18
    1ad4:	23 2f       	mov	r18, r19
    1ad6:	34 2f       	mov	r19, r20
    1ad8:	44 27       	eor	r20, r20
    1ada:	58 5f       	subi	r21, 0xF8	; 248
    1adc:	f3 cf       	rjmp	.-26     	; 0x1ac4 <__addsf3x+0x34>
    1ade:	46 95       	lsr	r20
    1ae0:	37 95       	ror	r19
    1ae2:	27 95       	ror	r18
    1ae4:	a7 95       	ror	r26
    1ae6:	f0 40       	sbci	r31, 0x00	; 0
    1ae8:	53 95       	inc	r21
    1aea:	c9 f7       	brne	.-14     	; 0x1ade <__addsf3x+0x4e>
    1aec:	7e f4       	brtc	.+30     	; 0x1b0c <__addsf3x+0x7c>
    1aee:	1f 16       	cp	r1, r31
    1af0:	ba 0b       	sbc	r27, r26
    1af2:	62 0b       	sbc	r22, r18
    1af4:	73 0b       	sbc	r23, r19
    1af6:	84 0b       	sbc	r24, r20
    1af8:	ba f0       	brmi	.+46     	; 0x1b28 <__addsf3x+0x98>
    1afa:	91 50       	subi	r25, 0x01	; 1
    1afc:	a1 f0       	breq	.+40     	; 0x1b26 <__addsf3x+0x96>
    1afe:	ff 0f       	add	r31, r31
    1b00:	bb 1f       	adc	r27, r27
    1b02:	66 1f       	adc	r22, r22
    1b04:	77 1f       	adc	r23, r23
    1b06:	88 1f       	adc	r24, r24
    1b08:	c2 f7       	brpl	.-16     	; 0x1afa <__addsf3x+0x6a>
    1b0a:	0e c0       	rjmp	.+28     	; 0x1b28 <__addsf3x+0x98>
    1b0c:	ba 0f       	add	r27, r26
    1b0e:	62 1f       	adc	r22, r18
    1b10:	73 1f       	adc	r23, r19
    1b12:	84 1f       	adc	r24, r20
    1b14:	48 f4       	brcc	.+18     	; 0x1b28 <__addsf3x+0x98>
    1b16:	87 95       	ror	r24
    1b18:	77 95       	ror	r23
    1b1a:	67 95       	ror	r22
    1b1c:	b7 95       	ror	r27
    1b1e:	f7 95       	ror	r31
    1b20:	9e 3f       	cpi	r25, 0xFE	; 254
    1b22:	08 f0       	brcs	.+2      	; 0x1b26 <__addsf3x+0x96>
    1b24:	b3 cf       	rjmp	.-154    	; 0x1a8c <__addsf3+0x1e>
    1b26:	93 95       	inc	r25
    1b28:	88 0f       	add	r24, r24
    1b2a:	08 f0       	brcs	.+2      	; 0x1b2e <__addsf3x+0x9e>
    1b2c:	99 27       	eor	r25, r25
    1b2e:	ee 0f       	add	r30, r30
    1b30:	97 95       	ror	r25
    1b32:	87 95       	ror	r24
    1b34:	08 95       	ret

00001b36 <__fp_mintl>:
    1b36:	88 23       	and	r24, r24
    1b38:	71 f4       	brne	.+28     	; 0x1b56 <__fp_mintl+0x20>
    1b3a:	77 23       	and	r23, r23
    1b3c:	21 f0       	breq	.+8      	; 0x1b46 <__fp_mintl+0x10>
    1b3e:	98 50       	subi	r25, 0x08	; 8
    1b40:	87 2b       	or	r24, r23
    1b42:	76 2f       	mov	r23, r22
    1b44:	07 c0       	rjmp	.+14     	; 0x1b54 <__fp_mintl+0x1e>
    1b46:	66 23       	and	r22, r22
    1b48:	11 f4       	brne	.+4      	; 0x1b4e <__fp_mintl+0x18>
    1b4a:	99 27       	eor	r25, r25
    1b4c:	0d c0       	rjmp	.+26     	; 0x1b68 <__fp_mintl+0x32>
    1b4e:	90 51       	subi	r25, 0x10	; 16
    1b50:	86 2b       	or	r24, r22
    1b52:	70 e0       	ldi	r23, 0x00	; 0
    1b54:	60 e0       	ldi	r22, 0x00	; 0
    1b56:	2a f0       	brmi	.+10     	; 0x1b62 <__fp_mintl+0x2c>
    1b58:	9a 95       	dec	r25
    1b5a:	66 0f       	add	r22, r22
    1b5c:	77 1f       	adc	r23, r23
    1b5e:	88 1f       	adc	r24, r24
    1b60:	da f7       	brpl	.-10     	; 0x1b58 <__fp_mintl+0x22>
    1b62:	88 0f       	add	r24, r24
    1b64:	96 95       	lsr	r25
    1b66:	87 95       	ror	r24
    1b68:	97 f9       	bld	r25, 7
    1b6a:	08 95       	ret

00001b6c <__fp_mpack>:
    1b6c:	9f 3f       	cpi	r25, 0xFF	; 255
    1b6e:	31 f0       	breq	.+12     	; 0x1b7c <__fp_mpack_finite+0xc>

00001b70 <__fp_mpack_finite>:
    1b70:	91 50       	subi	r25, 0x01	; 1
    1b72:	20 f4       	brcc	.+8      	; 0x1b7c <__fp_mpack_finite+0xc>
    1b74:	87 95       	ror	r24
    1b76:	77 95       	ror	r23
    1b78:	67 95       	ror	r22
    1b7a:	b7 95       	ror	r27
    1b7c:	88 0f       	add	r24, r24
    1b7e:	91 1d       	adc	r25, r1
    1b80:	96 95       	lsr	r25
    1b82:	87 95       	ror	r24
    1b84:	97 f9       	bld	r25, 7
    1b86:	08 95       	ret

00001b88 <__fp_norm2>:
    1b88:	91 50       	subi	r25, 0x01	; 1
    1b8a:	50 40       	sbci	r21, 0x00	; 0
    1b8c:	66 0f       	add	r22, r22
    1b8e:	77 1f       	adc	r23, r23
    1b90:	88 1f       	adc	r24, r24
    1b92:	d2 f7       	brpl	.-12     	; 0x1b88 <__fp_norm2>
    1b94:	08 95       	ret

00001b96 <__divmodhi4>:
    1b96:	97 fb       	bst	r25, 7
    1b98:	07 2e       	mov	r0, r23
    1b9a:	16 f4       	brtc	.+4      	; 0x1ba0 <__divmodhi4+0xa>
    1b9c:	00 94       	com	r0
    1b9e:	07 d0       	rcall	.+14     	; 0x1bae <__divmodhi4_neg1>
    1ba0:	77 fd       	sbrc	r23, 7
    1ba2:	09 d0       	rcall	.+18     	; 0x1bb6 <__divmodhi4_neg2>
    1ba4:	0e 94 e5 0d 	call	0x1bca	; 0x1bca <__udivmodhi4>
    1ba8:	07 fc       	sbrc	r0, 7
    1baa:	05 d0       	rcall	.+10     	; 0x1bb6 <__divmodhi4_neg2>
    1bac:	3e f4       	brtc	.+14     	; 0x1bbc <__divmodhi4_exit>

00001bae <__divmodhi4_neg1>:
    1bae:	90 95       	com	r25
    1bb0:	81 95       	neg	r24
    1bb2:	9f 4f       	sbci	r25, 0xFF	; 255
    1bb4:	08 95       	ret

00001bb6 <__divmodhi4_neg2>:
    1bb6:	70 95       	com	r23
    1bb8:	61 95       	neg	r22
    1bba:	7f 4f       	sbci	r23, 0xFF	; 255

00001bbc <__divmodhi4_exit>:
    1bbc:	08 95       	ret

00001bbe <__tablejump2__>:
    1bbe:	ee 0f       	add	r30, r30
    1bc0:	ff 1f       	adc	r31, r31

00001bc2 <__tablejump__>:
    1bc2:	05 90       	lpm	r0, Z+
    1bc4:	f4 91       	lpm	r31, Z
    1bc6:	e0 2d       	mov	r30, r0
    1bc8:	09 94       	ijmp

00001bca <__udivmodhi4>:
    1bca:	aa 1b       	sub	r26, r26
    1bcc:	bb 1b       	sub	r27, r27
    1bce:	51 e1       	ldi	r21, 0x11	; 17
    1bd0:	07 c0       	rjmp	.+14     	; 0x1be0 <__udivmodhi4_ep>

00001bd2 <__udivmodhi4_loop>:
    1bd2:	aa 1f       	adc	r26, r26
    1bd4:	bb 1f       	adc	r27, r27
    1bd6:	a6 17       	cp	r26, r22
    1bd8:	b7 07       	cpc	r27, r23
    1bda:	10 f0       	brcs	.+4      	; 0x1be0 <__udivmodhi4_ep>
    1bdc:	a6 1b       	sub	r26, r22
    1bde:	b7 0b       	sbc	r27, r23

00001be0 <__udivmodhi4_ep>:
    1be0:	88 1f       	adc	r24, r24
    1be2:	99 1f       	adc	r25, r25
    1be4:	5a 95       	dec	r21
    1be6:	a9 f7       	brne	.-22     	; 0x1bd2 <__udivmodhi4_loop>
    1be8:	80 95       	com	r24
    1bea:	90 95       	com	r25
    1bec:	bc 01       	movw	r22, r24
    1bee:	cd 01       	movw	r24, r26
    1bf0:	08 95       	ret

00001bf2 <swapfunc>:
    1bf2:	dc 01       	movw	r26, r24
    1bf4:	fb 01       	movw	r30, r22
    1bf6:	8c 91       	ld	r24, X
    1bf8:	90 81       	ld	r25, Z
    1bfa:	9d 93       	st	X+, r25
    1bfc:	81 93       	st	Z+, r24
    1bfe:	41 50       	subi	r20, 0x01	; 1
    1c00:	51 09       	sbc	r21, r1
    1c02:	14 16       	cp	r1, r20
    1c04:	15 06       	cpc	r1, r21
    1c06:	bc f3       	brlt	.-18     	; 0x1bf6 <swapfunc+0x4>
    1c08:	08 95       	ret

00001c0a <med3>:
    1c0a:	a0 e0       	ldi	r26, 0x00	; 0
    1c0c:	b0 e0       	ldi	r27, 0x00	; 0
    1c0e:	eb e0       	ldi	r30, 0x0B	; 11
    1c10:	fe e0       	ldi	r31, 0x0E	; 14
    1c12:	0c 94 e3 0f 	jmp	0x1fc6	; 0x1fc6 <__prologue_saves__+0x14>
    1c16:	6c 01       	movw	r12, r24
    1c18:	7b 01       	movw	r14, r22
    1c1a:	8a 01       	movw	r16, r20
    1c1c:	e9 01       	movw	r28, r18
    1c1e:	f9 01       	movw	r30, r18
    1c20:	09 95       	icall
    1c22:	b8 01       	movw	r22, r16
    1c24:	97 ff       	sbrs	r25, 7
    1c26:	0f c0       	rjmp	.+30     	; 0x1c46 <med3+0x3c>
    1c28:	c7 01       	movw	r24, r14
    1c2a:	fe 01       	movw	r30, r28
    1c2c:	09 95       	icall
    1c2e:	97 fd       	sbrc	r25, 7
    1c30:	08 c0       	rjmp	.+16     	; 0x1c42 <med3+0x38>
    1c32:	b8 01       	movw	r22, r16
    1c34:	c6 01       	movw	r24, r12
    1c36:	fe 01       	movw	r30, r28
    1c38:	09 95       	icall
    1c3a:	97 fd       	sbrc	r25, 7
    1c3c:	14 c0       	rjmp	.+40     	; 0x1c66 <med3+0x5c>
    1c3e:	86 01       	movw	r16, r12
    1c40:	12 c0       	rjmp	.+36     	; 0x1c66 <med3+0x5c>
    1c42:	87 01       	movw	r16, r14
    1c44:	10 c0       	rjmp	.+32     	; 0x1c66 <med3+0x5c>
    1c46:	c7 01       	movw	r24, r14
    1c48:	fe 01       	movw	r30, r28
    1c4a:	09 95       	icall
    1c4c:	18 16       	cp	r1, r24
    1c4e:	19 06       	cpc	r1, r25
    1c50:	44 f0       	brlt	.+16     	; 0x1c62 <med3+0x58>
    1c52:	b8 01       	movw	r22, r16
    1c54:	c6 01       	movw	r24, r12
    1c56:	fe 01       	movw	r30, r28
    1c58:	09 95       	icall
    1c5a:	97 ff       	sbrs	r25, 7
    1c5c:	04 c0       	rjmp	.+8      	; 0x1c66 <med3+0x5c>
    1c5e:	c6 01       	movw	r24, r12
    1c60:	03 c0       	rjmp	.+6      	; 0x1c68 <med3+0x5e>
    1c62:	c7 01       	movw	r24, r14
    1c64:	01 c0       	rjmp	.+2      	; 0x1c68 <med3+0x5e>
    1c66:	c8 01       	movw	r24, r16
    1c68:	cd b7       	in	r28, 0x3d	; 61
    1c6a:	de b7       	in	r29, 0x3e	; 62
    1c6c:	e8 e0       	ldi	r30, 0x08	; 8
    1c6e:	0c 94 ff 0f 	jmp	0x1ffe	; 0x1ffe <__epilogue_restores__+0x14>

00001c72 <qsort>:
    1c72:	ac e0       	ldi	r26, 0x0C	; 12
    1c74:	b0 e0       	ldi	r27, 0x00	; 0
    1c76:	ef e3       	ldi	r30, 0x3F	; 63
    1c78:	fe e0       	ldi	r31, 0x0E	; 14
    1c7a:	0c 94 d9 0f 	jmp	0x1fb2	; 0x1fb2 <__prologue_saves__>
    1c7e:	8c 01       	movw	r16, r24
    1c80:	6b 01       	movw	r12, r22
    1c82:	5c 87       	std	Y+12, r21	; 0x0c
    1c84:	4b 87       	std	Y+11, r20	; 0x0b
    1c86:	79 01       	movw	r14, r18
    1c88:	51 95       	neg	r21
    1c8a:	41 95       	neg	r20
    1c8c:	51 09       	sbc	r21, r1
    1c8e:	58 87       	std	Y+8, r21	; 0x08
    1c90:	4f 83       	std	Y+7, r20	; 0x07
    1c92:	2b 85       	ldd	r18, Y+11	; 0x0b
    1c94:	3c 85       	ldd	r19, Y+12	; 0x0c
    1c96:	20 0f       	add	r18, r16
    1c98:	31 1f       	adc	r19, r17
    1c9a:	3a 83       	std	Y+2, r19	; 0x02
    1c9c:	29 83       	std	Y+1, r18	; 0x01
    1c9e:	37 e0       	ldi	r19, 0x07	; 7
    1ca0:	c3 16       	cp	r12, r19
    1ca2:	d1 04       	cpc	r13, r1
    1ca4:	70 f5       	brcc	.+92     	; 0x1d02 <qsort+0x90>
    1ca6:	89 80       	ldd	r8, Y+1	; 0x01
    1ca8:	9a 80       	ldd	r9, Y+2	; 0x02
    1caa:	4b 85       	ldd	r20, Y+11	; 0x0b
    1cac:	5c 85       	ldd	r21, Y+12	; 0x0c
    1cae:	c4 9e       	mul	r12, r20
    1cb0:	50 01       	movw	r10, r0
    1cb2:	c5 9e       	mul	r12, r21
    1cb4:	b0 0c       	add	r11, r0
    1cb6:	d4 9e       	mul	r13, r20
    1cb8:	b0 0c       	add	r11, r0
    1cba:	11 24       	eor	r1, r1
    1cbc:	a0 0e       	add	r10, r16
    1cbe:	b1 1e       	adc	r11, r17
    1cc0:	8a 14       	cp	r8, r10
    1cc2:	9b 04       	cpc	r9, r11
    1cc4:	08 f0       	brcs	.+2      	; 0x1cc8 <qsort+0x56>
    1cc6:	71 c1       	rjmp	.+738    	; 0x1faa <qsort+0x338>
    1cc8:	34 01       	movw	r6, r8
    1cca:	06 15       	cp	r16, r6
    1ccc:	17 05       	cpc	r17, r7
    1cce:	a0 f4       	brcc	.+40     	; 0x1cf8 <qsort+0x86>
    1cd0:	63 01       	movw	r12, r6
    1cd2:	8b 85       	ldd	r24, Y+11	; 0x0b
    1cd4:	9c 85       	ldd	r25, Y+12	; 0x0c
    1cd6:	c8 1a       	sub	r12, r24
    1cd8:	d9 0a       	sbc	r13, r25
    1cda:	b3 01       	movw	r22, r6
    1cdc:	c6 01       	movw	r24, r12
    1cde:	f7 01       	movw	r30, r14
    1ce0:	09 95       	icall
    1ce2:	18 16       	cp	r1, r24
    1ce4:	19 06       	cpc	r1, r25
    1ce6:	44 f4       	brge	.+16     	; 0x1cf8 <qsort+0x86>
    1ce8:	4b 85       	ldd	r20, Y+11	; 0x0b
    1cea:	5c 85       	ldd	r21, Y+12	; 0x0c
    1cec:	b6 01       	movw	r22, r12
    1cee:	c3 01       	movw	r24, r6
    1cf0:	0e 94 f9 0d 	call	0x1bf2	; 0x1bf2 <swapfunc>
    1cf4:	36 01       	movw	r6, r12
    1cf6:	e9 cf       	rjmp	.-46     	; 0x1cca <qsort+0x58>
    1cf8:	2b 85       	ldd	r18, Y+11	; 0x0b
    1cfa:	3c 85       	ldd	r19, Y+12	; 0x0c
    1cfc:	82 0e       	add	r8, r18
    1cfe:	93 1e       	adc	r9, r19
    1d00:	df cf       	rjmp	.-66     	; 0x1cc0 <qsort+0x4e>
    1d02:	c6 01       	movw	r24, r12
    1d04:	96 95       	lsr	r25
    1d06:	87 95       	ror	r24
    1d08:	4b 85       	ldd	r20, Y+11	; 0x0b
    1d0a:	5c 85       	ldd	r21, Y+12	; 0x0c
    1d0c:	84 9f       	mul	r24, r20
    1d0e:	50 01       	movw	r10, r0
    1d10:	85 9f       	mul	r24, r21
    1d12:	b0 0c       	add	r11, r0
    1d14:	94 9f       	mul	r25, r20
    1d16:	b0 0c       	add	r11, r0
    1d18:	11 24       	eor	r1, r1
    1d1a:	a0 0e       	add	r10, r16
    1d1c:	b1 1e       	adc	r11, r17
    1d1e:	c6 01       	movw	r24, r12
    1d20:	01 97       	sbiw	r24, 0x01	; 1
    1d22:	9e 83       	std	Y+6, r25	; 0x06
    1d24:	8d 83       	std	Y+5, r24	; 0x05
    1d26:	97 e0       	ldi	r25, 0x07	; 7
    1d28:	c9 16       	cp	r12, r25
    1d2a:	d1 04       	cpc	r13, r1
    1d2c:	09 f4       	brne	.+2      	; 0x1d30 <qsort+0xbe>
    1d2e:	4c c0       	rjmp	.+152    	; 0x1dc8 <qsort+0x156>
    1d30:	ed 81       	ldd	r30, Y+5	; 0x05
    1d32:	fe 81       	ldd	r31, Y+6	; 0x06
    1d34:	e4 9f       	mul	r30, r20
    1d36:	30 01       	movw	r6, r0
    1d38:	e5 9f       	mul	r30, r21
    1d3a:	70 0c       	add	r7, r0
    1d3c:	f4 9f       	mul	r31, r20
    1d3e:	70 0c       	add	r7, r0
    1d40:	11 24       	eor	r1, r1
    1d42:	60 0e       	add	r6, r16
    1d44:	71 1e       	adc	r7, r17
    1d46:	f9 e2       	ldi	r31, 0x29	; 41
    1d48:	cf 16       	cp	r12, r31
    1d4a:	d1 04       	cpc	r13, r1
    1d4c:	a8 f1       	brcs	.+106    	; 0x1db8 <qsort+0x146>
    1d4e:	c6 01       	movw	r24, r12
    1d50:	23 e0       	ldi	r18, 0x03	; 3
    1d52:	96 95       	lsr	r25
    1d54:	87 95       	ror	r24
    1d56:	2a 95       	dec	r18
    1d58:	e1 f7       	brne	.-8      	; 0x1d52 <qsort+0xe0>
    1d5a:	84 9f       	mul	r24, r20
    1d5c:	40 01       	movw	r8, r0
    1d5e:	85 9f       	mul	r24, r21
    1d60:	90 0c       	add	r9, r0
    1d62:	94 9f       	mul	r25, r20
    1d64:	90 0c       	add	r9, r0
    1d66:	11 24       	eor	r1, r1
    1d68:	14 01       	movw	r2, r8
    1d6a:	22 0c       	add	r2, r2
    1d6c:	33 1c       	adc	r3, r3
    1d6e:	a8 01       	movw	r20, r16
    1d70:	42 0d       	add	r20, r2
    1d72:	53 1d       	adc	r21, r3
    1d74:	b8 01       	movw	r22, r16
    1d76:	68 0d       	add	r22, r8
    1d78:	79 1d       	adc	r23, r9
    1d7a:	97 01       	movw	r18, r14
    1d7c:	c8 01       	movw	r24, r16
    1d7e:	0e 94 05 0e 	call	0x1c0a	; 0x1c0a <med3>
    1d82:	2c 01       	movw	r4, r24
    1d84:	a5 01       	movw	r20, r10
    1d86:	48 0d       	add	r20, r8
    1d88:	59 1d       	adc	r21, r9
    1d8a:	91 94       	neg	r9
    1d8c:	81 94       	neg	r8
    1d8e:	91 08       	sbc	r9, r1
    1d90:	97 01       	movw	r18, r14
    1d92:	b5 01       	movw	r22, r10
    1d94:	c5 01       	movw	r24, r10
    1d96:	88 0d       	add	r24, r8
    1d98:	99 1d       	adc	r25, r9
    1d9a:	0e 94 05 0e 	call	0x1c0a	; 0x1c0a <med3>
    1d9e:	5c 01       	movw	r10, r24
    1da0:	b3 01       	movw	r22, r6
    1da2:	68 0d       	add	r22, r8
    1da4:	79 1d       	adc	r23, r9
    1da6:	97 01       	movw	r18, r14
    1da8:	a3 01       	movw	r20, r6
    1daa:	c3 01       	movw	r24, r6
    1dac:	82 19       	sub	r24, r2
    1dae:	93 09       	sbc	r25, r3
    1db0:	0e 94 05 0e 	call	0x1c0a	; 0x1c0a <med3>
    1db4:	3c 01       	movw	r6, r24
    1db6:	01 c0       	rjmp	.+2      	; 0x1dba <qsort+0x148>
    1db8:	28 01       	movw	r4, r16
    1dba:	97 01       	movw	r18, r14
    1dbc:	a3 01       	movw	r20, r6
    1dbe:	b5 01       	movw	r22, r10
    1dc0:	c2 01       	movw	r24, r4
    1dc2:	0e 94 05 0e 	call	0x1c0a	; 0x1c0a <med3>
    1dc6:	5c 01       	movw	r10, r24
    1dc8:	4b 85       	ldd	r20, Y+11	; 0x0b
    1dca:	5c 85       	ldd	r21, Y+12	; 0x0c
    1dcc:	b5 01       	movw	r22, r10
    1dce:	c8 01       	movw	r24, r16
    1dd0:	0e 94 f9 0d 	call	0x1bf2	; 0x1bf2 <swapfunc>
    1dd4:	89 80       	ldd	r8, Y+1	; 0x01
    1dd6:	9a 80       	ldd	r9, Y+2	; 0x02
    1dd8:	4d 81       	ldd	r20, Y+5	; 0x05
    1dda:	5e 81       	ldd	r21, Y+6	; 0x06
    1ddc:	8b 85       	ldd	r24, Y+11	; 0x0b
    1dde:	9c 85       	ldd	r25, Y+12	; 0x0c
    1de0:	48 9f       	mul	r20, r24
    1de2:	90 01       	movw	r18, r0
    1de4:	49 9f       	mul	r20, r25
    1de6:	30 0d       	add	r19, r0
    1de8:	58 9f       	mul	r21, r24
    1dea:	30 0d       	add	r19, r0
    1dec:	11 24       	eor	r1, r1
    1dee:	3c 83       	std	Y+4, r19	; 0x04
    1df0:	2b 83       	std	Y+3, r18	; 0x03
    1df2:	39 01       	movw	r6, r18
    1df4:	60 0e       	add	r6, r16
    1df6:	71 1e       	adc	r7, r17
    1df8:	13 01       	movw	r2, r6
    1dfa:	54 01       	movw	r10, r8
    1dfc:	20 e0       	ldi	r18, 0x00	; 0
    1dfe:	30 e0       	ldi	r19, 0x00	; 0
    1e00:	6a 14       	cp	r6, r10
    1e02:	7b 04       	cpc	r7, r11
    1e04:	08 f4       	brcc	.+2      	; 0x1e08 <qsort+0x196>
    1e06:	41 c0       	rjmp	.+130    	; 0x1e8a <qsort+0x218>
    1e08:	b8 01       	movw	r22, r16
    1e0a:	c5 01       	movw	r24, r10
    1e0c:	29 87       	std	Y+9, r18	; 0x09
    1e0e:	3a 87       	std	Y+10, r19	; 0x0a
    1e10:	f7 01       	movw	r30, r14
    1e12:	09 95       	icall
    1e14:	29 85       	ldd	r18, Y+9	; 0x09
    1e16:	3a 85       	ldd	r19, Y+10	; 0x0a
    1e18:	18 16       	cp	r1, r24
    1e1a:	19 06       	cpc	r1, r25
    1e1c:	b4 f1       	brlt	.+108    	; 0x1e8a <qsort+0x218>
    1e1e:	89 2b       	or	r24, r25
    1e20:	89 f4       	brne	.+34     	; 0x1e44 <qsort+0x1d2>
    1e22:	4b 85       	ldd	r20, Y+11	; 0x0b
    1e24:	5c 85       	ldd	r21, Y+12	; 0x0c
    1e26:	b5 01       	movw	r22, r10
    1e28:	89 81       	ldd	r24, Y+1	; 0x01
    1e2a:	9a 81       	ldd	r25, Y+2	; 0x02
    1e2c:	0e 94 f9 0d 	call	0x1bf2	; 0x1bf2 <swapfunc>
    1e30:	29 81       	ldd	r18, Y+1	; 0x01
    1e32:	3a 81       	ldd	r19, Y+2	; 0x02
    1e34:	4b 85       	ldd	r20, Y+11	; 0x0b
    1e36:	5c 85       	ldd	r21, Y+12	; 0x0c
    1e38:	24 0f       	add	r18, r20
    1e3a:	35 1f       	adc	r19, r21
    1e3c:	3a 83       	std	Y+2, r19	; 0x02
    1e3e:	29 83       	std	Y+1, r18	; 0x01
    1e40:	21 e0       	ldi	r18, 0x01	; 1
    1e42:	30 e0       	ldi	r19, 0x00	; 0
    1e44:	8b 85       	ldd	r24, Y+11	; 0x0b
    1e46:	9c 85       	ldd	r25, Y+12	; 0x0c
    1e48:	a8 0e       	add	r10, r24
    1e4a:	b9 1e       	adc	r11, r25
    1e4c:	d9 cf       	rjmp	.-78     	; 0x1e00 <qsort+0x18e>
    1e4e:	b8 01       	movw	r22, r16
    1e50:	c3 01       	movw	r24, r6
    1e52:	29 87       	std	Y+9, r18	; 0x09
    1e54:	3a 87       	std	Y+10, r19	; 0x0a
    1e56:	f7 01       	movw	r30, r14
    1e58:	09 95       	icall
    1e5a:	23 01       	movw	r4, r6
    1e5c:	4b 85       	ldd	r20, Y+11	; 0x0b
    1e5e:	5c 85       	ldd	r21, Y+12	; 0x0c
    1e60:	44 1a       	sub	r4, r20
    1e62:	55 0a       	sbc	r5, r21
    1e64:	29 85       	ldd	r18, Y+9	; 0x09
    1e66:	3a 85       	ldd	r19, Y+10	; 0x0a
    1e68:	97 fd       	sbrc	r25, 7
    1e6a:	13 c0       	rjmp	.+38     	; 0x1e92 <qsort+0x220>
    1e6c:	89 2b       	or	r24, r25
    1e6e:	61 f4       	brne	.+24     	; 0x1e88 <qsort+0x216>
    1e70:	4b 85       	ldd	r20, Y+11	; 0x0b
    1e72:	5c 85       	ldd	r21, Y+12	; 0x0c
    1e74:	b1 01       	movw	r22, r2
    1e76:	c3 01       	movw	r24, r6
    1e78:	0e 94 f9 0d 	call	0x1bf2	; 0x1bf2 <swapfunc>
    1e7c:	2b 85       	ldd	r18, Y+11	; 0x0b
    1e7e:	3c 85       	ldd	r19, Y+12	; 0x0c
    1e80:	22 1a       	sub	r2, r18
    1e82:	33 0a       	sbc	r3, r19
    1e84:	21 e0       	ldi	r18, 0x01	; 1
    1e86:	30 e0       	ldi	r19, 0x00	; 0
    1e88:	32 01       	movw	r6, r4
    1e8a:	6a 14       	cp	r6, r10
    1e8c:	7b 04       	cpc	r7, r11
    1e8e:	f8 f6       	brcc	.-66     	; 0x1e4e <qsort+0x1dc>
    1e90:	0e c0       	rjmp	.+28     	; 0x1eae <qsort+0x23c>
    1e92:	4b 85       	ldd	r20, Y+11	; 0x0b
    1e94:	5c 85       	ldd	r21, Y+12	; 0x0c
    1e96:	b3 01       	movw	r22, r6
    1e98:	c5 01       	movw	r24, r10
    1e9a:	0e 94 f9 0d 	call	0x1bf2	; 0x1bf2 <swapfunc>
    1e9e:	4b 85       	ldd	r20, Y+11	; 0x0b
    1ea0:	5c 85       	ldd	r21, Y+12	; 0x0c
    1ea2:	a4 0e       	add	r10, r20
    1ea4:	b5 1e       	adc	r11, r21
    1ea6:	32 01       	movw	r6, r4
    1ea8:	21 e0       	ldi	r18, 0x01	; 1
    1eaa:	30 e0       	ldi	r19, 0x00	; 0
    1eac:	a9 cf       	rjmp	.-174    	; 0x1e00 <qsort+0x18e>
    1eae:	23 2b       	or	r18, r19
    1eb0:	09 f4       	brne	.+2      	; 0x1eb4 <qsort+0x242>
    1eb2:	50 c0       	rjmp	.+160    	; 0x1f54 <qsort+0x2e2>
    1eb4:	4b 80       	ldd	r4, Y+3	; 0x03
    1eb6:	5c 80       	ldd	r5, Y+4	; 0x04
    1eb8:	4f 81       	ldd	r20, Y+7	; 0x07
    1eba:	58 85       	ldd	r21, Y+8	; 0x08
    1ebc:	44 1a       	sub	r4, r20
    1ebe:	55 0a       	sbc	r5, r21
    1ec0:	40 0e       	add	r4, r16
    1ec2:	51 1e       	adc	r5, r17
    1ec4:	65 01       	movw	r12, r10
    1ec6:	29 81       	ldd	r18, Y+1	; 0x01
    1ec8:	3a 81       	ldd	r19, Y+2	; 0x02
    1eca:	c2 1a       	sub	r12, r18
    1ecc:	d3 0a       	sbc	r13, r19
    1ece:	a9 01       	movw	r20, r18
    1ed0:	40 1b       	sub	r20, r16
    1ed2:	51 0b       	sbc	r21, r17
    1ed4:	c4 16       	cp	r12, r20
    1ed6:	d5 06       	cpc	r13, r21
    1ed8:	0c f4       	brge	.+2      	; 0x1edc <qsort+0x26a>
    1eda:	a6 01       	movw	r20, r12
    1edc:	14 16       	cp	r1, r20
    1ede:	15 06       	cpc	r1, r21
    1ee0:	34 f4       	brge	.+12     	; 0x1eee <qsort+0x27c>
    1ee2:	b5 01       	movw	r22, r10
    1ee4:	64 1b       	sub	r22, r20
    1ee6:	75 0b       	sbc	r23, r21
    1ee8:	c8 01       	movw	r24, r16
    1eea:	0e 94 f9 0d 	call	0x1bf2	; 0x1bf2 <swapfunc>
    1eee:	41 01       	movw	r8, r2
    1ef0:	86 18       	sub	r8, r6
    1ef2:	97 08       	sbc	r9, r7
    1ef4:	a2 01       	movw	r20, r4
    1ef6:	42 19       	sub	r20, r2
    1ef8:	53 09       	sbc	r21, r3
    1efa:	8b 85       	ldd	r24, Y+11	; 0x0b
    1efc:	9c 85       	ldd	r25, Y+12	; 0x0c
    1efe:	48 1b       	sub	r20, r24
    1f00:	59 0b       	sbc	r21, r25
    1f02:	84 16       	cp	r8, r20
    1f04:	95 06       	cpc	r9, r21
    1f06:	08 f4       	brcc	.+2      	; 0x1f0a <qsort+0x298>
    1f08:	a4 01       	movw	r20, r8
    1f0a:	14 16       	cp	r1, r20
    1f0c:	15 06       	cpc	r1, r21
    1f0e:	34 f4       	brge	.+12     	; 0x1f1c <qsort+0x2aa>
    1f10:	b2 01       	movw	r22, r4
    1f12:	64 1b       	sub	r22, r20
    1f14:	75 0b       	sbc	r23, r21
    1f16:	c5 01       	movw	r24, r10
    1f18:	0e 94 f9 0d 	call	0x1bf2	; 0x1bf2 <swapfunc>
    1f1c:	eb 85       	ldd	r30, Y+11	; 0x0b
    1f1e:	fc 85       	ldd	r31, Y+12	; 0x0c
    1f20:	ec 15       	cp	r30, r12
    1f22:	fd 05       	cpc	r31, r13
    1f24:	48 f4       	brcc	.+18     	; 0x1f38 <qsort+0x2c6>
    1f26:	c6 01       	movw	r24, r12
    1f28:	bf 01       	movw	r22, r30
    1f2a:	0e 94 e5 0d 	call	0x1bca	; 0x1bca <__udivmodhi4>
    1f2e:	97 01       	movw	r18, r14
    1f30:	af 01       	movw	r20, r30
    1f32:	c8 01       	movw	r24, r16
    1f34:	0e 94 39 0e 	call	0x1c72	; 0x1c72 <qsort>
    1f38:	2b 85       	ldd	r18, Y+11	; 0x0b
    1f3a:	3c 85       	ldd	r19, Y+12	; 0x0c
    1f3c:	28 15       	cp	r18, r8
    1f3e:	39 05       	cpc	r19, r9
    1f40:	a0 f5       	brcc	.+104    	; 0x1faa <qsort+0x338>
    1f42:	82 01       	movw	r16, r4
    1f44:	08 19       	sub	r16, r8
    1f46:	19 09       	sbc	r17, r9
    1f48:	c4 01       	movw	r24, r8
    1f4a:	b9 01       	movw	r22, r18
    1f4c:	0e 94 e5 0d 	call	0x1bca	; 0x1bca <__udivmodhi4>
    1f50:	6b 01       	movw	r12, r22
    1f52:	9f ce       	rjmp	.-706    	; 0x1c92 <qsort+0x20>
    1f54:	8b 85       	ldd	r24, Y+11	; 0x0b
    1f56:	9c 85       	ldd	r25, Y+12	; 0x0c
    1f58:	c8 9e       	mul	r12, r24
    1f5a:	50 01       	movw	r10, r0
    1f5c:	c9 9e       	mul	r12, r25
    1f5e:	b0 0c       	add	r11, r0
    1f60:	d8 9e       	mul	r13, r24
    1f62:	b0 0c       	add	r11, r0
    1f64:	11 24       	eor	r1, r1
    1f66:	a0 0e       	add	r10, r16
    1f68:	b1 1e       	adc	r11, r17
    1f6a:	8a 14       	cp	r8, r10
    1f6c:	9b 04       	cpc	r9, r11
    1f6e:	e8 f4       	brcc	.+58     	; 0x1faa <qsort+0x338>
    1f70:	34 01       	movw	r6, r8
    1f72:	06 15       	cp	r16, r6
    1f74:	17 05       	cpc	r17, r7
    1f76:	a0 f4       	brcc	.+40     	; 0x1fa0 <qsort+0x32e>
    1f78:	63 01       	movw	r12, r6
    1f7a:	8b 85       	ldd	r24, Y+11	; 0x0b
    1f7c:	9c 85       	ldd	r25, Y+12	; 0x0c
    1f7e:	c8 1a       	sub	r12, r24
    1f80:	d9 0a       	sbc	r13, r25
    1f82:	b3 01       	movw	r22, r6
    1f84:	c6 01       	movw	r24, r12
    1f86:	f7 01       	movw	r30, r14
    1f88:	09 95       	icall
    1f8a:	18 16       	cp	r1, r24
    1f8c:	19 06       	cpc	r1, r25
    1f8e:	44 f4       	brge	.+16     	; 0x1fa0 <qsort+0x32e>
    1f90:	4b 85       	ldd	r20, Y+11	; 0x0b
    1f92:	5c 85       	ldd	r21, Y+12	; 0x0c
    1f94:	b6 01       	movw	r22, r12
    1f96:	c3 01       	movw	r24, r6
    1f98:	0e 94 f9 0d 	call	0x1bf2	; 0x1bf2 <swapfunc>
    1f9c:	36 01       	movw	r6, r12
    1f9e:	e9 cf       	rjmp	.-46     	; 0x1f72 <qsort+0x300>
    1fa0:	2b 85       	ldd	r18, Y+11	; 0x0b
    1fa2:	3c 85       	ldd	r19, Y+12	; 0x0c
    1fa4:	82 0e       	add	r8, r18
    1fa6:	93 1e       	adc	r9, r19
    1fa8:	e0 cf       	rjmp	.-64     	; 0x1f6a <qsort+0x2f8>
    1faa:	2c 96       	adiw	r28, 0x0c	; 12
    1fac:	e2 e1       	ldi	r30, 0x12	; 18
    1fae:	0c 94 f5 0f 	jmp	0x1fea	; 0x1fea <__epilogue_restores__>

00001fb2 <__prologue_saves__>:
    1fb2:	2f 92       	push	r2
    1fb4:	3f 92       	push	r3
    1fb6:	4f 92       	push	r4
    1fb8:	5f 92       	push	r5
    1fba:	6f 92       	push	r6
    1fbc:	7f 92       	push	r7
    1fbe:	8f 92       	push	r8
    1fc0:	9f 92       	push	r9
    1fc2:	af 92       	push	r10
    1fc4:	bf 92       	push	r11
    1fc6:	cf 92       	push	r12
    1fc8:	df 92       	push	r13
    1fca:	ef 92       	push	r14
    1fcc:	ff 92       	push	r15
    1fce:	0f 93       	push	r16
    1fd0:	1f 93       	push	r17
    1fd2:	cf 93       	push	r28
    1fd4:	df 93       	push	r29
    1fd6:	cd b7       	in	r28, 0x3d	; 61
    1fd8:	de b7       	in	r29, 0x3e	; 62
    1fda:	ca 1b       	sub	r28, r26
    1fdc:	db 0b       	sbc	r29, r27
    1fde:	0f b6       	in	r0, 0x3f	; 63
    1fe0:	f8 94       	cli
    1fe2:	de bf       	out	0x3e, r29	; 62
    1fe4:	0f be       	out	0x3f, r0	; 63
    1fe6:	cd bf       	out	0x3d, r28	; 61
    1fe8:	09 94       	ijmp

00001fea <__epilogue_restores__>:
    1fea:	2a 88       	ldd	r2, Y+18	; 0x12
    1fec:	39 88       	ldd	r3, Y+17	; 0x11
    1fee:	48 88       	ldd	r4, Y+16	; 0x10
    1ff0:	5f 84       	ldd	r5, Y+15	; 0x0f
    1ff2:	6e 84       	ldd	r6, Y+14	; 0x0e
    1ff4:	7d 84       	ldd	r7, Y+13	; 0x0d
    1ff6:	8c 84       	ldd	r8, Y+12	; 0x0c
    1ff8:	9b 84       	ldd	r9, Y+11	; 0x0b
    1ffa:	aa 84       	ldd	r10, Y+10	; 0x0a
    1ffc:	b9 84       	ldd	r11, Y+9	; 0x09
    1ffe:	c8 84       	ldd	r12, Y+8	; 0x08
    2000:	df 80       	ldd	r13, Y+7	; 0x07
    2002:	ee 80       	ldd	r14, Y+6	; 0x06
    2004:	fd 80       	ldd	r15, Y+5	; 0x05
    2006:	0c 81       	ldd	r16, Y+4	; 0x04
    2008:	1b 81       	ldd	r17, Y+3	; 0x03
    200a:	aa 81       	ldd	r26, Y+2	; 0x02
    200c:	b9 81       	ldd	r27, Y+1	; 0x01
    200e:	ce 0f       	add	r28, r30
    2010:	d1 1d       	adc	r29, r1
    2012:	0f b6       	in	r0, 0x3f	; 63
    2014:	f8 94       	cli
    2016:	de bf       	out	0x3e, r29	; 62
    2018:	0f be       	out	0x3f, r0	; 63
    201a:	cd bf       	out	0x3d, r28	; 61
    201c:	ed 01       	movw	r28, r26
    201e:	08 95       	ret

00002020 <_exit>:
    2020:	f8 94       	cli

00002022 <__stop_program>:
    2022:	ff cf       	rjmp	.-2      	; 0x2022 <__stop_program>
